 8000  D8        CLD  
 8001  A9 27     LDA  #$27
 8003  85 10     STA  $10
 8005  A9 F0     LDA  #$F0
 8007  85 11     STA  $11
 8009  A2 21     LDX  #$21
 800B  BD C5 80  LDA  $80C5, X
 800E  95 00     STA  $00, X
 8010  CA        DEX  
 8011  D0 F8     BNE  $800B
 8013  AD C5 80  LDA  $80C5
 8016  85 00     STA  $00
 8018  A2 FF     LDX  #$FF
 801A  9A        TXS  
 801B  A2 78     LDX  #$78
 801D  A0 31     LDY  #$31
 801F  A9 00     LDA  #$00
 8021  B9 E7 80  LDA  $80E7, Y
 8024  91 1E     STA  ($1E), Y
 8026  88        DEY  
 8027  D0 F8     BNE  $8021
 8029  AD E7 80  LDA  $80E7
 802C  92 1E     STA  ($1E)
 802E  20 17 87  JSR  $8717
 8031  CA        DEX  
 8032  CA        DEX  
 8033  CA        DEX  
 8034  CA        DEX  
 8035  A9 03     LDA  #$03
 8037  95 02     STA  $02, X
 8039  A9 A2     LDA  #$A2
 803B  95 03     STA  $03, X
 803D  A9 C7     LDA  #$C7
 803F  38        SEC  
 8040  E9 03     SBC  #$03
 8042  95 00     STA  $00, X
 8044  A9 A2     LDA  #$A2
 8046  E9 A2     SBC  #$A2
 8048  95 01     STA  $01, X
 804A  20 A4 8D  JSR  $8DA4
 804D  CA        DEX  
 804E  CA        DEX  
 804F  CA        DEX  
 8050  CA        DEX  
 8051  A9 C7     LDA  #$C7
 8053  95 02     STA  $02, X
 8055  A9 A2     LDA  #$A2
 8057  95 03     STA  $03, X
 8059  A9 C9     LDA  #$C9
 805B  38        SEC  
 805C  E9 C7     SBC  #$C7
 805E  95 00     STA  $00, X
 8060  A9 A2     LDA  #$A2
 8062  E9 A2     SBC  #$A2
 8064  95 01     STA  $01, X
 8066  20 A4 8D  JSR  $8DA4
 8069  9C 00 7C  STZ  $7C00
 806C  9C 80 7C  STZ  $7C80
 806F  9C 00 7D  STZ  $7D00
 8072  9C 80 7D  STZ  $7D80
 8075  9C 00 7E  STZ  $7E00
 8078  9C 80 7E  STZ  $7E80
 807B  9C 00 7F  STZ  $7F00
 807E  9C 80 7F  STZ  $7F80
 8081  A2 78     LDX  #$78
 8083  8A        TXA  
 8084  A2 FF     LDX  #$FF
 8086  9A        TXS  
 8087  AA        TAX  
 8088  64 0E     STZ  $0E
 808A  64 0F     STZ  $0F
 808C  64 06     STZ  $06
 808E  64 07     STZ  $07
 8090  64 16     STZ  $16
 8092  64 17     STZ  $17
 8094  A9 00     LDA  #$00
 8096  85 08     STA  $08
 8098  A9 02     LDA  #$02
 809A  85 09     STA  $09
 809C  64 0A     STZ  $0A
 809E  64 0B     STZ  $0B
 80A0  20 83 96  JSR  $9683
 80A3  B5 00     LDA  $00, X
 80A5  D0 05     BNE  $80AC
 80A7  A9 06     LDA  #$06
 80A9  4C 32 B2  JMP  $B232
 80AC  E8        INX  
 80AD  E8        INX  
 80AE  20 84 B1  JSR  $B184
 80B1  E0 78     CPX  #$78
 80B3  F0 05     BEQ  $80BA
 80B5  90 03     BCC  $80BA
 80B7  4C 30 B2  JMP  $B230
 80BA  A5 16     LDA  $16
 80BC  F0 02     BEQ  $80C0
 80BE  A9 01     LDA  #$01
 80C0  20 62 B2  JSR  $B262
 80C3  80 CF     BRA  $8094
 80C5  00 08 84 AE 00 00 00 00 00 02 00 00 00 00 00 00  |................|
 80D5  27 F0 21 F0 00 00 00 00 0A 00 14 00 00 00 00 03  |'.!.............|
 80E5  00 00 00 00 00 00 00 04 84 AE 90 AE 90 AE 90 AE  |................|
 80F5  00 00 00 00 00 00 00 00 00 00 00 00 00 00 00 00  |................|
 8105  01 00 00 00 00 00 00 00 00 00 00 04 00 00 00 00  |................|
 8115  00 00 00 00                                      |....            |
 8119  20 F0 97  JSR  $97F0
 811C  A0 81     LDY  #$81
 811E  A9 24     LDA  #$24
 8120  20 BF B0  JSR  $B0BF
 8123  60        RTS  
 8124  B5 04     LDA  $04, X
 8126  15 05     ORA  $05, X
 8128  F0 09     BEQ  $8133
 812A  20 17 9F  JSR  $9F17
 812D  20 17 87  JSR  $8717
 8130  4C 81 80  JMP  $8081
 8133  8A        TXA  
 8134  18        CLC  
 8135  69 06     ADC  #$06
 8137  AA        TAX  
 8138  60        RTS  
 8139  20 1C B2  JSR  $B21C
 813C  B5 01     LDA  $01, X
 813E  10 0D     BPL  $814D
 8140  38        SEC  
 8141  A9 00     LDA  #$00
 8143  F5 00     SBC  $00, X
 8145  95 00     STA  $00, X
 8147  A9 00     LDA  #$00
 8149  F5 01     SBC  $01, X
 814B  95 01     STA  $01, X
 814D  60        RTS  
 814E  20 21 B2  JSR  $B221
 8151  B5 00     LDA  $00, X
 8153  15 01     ORA  $01, X
 8155  D0 09     BNE  $8160
 8157  E8        INX  
 8158  E8        INX  
 8159  74 00     STZ  $00, X
 815B  74 01     STZ  $01, X
 815D  4C 2C 82  JMP  $822C
 8160  B5 00     LDA  $00, X
 8162  85 26     STA  $26
 8164  64 27     STZ  $27
 8166  B5 02     LDA  $02, X
 8168  85 24     STA  $24
 816A  B5 03     LDA  $03, X
 816C  85 25     STA  $25
 816E  E8        INX  
 816F  E8        INX  
 8170  A0 00     LDY  #$00
 8172  A5 20     LDA  $20
 8174  29 F7     AND  #$F7
 8176  1A        INC  
 8177  09 08     ORA  #$08
 8179  85 20     STA  $20
 817B  20 DE 8F  JSR  $8FDE
 817E  C9 0A     CMP  #$0A
 8180  F0 20     BEQ  $81A2
 8182  C9 0D     CMP  #$0D
 8184  F0 1C     BEQ  $81A2
 8186  C9 08     CMP  #$08
 8188  F0 22     BEQ  $81AC
 818A  C9 7F     CMP  #$7F
 818C  F0 1E     BEQ  $81AC
 818E  C9 10     CMP  #$10
 8190  F0 36     BEQ  $81C8
 8192  C9 0E     CMP  #$0E
 8194  F0 44     BEQ  $81DA
 8196  91 24     STA  ($24), Y
 8198  C8        INY  
 8199  20 96 8B  JSR  $8B96
 819C  C4 26     CPY  $26
 819E  D0 DB     BNE  $817B
 81A0  80 03     BRA  $81A5
 81A2  20 94 9B  JSR  $9B94
 81A5  94 00     STY  $00, X
 81A7  74 01     STZ  $01, X
 81A9  4C 2C 82  JMP  $822C
 81AC  C0 00     CPY  #$00
 81AE  D0 06     BNE  $81B6
 81B0  A9 07     LDA  #$07
 81B2  20 96 8B  JSR  $8B96
 81B5  C8        INY  
 81B6  88        DEY  
 81B7  A9 08     LDA  #$08
 81B9  20 96 8B  JSR  $8B96
 81BC  A9 20     LDA  #$20
 81BE  20 96 8B  JSR  $8B96
 81C1  A9 08     LDA  #$08
 81C3  20 96 8B  JSR  $8B96
 81C6  80 B3     BRA  $817B
 81C8  A5 20     LDA  $20
 81CA  29 07     AND  #$07
 81CC  D0 08     BNE  $81D6
 81CE  A5 20     LDA  $20
 81D0  09 07     ORA  #$07
 81D2  85 20     STA  $20
 81D4  80 11     BRA  $81E7
 81D6  C6 20     DEC  $20
 81D8  80 0D     BRA  $81E7
 81DA  A9 08     LDA  #$08
 81DC  24 20     BIT  $20
 81DE  D0 07     BNE  $81E7
 81E0  A5 20     LDA  $20
 81E2  29 F7     AND  #$F7
 81E4  1A        INC  
 81E5  85 20     STA  $20
 81E7  A9 08     LDA  #$08
 81E9  14 20     TRB  $20
 81EB  20 47 82  JSR  $8247
 81EE  A9 0D     LDA  #$0D
 81F0  20 96 8B  JSR  $8B96
 81F3  C0 00     CPY  #$00
 81F5  F0 08     BEQ  $81FF
 81F7  A9 20     LDA  #$20
 81F9  20 96 8B  JSR  $8B96
 81FC  88        DEY  
 81FD  80 F4     BRA  $81F3
 81FF  A9 0D     LDA  #$0D
 8201  20 96 8B  JSR  $8B96
 8204  B1 28     LDA  ($28), Y
 8206  85 21     STA  $21
 8208  E6 28     INC  $28
 820A  D0 02     BNE  $820E
 820C  E6 29     INC  $29
 820E  A9 0D     LDA  #$0D
 8210  20 96 8B  JSR  $8B96
 8213  C4 21     CPY  $21
 8215  D0 03     BNE  $821A
 8217  4C 7B 81  JMP  $817B
 821A  C4 26     CPY  $26
 821C  F0 0A     BEQ  $8228
 821E  B1 28     LDA  ($28), Y
 8220  91 24     STA  ($24), Y
 8222  20 96 8B  JSR  $8B96
 8225  C8        INY  
 8226  80 EB     BRA  $8213
 8228  88        DEY  
 8229  4C 7B 81  JMP  $817B
 822C  20 47 82  JSR  $8247
 822F  85 21     STA  $21
 8231  A0 00     LDY  #$00
 8233  91 28     STA  ($28), Y
 8235  E6 28     INC  $28
 8237  D0 02     BNE  $823B
 8239  E6 29     INC  $29
 823B  C4 21     CPY  $21
 823D  F0 07     BEQ  $8246
 823F  B1 24     LDA  ($24), Y
 8241  91 28     STA  ($28), Y
 8243  C8        INY  
 8244  80 F5     BRA  $823B
 8246  60        RTS  
 8247  A9 00     LDA  #$00
 8249  85 28     STA  $28
 824B  A9 7C     LDA  #$7C
 824D  85 29     STA  $29
 824F  A5 20     LDA  $20
 8251  6A        ROR  
 8252  29 03     AND  #$03
 8254  18        CLC  
 8255  65 29     ADC  $29
 8257  85 29     STA  $29
 8259  A5 20     LDA  $20
 825B  6A        ROR  
 825C  6A        ROR  
 825D  29 80     AND  #$80
 825F  18        CLC  
 8260  65 28     ADC  $28
 8262  85 28     STA  $28
 8264  90 02     BCC  $8268
 8266  E6 29     INC  $29
 8268  98        TYA  
 8269  C9 80     CMP  #$80
 826B  90 02     BCC  $826F
 826D  A9 7F     LDA  #$7F
 826F  60        RTS  
 8270  A5 16     LDA  $16
 8272  05 17     ORA  $17
 8274  F0 0C     BEQ  $8282
 8276  20 A3 83  JSR  $83A3
 8279  A0 88     LDY  #$88
 827B  A9 93     LDA  #$93
 827D  20 BF B0  JSR  $B0BF
 8280  80 06     BRA  $8288
 8282  20 38 9C  JSR  $9C38
 8285  20 93 88  JSR  $8893
 8288  60        RTS  
 8289  20 1C B2  JSR  $B21C
 828C  A0 00     LDY  #$00
 828E  A9 4C     LDA  #$4C
 8290  91 00     STA  ($00), Y
 8292  C8        INY  
 8293  B5 00     LDA  $00, X
 8295  91 00     STA  ($00), Y
 8297  C8        INY  
 8298  B5 01     LDA  $01, X
 829A  91 00     STA  ($00), Y
 829C  C8        INY  
 829D  98        TYA  
 829E  18        CLC  
 829F  65 00     ADC  $00
 82A1  85 00     STA  $00
 82A3  90 02     BCC  $82A7
 82A5  E6 01     INC  $01
 82A7  E8        INX  
 82A8  E8        INX  
 82A9  60        RTS  
 82AA  60        RTS  
 82AB  20 1C B2  JSR  $B21C
 82AE  B5 01     LDA  $01, X
 82B0  30 22     BMI  $82D4
 82B2  18        CLC  
 82B3  A5 00     LDA  $00
 82B5  75 00     ADC  $00, X
 82B7  85 00     STA  $00
 82B9  A5 01     LDA  $01
 82BB  75 01     ADC  $01, X
 82BD  85 01     STA  $01
 82BF  A0 00     LDY  #$00
 82C1  C4 00     CPY  $00
 82C3  A9 7C     LDA  #$7C
 82C5  E5 01     SBC  $01
 82C7  B0 48     BCS  $8311
 82C9  84 00     STY  $00
 82CB  A9 7C     LDA  #$7C
 82CD  85 01     STA  $01
 82CF  A9 00     LDA  #$00
 82D1  4C 32 B2  JMP  $B232
 82D4  CA        DEX  
 82D5  CA        DEX  
 82D6  A5 00     LDA  $00
 82D8  95 00     STA  $00, X
 82DA  A5 01     LDA  $01
 82DC  95 01     STA  $01, X
 82DE  20 7B 95  JSR  $957B
 82E1  CA        DEX  
 82E2  CA        DEX  
 82E3  A9 00     LDA  #$00
 82E5  95 00     STA  $00, X
 82E7  A9 03     LDA  #$03
 82E9  95 01     STA  $01, X
 82EB  20 43 B1  JSR  $B143
 82EE  F0 17     BEQ  $8307
 82F0  30 15     BMI  $8307
 82F2  A9 00     LDA  #$00
 82F4  85 00     STA  $00
 82F6  A9 03     LDA  #$03
 82F8  85 01     STA  $01
 82FA  A9 84     LDA  #$84
 82FC  85 02     STA  $02
 82FE  A9 AE     LDA  #$AE
 8300  85 03     STA  $03
 8302  A9 0A     LDA  #$0A
 8304  4C 32 B2  JMP  $B232
 8307  B5 02     LDA  $02, X
 8309  85 00     STA  $00
 830B  B5 03     LDA  $03, X
 830D  85 01     STA  $01
 830F  E8        INX  
 8310  E8        INX  
 8311  E8        INX  
 8312  E8        INX  
 8313  60        RTS  
 8314  20 5E B1  JSR  $B15E
 8317  A0 01     LDY  #$01
 8319  B1 02     LDA  ($02), Y
 831B  29 F5     AND  #$F5
 831D  91 02     STA  ($02), Y
 831F  60        RTS  
 8320  20 5E B1  JSR  $B15E
 8323  A0 01     LDY  #$01
 8325  B1 02     LDA  ($02), Y
 8327  09 02     ORA  #$02
 8329  29 F7     AND  #$F7
 832B  91 02     STA  ($02), Y
 832D  60        RTS  
 832E  20 21 B2  JSR  $B221
 8331  B5 00     LDA  $00, X
 8333  35 02     AND  $02, X
 8335  95 02     STA  $02, X
 8337  B5 01     LDA  $01, X
 8339  35 03     AND  $03, X
 833B  95 03     STA  $03, X
 833D  E8        INX  
 833E  E8        INX  
 833F  60        RTS  
 8340  20 21 B2  JSR  $B221
 8343  A9 1B     LDA  #$1B
 8345  20 96 8B  JSR  $8B96
 8348  A9 5B     LDA  #$5B
 834A  20 96 8B  JSR  $8B96
 834D  20 68 B2  JSR  $B268
 8350  A9 3B     LDA  #$3B
 8352  20 96 8B  JSR  $8B96
 8355  20 68 B2  JSR  $B268
 8358  A9 48     LDA  #$48
 835A  20 96 8B  JSR  $8B96
 835D  60        RTS  
 835E  A5 0A     LDA  $0A
 8360  85 0C     STA  $0C
 8362  A5 0B     LDA  $0B
 8364  85 0D     STA  $0D
 8366  60        RTS  
 8367  CA        DEX  
 8368  CA        DEX  
 8369  A9 18     LDA  #$18
 836B  95 00     STA  $00, X
 836D  74 01     STZ  $01, X
 836F  60        RTS  
 8370  20 18 8E  JSR  $8E18
 8373  60        RTS  
 8374  A9 07     LDA  #$07
 8376  20 96 8B  JSR  $8B96
 8379  60        RTS  
 837A  CA        DEX  
 837B  CA        DEX  
 837C  A9 20     LDA  #$20
 837E  95 00     STA  $00, X
 8380  74 01     STZ  $01, X
 8382  60        RTS  
 8383  20 21 B2  JSR  $B221
 8386  18        CLC  
 8387  B5 00     LDA  $00, X
 8389  B4 02     LDY  $02, X
 838B  75 02     ADC  $02, X
 838D  95 02     STA  $02, X
 838F  94 00     STY  $00, X
 8391  B5 01     LDA  $01, X
 8393  B4 03     LDY  $03, X
 8395  75 03     ADC  $03, X
 8397  95 03     STA  $03, X
 8399  94 01     STY  $01, X
 839B  60        RTS  
 839C  20 E5 83  JSR  $83E5
 839F  20 23 90  JSR  $9023
 83A2  60        RTS  
 83A3  20 38 9C  JSR  $9C38
 83A6  20 23 90  JSR  $9023
 83A9  60        RTS  
 83AA  20 1D 87  JSR  $871D
 83AD  20 AB 82  JSR  $82AB
 83B0  60        RTS  
 83B1  4C 00 E0  JMP  $E000
 83B4  20 1C B2  JSR  $B21C
 83B7  B5 00     LDA  $00, X
 83B9  20 CF B0  JSR  $B0CF
 83BC  E8        INX  
 83BD  E8        INX  
 83BE  60        RTS  
 83BF  20 1C B2  JSR  $B21C
 83C2  A1 00     LDA  ($00, X)
 83C4  95 00     STA  $00, X
 83C6  74 01     STZ  $01, X
 83C8  60        RTS  
 83C9  20 21 B2  JSR  $B221
 83CC  B5 02     LDA  $02, X
 83CE  81 00     STA  ($00, X)
 83D0  E8        INX  
 83D1  E8        INX  
 83D2  E8        INX  
 83D3  E8        INX  
 83D4  60        RTS  
 83D5  20 1C B2  JSR  $B21C
 83D8  F6 00     INC  $00, X
 83DA  D0 02     BNE  $83DE
 83DC  F6 01     INC  $01, X
 83DE  F6 00     INC  $00, X
 83E0  D0 02     BNE  $83E4
 83E2  F6 01     INC  $01, X
 83E4  60        RTS  
 83E5  20 77 94  JSR  $9477
 83E8  B5 00     LDA  $00, X
 83EA  15 01     ORA  $01, X
 83EC  D0 05     BNE  $83F3
 83EE  A9 05     LDA  #$05
 83F0  4C 32 B2  JMP  $B232
 83F3  E8        INX  
 83F4  E8        INX  
 83F5  A1 00     LDA  ($00, X)
 83F7  95 00     STA  $00, X
 83F9  74 01     STZ  $01, X
 83FB  60        RTS  
 83FC  20 1C B2  JSR  $B21C
 83FF  60        RTS  
 8400  20 21 B2  JSR  $B221
 8403  20 B8 91  JSR  $91B8
 8406  20 08 8F  JSR  $8F08
 8409  B5 00     LDA  $00, X
 840B  85 0A     STA  $0A
 840D  B5 01     LDA  $01, X
 840F  85 0B     STA  $0B
 8411  B5 02     LDA  $02, X
 8413  85 08     STA  $08
 8415  B5 03     LDA  $03, X
 8417  85 09     STA  $09
 8419  64 0C     STZ  $0C
 841B  64 0D     STZ  $0D
 841D  20 77 94  JSR  $9477
 8420  B5 00     LDA  $00, X
 8422  15 01     ORA  $01, X
 8424  F0 23     BEQ  $8449
 8426  B5 04     LDA  $04, X
 8428  38        SEC  
 8429  F5 00     SBC  $00, X
 842B  95 04     STA  $04, X
 842D  B5 05     LDA  $05, X
 842F  F5 01     SBC  $01, X
 8431  95 05     STA  $05, X
 8433  B5 06     LDA  $06, X
 8435  18        CLC  
 8436  75 00     ADC  $00, X
 8438  95 06     STA  $06, X
 843A  B5 07     LDA  $07, X
 843C  75 01     ADC  $01, X
 843E  95 07     STA  $07, X
 8440  20 92 9E  JSR  $9E92
 8443  20 B8 91  JSR  $91B8
 8446  20 92 9E  JSR  $9E92
 8449  20 2E 96  JSR  $962E
 844C  60        RTS  
 844D  20 26 B2  JSR  $B226
 8450  B5 02     LDA  $02, X
 8452  85 26     STA  $26
 8454  B5 03     LDA  $03, X
 8456  85 27     STA  $27
 8458  B5 04     LDA  $04, X
 845A  85 24     STA  $24
 845C  B5 05     LDA  $05, X
 845E  85 25     STA  $25
 8460  A0 00     LDY  #$00
 8462  B5 01     LDA  $01, X
 8464  F0 0F     BEQ  $8475
 8466  B1 24     LDA  ($24), Y
 8468  91 26     STA  ($26), Y
 846A  C8        INY  
 846B  D0 F9     BNE  $8466
 846D  E6 25     INC  $25
 846F  E6 27     INC  $27
 8471  D6 01     DEC  $01, X
 8473  D0 F1     BNE  $8466
 8475  B5 00     LDA  $00, X
 8477  F0 09     BEQ  $8482
 8479  B1 24     LDA  ($24), Y
 847B  91 26     STA  ($26), Y
 847D  C8        INY  
 847E  D6 00     DEC  $00, X
 8480  D0 F7     BNE  $8479
 8482  8A        TXA  
 8483  18        CLC  
 8484  69 06     ADC  #$06
 8486  AA        TAX  
 8487  60        RTS  
 8488  20 26 B2  JSR  $B226
 848B  B5 02     LDA  $02, X
 848D  85 26     STA  $26
 848F  B5 03     LDA  $03, X
 8491  18        CLC  
 8492  75 01     ADC  $01, X
 8494  85 27     STA  $27
 8496  B5 04     LDA  $04, X
 8498  85 24     STA  $24
 849A  B5 05     LDA  $05, X
 849C  18        CLC  
 849D  75 01     ADC  $01, X
 849F  85 25     STA  $25
 84A1  F6 01     INC  $01, X
 84A3  B4 00     LDY  $00, X
 84A5  F0 0E     BEQ  $84B5
 84A7  88        DEY  
 84A8  F0 07     BEQ  $84B1
 84AA  B1 24     LDA  ($24), Y
 84AC  91 26     STA  ($26), Y
 84AE  88        DEY  
 84AF  D0 F9     BNE  $84AA
 84B1  B2 24     LDA  ($24)
 84B3  92 26     STA  ($26)
 84B5  C6 25     DEC  $25
 84B7  C6 27     DEC  $27
 84B9  D6 01     DEC  $01, X
 84BB  D0 EA     BNE  $84A7
 84BD  8A        TXA  
 84BE  18        CLC  
 84BF  69 06     ADC  #$06
 84C1  AA        TAX  
 84C2  60        RTS  
 84C3  A5 16     LDA  $16
 84C5  05 17     ORA  $17
 84C7  F0 05     BEQ  $84CE
 84C9  A9 07     LDA  #$07
 84CB  4C 32 B2  JMP  $B232
 84CE  C6 16     DEC  $16
 84D0  C6 17     DEC  $17
 84D2  A9 40     LDA  #$40
 84D4  04 20     TSB  $20
 84D6  20 5E B1  JSR  $B15E
 84D9  A5 03     LDA  $03
 84DB  48        PHA  
 84DC  A5 02     LDA  $02
 84DE  48        PHA  
 84DF  A9 80     LDA  #$80
 84E1  04 20     TSB  $20
 84E3  20 1D 87  JSR  $871D
 84E6  20 5E B1  JSR  $B15E
 84E9  A5 02     LDA  $02
 84EB  85 04     STA  $04
 84ED  A5 03     LDA  $03
 84EF  85 05     STA  $05
 84F1  68        PLA  
 84F2  85 02     STA  $02
 84F4  68        PLA  
 84F5  85 03     STA  $03
 84F7  20 71 B1  JSR  $B171
 84FA  A5 00     LDA  $00
 84FC  38        SEC  
 84FD  E9 03     SBC  #$03
 84FF  85 00     STA  $00
 8501  B0 02     BCS  $8505
 8503  C6 01     DEC  $01
 8505  60        RTS  
 8506  A5 16     LDA  $16
 8508  05 17     ORA  $17
 850A  F0 05     BEQ  $8511
 850C  A9 07     LDA  #$07
 850E  4C 32 B2  JMP  $B232
 8511  C6 16     DEC  $16
 8513  C6 17     DEC  $17
 8515  A9 40     LDA  #$40
 8517  14 20     TRB  $20
 8519  A5 00     LDA  $00
 851B  85 04     STA  $04
 851D  A5 01     LDA  $01
 851F  85 05     STA  $05
 8521  60        RTS  
 8522  20 1C B2  JSR  $B21C
 8525  B5 00     LDA  $00, X
 8527  92 00     STA  ($00)
 8529  E6 00     INC  $00
 852B  D0 02     BNE  $852F
 852D  E6 01     INC  $01
 852F  B5 01     LDA  $01, X
 8531  92 00     STA  ($00)
 8533  E6 00     INC  $00
 8535  D0 02     BNE  $8539
 8537  E6 01     INC  $01
 8539  E8        INX  
 853A  E8        INX  
 853B  60        RTS  
 853C  20 2B B2  JSR  $B22B
 853F  B5 02     LDA  $02, X
 8541  85 26     STA  $26
 8543  B5 03     LDA  $03, X
 8545  85 27     STA  $27
 8547  B5 06     LDA  $06, X
 8549  85 24     STA  $24
 854B  B5 07     LDA  $07, X
 854D  85 25     STA  $25
 854F  B5 04     LDA  $04, X
 8551  15 05     ORA  $05, X
 8553  F0 2C     BEQ  $8581
 8555  B5 00     LDA  $00, X
 8557  15 01     ORA  $01, X
 8559  F0 3A     BEQ  $8595
 855B  B2 24     LDA  ($24)
 855D  D2 26     CMP  ($26)
 855F  90 26     BCC  $8587
 8561  D0 32     BNE  $8595
 8563  E6 24     INC  $24
 8565  D0 02     BNE  $8569
 8567  E6 25     INC  $25
 8569  E6 26     INC  $26
 856B  D0 02     BNE  $856F
 856D  E6 27     INC  $27
 856F  B5 04     LDA  $04, X
 8571  D0 02     BNE  $8575
 8573  D6 05     DEC  $05, X
 8575  D6 04     DEC  $04, X
 8577  B5 00     LDA  $00, X
 8579  D0 02     BNE  $857D
 857B  D6 01     DEC  $01, X
 857D  D6 00     DEC  $00, X
 857F  80 CE     BRA  $854F
 8581  B5 00     LDA  $00, X
 8583  15 01     ORA  $01, X
 8585  F0 08     BEQ  $858F
 8587  A9 FF     LDA  #$FF
 8589  95 06     STA  $06, X
 858B  95 07     STA  $07, X
 858D  80 0C     BRA  $859B
 858F  74 06     STZ  $06, X
 8591  74 07     STZ  $07, X
 8593  80 06     BRA  $859B
 8595  A9 01     LDA  #$01
 8597  95 06     STA  $06, X
 8599  74 07     STZ  $07, X
 859B  8A        TXA  
 859C  18        CLC  
 859D  69 06     ADC  #$06
 859F  AA        TAX  
 85A0  60        RTS  
 85A1  20 1C B2  JSR  $B21C
 85A4  B5 01     LDA  $01, X
 85A6  48        PHA  
 85A7  B5 00     LDA  $00, X
 85A9  48        PHA  
 85AA  20 1E 8F  JSR  $8F1E
 85AD  B5 00     LDA  $00, X
 85AF  15 01     ORA  $01, X
 85B1  D0 03     BNE  $85B6
 85B3  4C 9E 86  JMP  $869E
 85B6  B5 00     LDA  $00, X
 85B8  85 2C     STA  $2C
 85BA  B5 01     LDA  $01, X
 85BC  85 2D     STA  $2D
 85BE  F6 00     INC  $00, X
 85C0  D0 02     BNE  $85C4
 85C2  F6 01     INC  $01, X
 85C4  A1 00     LDA  ($00, X)
 85C6  85 28     STA  $28
 85C8  29 02     AND  #$02
 85CA  F0 0D     BEQ  $85D9
 85CC  A5 2C     LDA  $2C
 85CE  95 00     STA  $00, X
 85D0  A5 2D     LDA  $2D
 85D2  95 01     STA  $01, X
 85D4  20 7F A1  JSR  $A17F
 85D7  80 27     BRA  $8600
 85D9  A5 28     LDA  $28
 85DB  29 08     AND  #$08
 85DD  F0 03     BEQ  $85E2
 85DF  4C 9E 86  JMP  $869E
 85E2  A5 2C     LDA  $2C
 85E4  95 00     STA  $00, X
 85E6  A5 2D     LDA  $2D
 85E8  95 01     STA  $01, X
 85EA  20 7F A1  JSR  $A17F
 85ED  B5 01     LDA  $01, X
 85EF  C5 1B     CMP  $1B
 85F1  90 0D     BCC  $8600
 85F3  D0 08     BNE  $85FD
 85F5  B5 00     LDA  $00, X
 85F7  C5 1A     CMP  $1A
 85F9  90 05     BCC  $8600
 85FB  F0 03     BEQ  $8600
 85FD  4C 9E 86  JMP  $869E
 8600  CA        DEX  
 8601  CA        DEX  
 8602  CA        DEX  
 8603  CA        DEX  
 8604  B5 04     LDA  $04, X
 8606  95 00     STA  $00, X
 8608  B5 05     LDA  $05, X
 860A  95 01     STA  $01, X
 860C  68        PLA  
 860D  95 04     STA  $04, X
 860F  68        PLA  
 8610  95 05     STA  $05, X
 8612  A5 00     LDA  $00
 8614  95 02     STA  $02, X
 8616  A5 01     LDA  $01
 8618  95 03     STA  $03, X
 861A  A0 00     LDY  #$00
 861C  B9 8C 86  LDA  $868C, Y
 861F  D5 04     CMP  $04, X
 8621  D0 07     BNE  $862A
 8623  B9 8D 86  LDA  $868D, Y
 8626  D5 05     CMP  $05, X
 8628  F0 0C     BEQ  $8636
 862A  B9 8C 86  LDA  $868C, Y
 862D  19 8D 86  ORA  $868D, Y
 8630  F0 22     BEQ  $8654
 8632  C8        INY  
 8633  C8        INY  
 8634  80 E6     BRA  $861C
 8636  98        TYA  
 8637  4A        LSR  
 8638  A8        TAY  
 8639  B9 98 86  LDA  $8698, Y
 863C  85 2C     STA  $2C
 863E  18        CLC  
 863F  75 04     ADC  $04, X
 8641  95 04     STA  $04, X
 8643  90 02     BCC  $8647
 8645  F6 05     INC  $05, X
 8647  06 2C     ASL  $2C
 8649  38        SEC  
 864A  B5 00     LDA  $00, X
 864C  E5 2C     SBC  $2C
 864E  95 00     STA  $00, X
 8650  B0 02     BCS  $8654
 8652  D6 01     DEC  $01, X
 8654  A5 1C     LDA  $1C
 8656  05 1D     ORA  $1D
 8658  F0 1C     BEQ  $8676
 865A  A5 28     LDA  $28
 865C  29 10     AND  #$10
 865E  F0 16     BEQ  $8676
 8660  18        CLC  
 8661  B5 04     LDA  $04, X
 8663  69 03     ADC  #$03
 8665  95 04     STA  $04, X
 8667  90 02     BCC  $866B
 8669  F6 05     INC  $05, X
 866B  38        SEC  
 866C  B5 00     LDA  $00, X
 866E  E9 03     SBC  #$03
 8670  95 00     STA  $00, X
 8672  B0 02     BCS  $8676
 8674  D6 01     DEC  $01, X
 8676  B5 01     LDA  $01, X
 8678  48        PHA  
 8679  B5 00     LDA  $00, X
 867B  48        PHA  
 867C  20 17 92  JSR  $9217
 867F  18        CLC  
 8680  68        PLA  
 8681  65 00     ADC  $00
 8683  85 00     STA  $00
 8685  68        PLA  
 8686  65 01     ADC  $01
 8688  85 01     STA  $01
 868A  80 2C     BRA  $86B8
 868C  1D 96 08 96 84 9D B6 9E 3C 9E 00 00 04 04 04 06  |........<.......|
 869C  06 00                                            |..              |
 869E  A9 20     LDA  #$20
 86A0  92 00     STA  ($00)
 86A2  A0 01     LDY  #$01
 86A4  68        PLA  
 86A5  91 00     STA  ($00), Y
 86A7  C8        INY  
 86A8  68        PLA  
 86A9  91 00     STA  ($00), Y
 86AB  A9 03     LDA  #$03
 86AD  18        CLC  
 86AE  65 00     ADC  $00
 86B0  85 00     STA  $00
 86B2  90 02     BCC  $86B6
 86B4  E6 01     INC  $01
 86B6  E8        INX  
 86B7  E8        INX  
 86B8  60        RTS  
 86B9  20 5E B1  JSR  $B15E
 86BC  A0 01     LDY  #$01
 86BE  B1 02     LDA  ($02), Y
 86C0  09 01     ORA  #$01
 86C2  91 02     STA  ($02), Y
 86C4  60        RTS  
 86C5  20 1C B2  JSR  $B21C
 86C8  20 1D 87  JSR  $871D
 86CB  38        SEC  
 86CC  A5 00     LDA  $00
 86CE  E9 02     SBC  #$02
 86D0  85 24     STA  $24
 86D2  A5 01     LDA  $01
 86D4  E9 00     SBC  #$00
 86D6  85 25     STA  $25
 86D8  A9 D8     LDA  #$D8
 86DA  92 24     STA  ($24)
 86DC  A0 01     LDY  #$01
 86DE  A9 B0     LDA  #$B0
 86E0  91 24     STA  ($24), Y
 86E2  20 22 85  JSR  $8522
 86E5  20 E1 8F  JSR  $8FE1
 86E8  B5 00     LDA  $00, X
 86EA  85 24     STA  $24
 86EC  B5 01     LDA  $01, X
 86EE  85 25     STA  $25
 86F0  A0 06     LDY  #$06
 86F2  B1 24     LDA  ($24), Y
 86F4  18        CLC  
 86F5  69 02     ADC  #$02
 86F7  91 24     STA  ($24), Y
 86F9  C8        INY  
 86FA  B1 24     LDA  ($24), Y
 86FC  69 00     ADC  #$00
 86FE  91 24     STA  ($24), Y
 8700  E8        INX  
 8701  E8        INX  
 8702  60        RTS  
 8703  20 1C B2  JSR  $B21C
 8706  A1 00     LDA  ($00, X)
 8708  A8        TAY  
 8709  F6 00     INC  $00, X
 870B  D0 02     BNE  $870F
 870D  F6 01     INC  $01, X
 870F  98        TYA  
 8710  CA        DEX  
 8711  CA        DEX  
 8712  95 00     STA  $00, X
 8714  74 01     STZ  $01, X
 8716  60        RTS  
 8717  A9 0A     LDA  #$0A
 8719  20 96 8B  JSR  $8B96
 871C  60        RTS  
 871D  20 77 94  JSR  $9477
 8720  B5 00     LDA  $00, X
 8722  15 01     ORA  $01, X
 8724  D0 05     BNE  $872B
 8726  A9 05     LDA  #$05
 8728  4C 32 B2  JMP  $B232
 872B  74 01     STZ  $01, X
 872D  20 CC 9D  JSR  $9DCC
 8730  20 BB 8C  JSR  $8CBB
 8733  B5 00     LDA  $00, X
 8735  15 01     ORA  $01, X
 8737  F0 1E     BEQ  $8757
 8739  E8        INX  
 873A  E8        INX  
 873B  24 20     BIT  $20
 873D  10 08     BPL  $8747
 873F  A9 80     LDA  #$80
 8741  05 20     ORA  $20
 8743  85 20     STA  $20
 8745  80 18     BRA  $875F
 8747  A9 02     LDA  #$02
 8749  20 48 B2  JSR  $B248
 874C  20 CC 9D  JSR  $9DCC
 874F  20 17 9F  JSR  $9F17
 8752  20 94 9B  JSR  $9B94
 8755  80 08     BRA  $875F
 8757  E8        INX  
 8758  E8        INX  
 8759  A9 7F     LDA  #$7F
 875B  25 20     AND  $20
 875D  85 20     STA  $20
 875F  B5 00     LDA  $00, X
 8761  85 26     STA  $26
 8763  A5 00     LDA  $00
 8765  85 24     STA  $24
 8767  A5 01     LDA  $01
 8769  85 25     STA  $25
 876B  B5 00     LDA  $00, X
 876D  18        CLC  
 876E  69 08     ADC  #$08
 8770  85 28     STA  $28
 8772  18        CLC  
 8773  69 03     ADC  #$03
 8775  95 00     STA  $00, X
 8777  74 01     STZ  $01, X
 8779  20 AB 82  JSR  $82AB
 877C  20 5E B1  JSR  $B15E
 877F  A0 00     LDY  #$00
 8781  A5 26     LDA  $26
 8783  91 24     STA  ($24), Y
 8785  A9 08     LDA  #$08
 8787  09 20     ORA  #$20
 8789  C8        INY  
 878A  91 24     STA  ($24), Y
 878C  C8        INY  
 878D  A5 02     LDA  $02
 878F  91 24     STA  ($24), Y
 8791  C8        INY  
 8792  A5 03     LDA  $03
 8794  91 24     STA  ($24), Y
 8796  C8        INY  
 8797  A5 25     LDA  $25
 8799  85 03     STA  $03
 879B  A5 24     LDA  $24
 879D  85 02     STA  $02
 879F  18        CLC  
 87A0  65 28     ADC  $28
 87A2  91 24     STA  ($24), Y
 87A4  48        PHA  
 87A5  C8        INY  
 87A6  A5 25     LDA  $25
 87A8  69 00     ADC  #$00
 87AA  91 24     STA  ($24), Y
 87AC  C8        INY  
 87AD  68        PLA  
 87AE  18        CLC  
 87AF  69 03     ADC  #$03
 87B1  91 24     STA  ($24), Y
 87B3  88        DEY  
 87B4  B1 24     LDA  ($24), Y
 87B6  69 00     ADC  #$00
 87B8  C8        INY  
 87B9  C8        INY  
 87BA  91 24     STA  ($24), Y
 87BC  C8        INY  
 87BD  B5 00     LDA  $00, X
 87BF  38        SEC  
 87C0  E9 08     SBC  #$08
 87C2  85 2C     STA  $2C
 87C4  B5 01     LDA  $01, X
 87C6  E9 00     SBC  #$00
 87C8  85 2D     STA  $2D
 87CA  B1 2C     LDA  ($2C), Y
 87CC  C9 5B     CMP  #$5B
 87CE  B0 07     BCS  $87D7
 87D0  C9 41     CMP  #$41
 87D2  90 03     BCC  $87D7
 87D4  18        CLC  
 87D5  69 20     ADC  #$20
 87D7  91 24     STA  ($24), Y
 87D9  C8        INY  
 87DA  C6 26     DEC  $26
 87DC  D0 EC     BNE  $87CA
 87DE  A9 20     LDA  #$20
 87E0  91 24     STA  ($24), Y
 87E2  C8        INY  
 87E3  A9 1E     LDA  #$1E
 87E5  91 24     STA  ($24), Y
 87E7  C8        INY  
 87E8  A9 B1     LDA  #$B1
 87EA  91 24     STA  ($24), Y
 87EC  20 71 B1  JSR  $B171
 87EF  E8        INX  
 87F0  E8        INX  
 87F1  60        RTS  
 87F2  20 2B B2  JSR  $B22B
 87F5  38        SEC  
 87F6  B5 06     LDA  $06, X
 87F8  F5 02     SBC  $02, X
 87FA  95 06     STA  $06, X
 87FC  B5 07     LDA  $07, X
 87FE  F5 03     SBC  $03, X
 8800  95 07     STA  $07, X
 8802  B5 04     LDA  $04, X
 8804  F5 00     SBC  $00, X
 8806  95 04     STA  $04, X
 8808  B5 05     LDA  $05, X
 880A  F5 01     SBC  $01, X
 880C  95 05     STA  $05, X
 880E  E8        INX  
 880F  E8        INX  
 8810  E8        INX  
 8811  E8        INX  
 8812  60        RTS  
 8813  20 2B B2  JSR  $B22B
 8816  18        CLC  
 8817  B5 02     LDA  $02, X
 8819  75 06     ADC  $06, X
 881B  95 06     STA  $06, X
 881D  B5 03     LDA  $03, X
 881F  75 07     ADC  $07, X
 8821  95 07     STA  $07, X
 8823  B5 00     LDA  $00, X
 8825  75 04     ADC  $04, X
 8827  95 04     STA  $04, X
 8829  B5 01     LDA  $01, X
 882B  75 05     ADC  $05, X
 882D  95 05     STA  $05, X
 882F  E8        INX  
 8830  E8        INX  
 8831  E8        INX  
 8832  E8        INX  
 8833  60        RTS  
 8834  20 21 B2  JSR  $B221
 8837  E8        INX  
 8838  E8        INX  
 8839  60        RTS  
 883A  20 21 B2  JSR  $B221
 883D  B5 01     LDA  $01, X
 883F  10 17     BPL  $8858
 8841  A0 00     LDY  #$00
 8843  38        SEC  
 8844  98        TYA  
 8845  F5 02     SBC  $02, X
 8847  95 02     STA  $02, X
 8849  98        TYA  
 884A  F5 03     SBC  $03, X
 884C  95 03     STA  $03, X
 884E  98        TYA  
 884F  F5 00     SBC  $00, X
 8851  95 00     STA  $00, X
 8853  98        TYA  
 8854  F5 01     SBC  $01, X
 8856  95 01     STA  $01, X
 8858  60        RTS  
 8859  A9 0A     LDA  #$0A
 885B  85 18     STA  $18
 885D  64 19     STZ  $19
 885F  60        RTS  
 8860  20 1D 87  JSR  $871D
 8863  A5 00     LDA  $00
 8865  38        SEC  
 8866  E9 02     SBC  #$02
 8868  85 24     STA  $24
 886A  A5 01     LDA  $01
 886C  E9 00     SBC  #$00
 886E  85 25     STA  $25
 8870  A0 00     LDY  #$00
 8872  A9 EC     LDA  #$EC
 8874  91 24     STA  ($24), Y
 8876  C8        INY  
 8877  A9 B0     LDA  #$B0
 8879  91 24     STA  ($24), Y
 887B  A9 00     LDA  #$00
 887D  92 00     STA  ($00)
 887F  E6 00     INC  $00
 8881  D0 02     BNE  $8885
 8883  E6 01     INC  $01
 8885  A9 B1     LDA  #$B1
 8887  92 00     STA  ($00)
 8889  E6 00     INC  $00
 888B  D0 02     BNE  $888F
 888D  E6 01     INC  $01
 888F  20 E5 86  JSR  $86E5
 8892  60        RTS  
 8893  20 B4 9C  JSR  $9CB4
 8896  20 60 8C  JSR  $8C60
 8899  60        RTS  
 889A  20 B4 9C  JSR  $9CB4
 889D  20 F9 9B  JSR  $9BF9
 88A0  60        RTS  
 88A1  A9 78     LDA  #$78
 88A3  86 2A     STX  $2A
 88A5  38        SEC  
 88A6  E5 2A     SBC  $2A
 88A8  4A        LSR  
 88A9  CA        DEX  
 88AA  CA        DEX  
 88AB  95 00     STA  $00, X
 88AD  74 01     STZ  $01, X
 88AF  60        RTS  
 88B0  20 1C B2  JSR  $B21C
 88B3  CA        DEX  
 88B4  CA        DEX  
 88B5  74 00     STZ  $00, X
 88B7  74 01     STZ  $01, X
 88B9  74 03     STZ  $03, X
 88BB  B5 02     LDA  $02, X
 88BD  C9 30     CMP  #$30
 88BF  90 23     BCC  $88E4
 88C1  C9 3A     CMP  #$3A
 88C3  90 12     BCC  $88D7
 88C5  C9 41     CMP  #$41
 88C7  90 1B     BCC  $88E4
 88C9  C9 61     CMP  #$61
 88CB  90 07     BCC  $88D4
 88CD  C9 7B     CMP  #$7B
 88CF  B0 03     BCS  $88D4
 88D1  18        CLC  
 88D2  69 E0     ADC  #$E0
 88D4  38        SEC  
 88D5  E9 07     SBC  #$07
 88D7  38        SEC  
 88D8  E9 30     SBC  #$30
 88DA  C5 18     CMP  $18
 88DC  B0 06     BCS  $88E4
 88DE  95 02     STA  $02, X
 88E0  D6 00     DEC  $00, X
 88E2  D6 01     DEC  $01, X
 88E4  60        RTS  
 88E5  20 21 B2  JSR  $B221
 88E8  A0 00     LDY  #$00
 88EA  38        SEC  
 88EB  98        TYA  
 88EC  F5 02     SBC  $02, X
 88EE  95 02     STA  $02, X
 88F0  98        TYA  
 88F1  F5 03     SBC  $03, X
 88F3  95 03     STA  $03, X
 88F5  98        TYA  
 88F6  F5 00     SBC  $00, X
 88F8  95 00     STA  $00, X
 88FA  98        TYA  
 88FB  F5 01     SBC  $01, X
 88FD  95 01     STA  $01, X
 88FF  60        RTS  
 8900  A9 FF     LDA  #$FF
 8902  85 24     STA  $24
 8904  80 02     BRA  $8908
 8906  64 24     STZ  $24
 8908  CA        DEX  
 8909  CA        DEX  
 890A  A5 00     LDA  $00
 890C  95 00     STA  $00, X
 890E  A5 01     LDA  $01
 8910  95 01     STA  $01, X
 8912  A9 05     LDA  #$05
 8914  A8        TAY  
 8915  91 00     STA  ($00), Y
 8917  88        DEY  
 8918  10 FB     BPL  $8915
 891A  1A        INC  
 891B  18        CLC  
 891C  65 00     ADC  $00
 891E  85 00     STA  $00
 8920  90 02     BCC  $8924
 8922  E6 01     INC  $01
 8924  A5 24     LDA  $24
 8926  F0 17     BEQ  $893F
 8928  A0 14     LDY  #$14
 892A  5A        PHY  
 892B  B9 85 89  LDA  $8985, Y
 892E  91 00     STA  ($00), Y
 8930  88        DEY  
 8931  10 F8     BPL  $892B
 8933  68        PLA  
 8934  18        CLC  
 8935  65 00     ADC  $00
 8937  85 00     STA  $00
 8939  A5 01     LDA  $01
 893B  69 00     ADC  #$00
 893D  85 01     STA  $01
 893F  A0 24     LDY  #$24
 8941  5A        PHY  
 8942  B9 61 89  LDA  $8961, Y
 8945  91 00     STA  ($00), Y
 8947  88        DEY  
 8948  10 F8     BPL  $8942
 894A  68        PLA  
 894B  18        CLC  
 894C  65 00     ADC  $00
 894E  85 00     STA  $00
 8950  A5 01     LDA  $01
 8952  69 00     ADC  #$00
 8954  85 01     STA  $01
 8956  CA        DEX  
 8957  CA        DEX  
 8958  A5 00     LDA  $00
 895A  95 00     STA  $00, X
 895C  A5 01     LDA  $01
 895E  95 01     STA  $01, X
 8960  60        RTS  
 8961  38        SEC  
 8962  A9 00     LDA  #$00
 8964  F5 02     SBC  $02, X
 8966  95 02     STA  $02, X
 8968  A9 80     LDA  #$80
 896A  F5 03     SBC  $03, X
 896C  95 03     STA  $03, X
 896E  48        PHA  
 896F  B5 02     LDA  $02, X
 8971  48        PHA  
 8972  18        CLC  
 8973  B5 00     LDA  $00, X
 8975  75 02     ADC  $02, X
 8977  95 00     STA  $00, X
 8979  B5 01     LDA  $01, X
 897B  75 03     ADC  $03, X
 897D  48        PHA  
 897E  B5 00     LDA  $00, X
 8980  48        PHA  
 8981  E8        INX  
 8982  E8        INX  
 8983  E8        INX  
 8984  E8        INX  
 8985  20 CC 9D  JSR  $9DCC
 8988  20 AE 8B  JSR  $8BAE
 898B  B5 00     LDA  $00, X
 898D  15 01     ORA  $01, X
 898F  F0 06     BEQ  $8997
 8991  8A        TXA  
 8992  18        CLC  
 8993  69 06     ADC  #$06
 8995  AA        TAX  
 8996  60        RTS  
 8997  E8        INX  
 8998  E8        INX  
 8999  A0 89     LDY  #$89
 899B  A9 A8     LDA  #$A8
 899D  20 BF B0  JSR  $B0BF
 89A0  A0 B1     LDY  #$B1
 89A2  A9 05     LDA  #$05
 89A4  20 BF B0  JSR  $B0BF
 89A7  60        RTS  
 89A8  7A        PLY  
 89A9  68        PLA  
 89AA  C8        INY  
 89AB  D0 01     BNE  $89AE
 89AD  1A        INC  
 89AE  84 24     STY  $24
 89B0  85 25     STA  $25
 89B2  20 5E B1  JSR  $B15E
 89B5  A5 02     LDA  $02
 89B7  18        CLC  
 89B8  69 04     ADC  #$04
 89BA  85 26     STA  $26
 89BC  A5 03     LDA  $03
 89BE  69 00     ADC  #$00
 89C0  85 27     STA  $27
 89C2  B2 26     LDA  ($26)
 89C4  18        CLC  
 89C5  69 01     ADC  #$01
 89C7  85 28     STA  $28
 89C9  A0 01     LDY  #$01
 89CB  B1 26     LDA  ($26), Y
 89CD  69 00     ADC  #$00
 89CF  85 29     STA  $29
 89D1  A5 24     LDA  $24
 89D3  92 28     STA  ($28)
 89D5  A5 25     LDA  $25
 89D7  91 28     STA  ($28), Y
 89D9  60        RTS  
 89DA  20 1C B2  JSR  $B21C
 89DD  20 53 8B  JSR  $8B53
 89E0  20 39 81  JSR  $8139
 89E3  20 B2 A1  JSR  $A1B2
 89E6  20 00 90  JSR  $9000
 89E9  20 C5 93  JSR  $93C5
 89EC  20 D9 96  JSR  $96D9
 89EF  20 5D 9A  JSR  $9A5D
 89F2  20 A3 93  JSR  $93A3
 89F5  20 17 9F  JSR  $9F17
 89F8  20 94 9B  JSR  $9B94
 89FB  60        RTS  
 89FC  CA        DEX  
 89FD  CA        DEX  
 89FE  A9 29     LDA  #$29
 8A00  95 00     STA  $00, X
 8A02  74 01     STZ  $01, X
 8A04  20 D2 94  JSR  $94D2
 8A07  20 17 9F  JSR  $9F17
 8A0A  60        RTS  
 8A0B  20 F0 97  JSR  $97F0
 8A0E  A0 9F     LDY  #$9F
 8A10  A9 17     LDA  #$17
 8A12  20 BF B0  JSR  $B0BF
 8A15  60        RTS  
 8A16  20 21 B2  JSR  $B221
 8A19  20 84 9D  JSR  $9D84
 8A1C  20 53 8B  JSR  $8B53
 8A1F  20 39 81  JSR  $8139
 8A22  20 B2 A1  JSR  $A1B2
 8A25  20 00 90  JSR  $9000
 8A28  20 C5 93  JSR  $93C5
 8A2B  20 D9 96  JSR  $96D9
 8A2E  20 5D 9A  JSR  $9A5D
 8A31  20 A3 93  JSR  $93A3
 8A34  20 1D 96  JSR  $961D
 8A37  20 2B 94  JSR  $942B
 8A3A  20 A5 91  JSR  $91A5
 8A3D  20 9A 9B  JSR  $9B9A
 8A40  20 17 9F  JSR  $9F17
 8A43  60        RTS  
 8A44  20 A1 88  JSR  $88A1
 8A47  A9 3C     LDA  #$3C
 8A49  20 96 8B  JSR  $8B96
 8A4C  B5 00     LDA  $00, X
 8A4E  48        PHA  
 8A4F  CA        DEX  
 8A50  CA        DEX  
 8A51  95 00     STA  $00, X
 8A53  74 01     STZ  $01, X
 8A55  20 68 B2  JSR  $B268
 8A58  A9 3E     LDA  #$3E
 8A5A  20 96 8B  JSR  $8B96
 8A5D  A9 20     LDA  #$20
 8A5F  20 96 8B  JSR  $8B96
 8A62  E8        INX  
 8A63  E8        INX  
 8A64  E0 78     CPX  #$78
 8A66  F0 1E     BEQ  $8A86
 8A68  7A        PLY  
 8A69  A9 77     LDA  #$77
 8A6B  85 28     STA  $28
 8A6D  64 29     STZ  $29
 8A6F  CA        DEX  
 8A70  CA        DEX  
 8A71  B2 28     LDA  ($28)
 8A73  95 01     STA  $01, X
 8A75  C6 28     DEC  $28
 8A77  B2 28     LDA  ($28)
 8A79  95 00     STA  $00, X
 8A7B  C6 28     DEC  $28
 8A7D  5A        PHY  
 8A7E  20 DA 89  JSR  $89DA
 8A81  7A        PLY  
 8A82  88        DEY  
 8A83  D0 EA     BNE  $8A6F
 8A85  48        PHA  
 8A86  68        PLA  
 8A87  60        RTS  
 8A88  20 21 B2  JSR  $B221
 8A8B  20 A1 9D  JSR  $9DA1
 8A8E  20 3A 88  JSR  $883A
 8A91  20 00 90  JSR  $9000
 8A94  20 C5 93  JSR  $93C5
 8A97  20 D9 96  JSR  $96D9
 8A9A  20 5D 9A  JSR  $9A5D
 8A9D  20 A3 93  JSR  $93A3
 8AA0  20 17 9F  JSR  $9F17
 8AA3  20 94 9B  JSR  $9B94
 8AA6  60        RTS  
 8AA7  20 26 B2  JSR  $B226
 8AAA  20 84 9D  JSR  $9D84
 8AAD  20 A1 9D  JSR  $9DA1
 8AB0  20 3A 88  JSR  $883A
 8AB3  20 00 90  JSR  $9000
 8AB6  20 C5 93  JSR  $93C5
 8AB9  20 D9 96  JSR  $96D9
 8ABC  20 5D 9A  JSR  $9A5D
 8ABF  20 A3 93  JSR  $93A3
 8AC2  20 1D 96  JSR  $961D
 8AC5  20 2B 94  JSR  $942B
 8AC8  20 A5 91  JSR  $91A5
 8ACB  20 9A 9B  JSR  $9B9A
 8ACE  20 17 9F  JSR  $9F17
 8AD1  60        RTS  
 8AD2  20 1C B2  JSR  $B21C
 8AD5  E8        INX  
 8AD6  E8        INX  
 8AD7  60        RTS  
 8AD8  20 21 B2  JSR  $B221
 8ADB  A0 10     LDY  #$10
 8ADD  64 26     STZ  $26
 8ADF  20 17 87  JSR  $8717
 8AE2  B5 03     LDA  $03, X
 8AE4  20 2C B1  JSR  $B12C
 8AE7  B5 02     LDA  $02, X
 8AE9  20 2C B1  JSR  $B12C
 8AEC  20 94 9B  JSR  $9B94
 8AEF  20 94 9B  JSR  $9B94
 8AF2  B5 00     LDA  $00, X
 8AF4  15 01     ORA  $01, X
 8AF6  F0 39     BEQ  $8B31
 8AF8  A1 02     LDA  ($02, X)
 8AFA  48        PHA  
 8AFB  20 2C B1  JSR  $B12C
 8AFE  20 94 9B  JSR  $9B94
 8B01  68        PLA  
 8B02  20 02 B2  JSR  $B202
 8B05  B0 02     BCS  $8B09
 8B07  A9 2E     LDA  #$2E
 8B09  5A        PHY  
 8B0A  A4 26     LDY  $26
 8B0C  91 00     STA  ($00), Y
 8B0E  E6 26     INC  $26
 8B10  7A        PLY  
 8B11  C0 09     CPY  #$09
 8B13  D0 03     BNE  $8B18
 8B15  20 94 9B  JSR  $9B94
 8B18  F6 02     INC  $02, X
 8B1A  D0 02     BNE  $8B1E
 8B1C  F6 03     INC  $03, X
 8B1E  B5 00     LDA  $00, X
 8B20  D0 02     BNE  $8B24
 8B22  D6 01     DEC  $01, X
 8B24  D6 00     DEC  $00, X
 8B26  88        DEY  
 8B27  D0 C9     BNE  $8AF2
 8B29  20 94 9B  JSR  $9B94
 8B2C  20 3F 8B  JSR  $8B3F
 8B2F  80 AA     BRA  $8ADB
 8B31  A5 26     LDA  $26
 8B33  F0 06     BEQ  $8B3B
 8B35  20 94 9B  JSR  $9B94
 8B38  20 3F 8B  JSR  $8B3F
 8B3B  20 C4 9D  JSR  $9DC4
 8B3E  60        RTS  
 8B3F  A0 00     LDY  #$00
 8B41  B1 00     LDA  ($00), Y
 8B43  20 96 8B  JSR  $8B96
 8B46  C8        INY  
 8B47  C0 08     CPY  #$08
 8B49  D0 03     BNE  $8B4E
 8B4B  20 94 9B  JSR  $9B94
 8B4E  C6 26     DEC  $26
 8B50  D0 EF     BNE  $8B41
 8B52  60        RTS  
 8B53  20 1C B2  JSR  $B21C
 8B56  CA        DEX  
 8B57  CA        DEX  
 8B58  B5 02     LDA  $02, X
 8B5A  95 00     STA  $00, X
 8B5C  B5 03     LDA  $03, X
 8B5E  95 01     STA  $01, X
 8B60  60        RTS  
 8B61  A0 8B     LDY  #$8B
 8B63  A9 7B     LDA  #$7B
 8B65  20 BF B0  JSR  $B0BF
 8B68  20 18 8E  JSR  $8E18
 8B6B  20 B2 A1  JSR  $A1B2
 8B6E  20 22 85  JSR  $8522
 8B71  20 18 8E  JSR  $8E18
 8B74  20 D9 96  JSR  $96D9
 8B77  20 F9 9B  JSR  $9BF9
 8B7A  60        RTS  
 8B7B  68        PLA  
 8B7C  85 22     STA  $22
 8B7E  68        PLA  
 8B7F  85 23     STA  $23
 8B81  A0 01     LDY  #$01
 8B83  B1 22     LDA  ($22), Y
 8B85  85 24     STA  $24
 8B87  C8        INY  
 8B88  B1 22     LDA  ($22), Y
 8B8A  85 25     STA  $25
 8B8C  6C 24 00  JMP  ($0024)
 8B8F  20 1C B2  JSR  $B21C
 8B92  B5 00     LDA  $00, X
 8B94  E8        INX  
 8B95  E8        INX  
 8B96  6C 10 00  JMP  ($0010)
 8B99  A0 8A     LDY  #$8A
 8B9B  A9 D2     LDA  #$D2
 8B9D  20 BF B0  JSR  $B0BF
 8BA0  B5 00     LDA  $00, X
 8BA2  15 01     ORA  $01, X
 8BA4  F0 05     BEQ  $8BAB
 8BA6  20 2E 9C  JSR  $9C2E
 8BA9  80 F5     BRA  $8BA0
 8BAB  E8        INX  
 8BAC  E8        INX  
 8BAD  60        RTS  
 8BAE  20 21 B2  JSR  $B221
 8BB1  B5 00     LDA  $00, X
 8BB3  D5 02     CMP  $02, X
 8BB5  D0 0A     BNE  $8BC1
 8BB7  B5 01     LDA  $01, X
 8BB9  D5 03     CMP  $03, X
 8BBB  D0 04     BNE  $8BC1
 8BBD  A9 FF     LDA  #$FF
 8BBF  80 02     BRA  $8BC3
 8BC1  A9 00     LDA  #$00
 8BC3  95 02     STA  $02, X
 8BC5  95 03     STA  $03, X
 8BC7  E8        INX  
 8BC8  E8        INX  
 8BC9  60        RTS  
 8BCA  CA        DEX  
 8BCB  CA        DEX  
 8BCC  A9 20     LDA  #$20
 8BCE  95 00     STA  $00, X
 8BD0  74 01     STZ  $01, X
 8BD2  80 06     BRA  $8BDA
 8BD4  CA        DEX  
 8BD5  CA        DEX  
 8BD6  74 00     STZ  $00, X
 8BD8  74 01     STZ  $01, X
 8BDA  20 26 B2  JSR  $B226
 8BDD  B5 04     LDA  $04, X
 8BDF  85 24     STA  $24
 8BE1  B5 05     LDA  $05, X
 8BE3  85 25     STA  $25
 8BE5  B5 02     LDA  $02, X
 8BE7  85 26     STA  $26
 8BE9  B5 03     LDA  $03, X
 8BEB  85 27     STA  $27
 8BED  B5 00     LDA  $00, X
 8BEF  A8        TAY  
 8BF0  A9 7F     LDA  #$7F
 8BF2  C5 25     CMP  $25
 8BF4  90 21     BCC  $8C17
 8BF6  D0 06     BNE  $8BFE
 8BF8  A9 FF     LDA  #$FF
 8BFA  C5 24     CMP  $24
 8BFC  90 19     BCC  $8C17
 8BFE  A5 26     LDA  $26
 8C00  05 27     ORA  $27
 8C02  F0 13     BEQ  $8C17
 8C04  98        TYA  
 8C05  92 24     STA  ($24)
 8C07  A5 26     LDA  $26
 8C09  D0 02     BNE  $8C0D
 8C0B  C6 27     DEC  $27
 8C0D  C6 26     DEC  $26
 8C0F  E6 24     INC  $24
 8C11  D0 DD     BNE  $8BF0
 8C13  E6 25     INC  $25
 8C15  80 D9     BRA  $8BF0
 8C17  8A        TXA  
 8C18  18        CLC  
 8C19  69 06     ADC  #$06
 8C1B  AA        TAX  
 8C1C  60        RTS  
 8C1D  20 1C B2  JSR  $B21C
 8C20  20 24 8C  JSR  $8C24
 8C23  60        RTS  
 8C24  B5 00     LDA  $00, X
 8C26  85 0E     STA  $0E
 8C28  B5 01     LDA  $01, X
 8C2A  85 0F     STA  $0F
 8C2C  E8        INX  
 8C2D  E8        INX  
 8C2E  6C 0E 00  JMP  ($000E)
 8C31  20 26 B2  JSR  $B226
 8C34  20 08 8F  JSR  $8F08
 8C37  20 C3 92  JSR  $92C3
 8C3A  B5 00     LDA  $00, X
 8C3C  85 0A     STA  $0A
 8C3E  B5 01     LDA  $01, X
 8C40  85 0B     STA  $0B
 8C42  B5 02     LDA  $02, X
 8C44  85 08     STA  $08
 8C46  B5 03     LDA  $03, X
 8C48  85 09     STA  $09
 8C4A  64 0C     STZ  $0C
 8C4C  64 0D     STZ  $0D
 8C4E  20 C4 9D  JSR  $9DC4
 8C51  20 1D 8C  JSR  $8C1D
 8C54  20 2E 96  JSR  $962E
 8C57  60        RTS  
 8C58  60        RTS  
 8C59  CA        DEX  
 8C5A  CA        DEX  
 8C5B  74 00     STZ  $00, X
 8C5D  74 01     STZ  $01, X
 8C5F  60        RTS  
 8C60  20 1C B2  JSR  $B21C
 8C63  A1 00     LDA  ($00, X)
 8C65  A8        TAY  
 8C66  F6 00     INC  $00, X
 8C68  D0 02     BNE  $8C6C
 8C6A  F6 01     INC  $01, X
 8C6C  A1 00     LDA  ($00, X)
 8C6E  95 01     STA  $01, X
 8C70  94 00     STY  $00, X
 8C72  60        RTS  
 8C73  20 1C B2  JSR  $B21C
 8C76  B5 01     LDA  $01, X
 8C78  48        PHA  
 8C79  B5 00     LDA  $00, X
 8C7B  48        PHA  
 8C7C  20 03 87  JSR  $8703
 8C7F  20 BB 8C  JSR  $8CBB
 8C82  B5 00     LDA  $00, X
 8C84  15 01     ORA  $01, X
 8C86  D0 0B     BNE  $8C93
 8C88  20 59 8C  JSR  $8C59
 8C8B  68        PLA  
 8C8C  95 02     STA  $02, X
 8C8E  68        PLA  
 8C8F  95 03     STA  $03, X
 8C91  80 27     BRA  $8CBA
 8C93  68        PLA  
 8C94  68        PLA  
 8C95  20 53 8B  JSR  $8B53
 8C98  20 36 92  JSR  $9236
 8C9B  20 1A 9C  JSR  $9C1A
 8C9E  A0 00     LDY  #$00
 8CA0  F6 00     INC  $00, X
 8CA2  D0 02     BNE  $8CA6
 8CA4  F6 01     INC  $01, X
 8CA6  A1 00     LDA  ($00, X)
 8CA8  29 04     AND  #$04
 8CAA  D0 08     BNE  $8CB4
 8CAC  A9 FF     LDA  #$FF
 8CAE  95 00     STA  $00, X
 8CB0  95 01     STA  $01, X
 8CB2  80 06     BRA  $8CBA
 8CB4  A9 01     LDA  #$01
 8CB6  95 00     STA  $00, X
 8CB8  74 01     STZ  $01, X
 8CBA  60        RTS  
 8CBB  20 21 B2  JSR  $B221
 8CBE  B5 00     LDA  $00, X
 8CC0  15 01     ORA  $01, X
 8CC2  D0 03     BNE  $8CC7
 8CC4  4C 60 8D  JMP  $8D60
 8CC7  64 28     STZ  $28
 8CC9  A0 1E     LDY  #$1E
 8CCB  A5 28     LDA  $28
 8CCD  D1 1E     CMP  ($1E), Y
 8CCF  D0 03     BNE  $8CD4
 8CD1  4C 60 8D  JMP  $8D60
 8CD4  18        CLC  
 8CD5  69 1F     ADC  #$1F
 8CD7  A8        TAY  
 8CD8  B1 1E     LDA  ($1E), Y
 8CDA  0A        ASL  
 8CDB  18        CLC  
 8CDC  69 06     ADC  #$06
 8CDE  A8        TAY  
 8CDF  B1 1E     LDA  ($1E), Y
 8CE1  85 24     STA  $24
 8CE3  C8        INY  
 8CE4  B1 1E     LDA  ($1E), Y
 8CE6  85 25     STA  $25
 8CE8  B5 02     LDA  $02, X
 8CEA  85 26     STA  $26
 8CEC  B5 03     LDA  $03, X
 8CEE  85 27     STA  $27
 8CF0  B2 24     LDA  ($24)
 8CF2  D5 00     CMP  $00, X
 8CF4  D0 54     BNE  $8D4A
 8CF6  B2 26     LDA  ($26)
 8CF8  C9 5B     CMP  #$5B
 8CFA  B0 07     BCS  $8D03
 8CFC  C9 41     CMP  #$41
 8CFE  90 03     BCC  $8D03
 8D00  18        CLC  
 8D01  69 20     ADC  #$20
 8D03  A0 08     LDY  #$08
 8D05  D1 24     CMP  ($24), Y
 8D07  D0 41     BNE  $8D4A
 8D09  B5 00     LDA  $00, X
 8D0B  3A        DEC  
 8D0C  F0 2C     BEQ  $8D3A
 8D0E  A5 24     LDA  $24
 8D10  48        PHA  
 8D11  18        CLC  
 8D12  69 08     ADC  #$08
 8D14  85 24     STA  $24
 8D16  A5 25     LDA  $25
 8D18  48        PHA  
 8D19  69 00     ADC  #$00
 8D1B  85 25     STA  $25
 8D1D  B4 00     LDY  $00, X
 8D1F  88        DEY  
 8D20  B1 26     LDA  ($26), Y
 8D22  C9 5B     CMP  #$5B
 8D24  B0 07     BCS  $8D2D
 8D26  C9 41     CMP  #$41
 8D28  90 03     BCC  $8D2D
 8D2A  18        CLC  
 8D2B  69 20     ADC  #$20
 8D2D  D1 24     CMP  ($24), Y
 8D2F  D0 13     BNE  $8D44
 8D31  88        DEY  
 8D32  D0 EC     BNE  $8D20
 8D34  68        PLA  
 8D35  85 25     STA  $25
 8D37  68        PLA  
 8D38  85 24     STA  $24
 8D3A  A5 24     LDA  $24
 8D3C  95 02     STA  $02, X
 8D3E  A5 25     LDA  $25
 8D40  95 03     STA  $03, X
 8D42  80 20     BRA  $8D64
 8D44  68        PLA  
 8D45  85 25     STA  $25
 8D47  68        PLA  
 8D48  85 24     STA  $24
 8D4A  A0 02     LDY  #$02
 8D4C  B1 24     LDA  ($24), Y
 8D4E  48        PHA  
 8D4F  C8        INY  
 8D50  B1 24     LDA  ($24), Y
 8D52  85 25     STA  $25
 8D54  68        PLA  
 8D55  85 24     STA  $24
 8D57  05 25     ORA  $25
 8D59  D0 95     BNE  $8CF0
 8D5B  E6 28     INC  $28
 8D5D  4C C9 8C  JMP  $8CC9
 8D60  74 02     STZ  $02, X
 8D62  74 03     STZ  $03, X
 8D64  E8        INX  
 8D65  E8        INX  
 8D66  60        RTS  
 8D67  20 26 B2  JSR  $B226
 8D6A  64 26     STZ  $26
 8D6C  B5 01     LDA  $01, X
 8D6E  10 0E     BPL  $8D7E
 8D70  E6 26     INC  $26
 8D72  20 78 92  JSR  $9278
 8D75  20 84 9D  JSR  $9D84
 8D78  20 E5 88  JSR  $88E5
 8D7B  20 1D 96  JSR  $961D
 8D7E  B5 03     LDA  $03, X
 8D80  10 0D     BPL  $8D8F
 8D82  18        CLC  
 8D83  B5 00     LDA  $00, X
 8D85  75 02     ADC  $02, X
 8D87  95 02     STA  $02, X
 8D89  B5 01     LDA  $01, X
 8D8B  75 03     ADC  $03, X
 8D8D  95 03     STA  $03, X
 8D8F  20 CE 9F  JSR  $9FCE
 8D92  A5 26     LDA  $26
 8D94  F0 07     BEQ  $8D9D
 8D96  E8        INX  
 8D97  E8        INX  
 8D98  20 78 92  JSR  $9278
 8D9B  CA        DEX  
 8D9C  CA        DEX  
 8D9D  60        RTS  
 8D9E  A9 FF     LDA  #$FF
 8DA0  85 24     STA  $24
 8DA2  80 11     BRA  $8DB5
 8DA4  20 21 B2  JSR  $B221
 8DA7  64 24     STZ  $24
 8DA9  B5 00     LDA  $00, X
 8DAB  15 01     ORA  $01, X
 8DAD  D0 06     BNE  $8DB5
 8DAF  E8        INX  
 8DB0  E8        INX  
 8DB1  E8        INX  
 8DB2  E8        INX  
 8DB3  80 42     BRA  $8DF7
 8DB5  A0 01     LDY  #$01
 8DB7  B1 1E     LDA  ($1E), Y
 8DB9  48        PHA  
 8DBA  88        DEY  
 8DBB  B1 1E     LDA  ($1E), Y
 8DBD  48        PHA  
 8DBE  A5 24     LDA  $24
 8DC0  D0 05     BNE  $8DC7
 8DC2  91 1E     STA  ($1E), Y
 8DC4  C8        INY  
 8DC5  91 1E     STA  ($1E), Y
 8DC7  20 08 8F  JSR  $8F08
 8DCA  A9 FF     LDA  #$FF
 8DCC  85 06     STA  $06
 8DCE  85 07     STA  $07
 8DD0  64 0C     STZ  $0C
 8DD2  64 0D     STZ  $0D
 8DD4  B5 00     LDA  $00, X
 8DD6  85 0A     STA  $0A
 8DD8  B5 01     LDA  $01, X
 8DDA  85 0B     STA  $0B
 8DDC  B5 02     LDA  $02, X
 8DDE  85 08     STA  $08
 8DE0  B5 03     LDA  $03, X
 8DE2  85 09     STA  $09
 8DE4  E8        INX  
 8DE5  E8        INX  
 8DE6  E8        INX  
 8DE7  E8        INX  
 8DE8  20 84 B1  JSR  $B184
 8DEB  20 2E 96  JSR  $962E
 8DEE  A0 00     LDY  #$00
 8DF0  68        PLA  
 8DF1  91 1E     STA  ($1E), Y
 8DF3  C8        INY  
 8DF4  68        PLA  
 8DF5  91 1E     STA  ($1E), Y
 8DF7  60        RTS  
 8DF8  CA        DEX  
 8DF9  CA        DEX  
 8DFA  A0 04     LDY  #$04
 8DFC  B1 1E     LDA  ($1E), Y
 8DFE  95 00     STA  $00, X
 8E00  74 01     STZ  $01, X
 8E02  60        RTS  
 8E03  20 21 B2  JSR  $B221
 8E06  A0 00     LDY  #$00
 8E08  20 43 B1  JSR  $B143
 8E0B  F0 03     BEQ  $8E10
 8E0D  10 01     BPL  $8E10
 8E0F  88        DEY  
 8E10  98        TYA  
 8E11  E8        INX  
 8E12  E8        INX  
 8E13  95 00     STA  $00, X
 8E15  95 01     STA  $01, X
 8E17  60        RTS  
 8E18  CA        DEX  
 8E19  CA        DEX  
 8E1A  A5 00     LDA  $00
 8E1C  95 00     STA  $00, X
 8E1E  A5 01     LDA  $01
 8E20  95 01     STA  $01, X
 8E22  60        RTS  
 8E23  A9 10     LDA  #$10
 8E25  85 18     STA  $18
 8E27  64 19     STZ  $19
 8E29  60        RTS  
 8E2A  20 26 B2  JSR  $B226
 8E2D  20 53 8B  JSR  $8B53
 8E30  20 B6 9E  JSR  $9EB6
 8E33  B5 00     LDA  $00, X
 8E35  15 01     ORA  $01, X
 8E37  F0 36     BEQ  $8E6F
 8E39  20 00 84  JSR  $8400
 8E3C  20 B6 9E  JSR  $9EB6
 8E3F  20 B2 A1  JSR  $A1B2
 8E42  20 B2 A1  JSR  $A1B2
 8E45  20 3C 9E  JSR  $9E3C
 8E48  20 E4 9C  JSR  $9CE4
 8E4B  B5 00     LDA  $00, X
 8E4D  15 01     ORA  $01, X
 8E4F  D0 17     BNE  $8E68
 8E51  20 C4 9D  JSR  $9DC4
 8E54  20 34 88  JSR  $8834
 8E57  20 08 96  JSR  $9608
 8E5A  20 C9 83  JSR  $83C9
 8E5D  20 1D 96  JSR  $961D
 8E60  20 04 94  JSR  $9404
 8E63  20 84 9D  JSR  $9D84
 8E66  80 CB     BRA  $8E33
 8E68  8A        TXA  
 8E69  18        CLC  
 8E6A  69 08     ADC  #$08
 8E6C  AA        TAX  
 8E6D  80 C4     BRA  $8E33
 8E6F  E8        INX  
 8E70  E8        INX  
 8E71  E8        INX  
 8E72  E8        INX  
 8E73  20 3C 9E  JSR  $9E3C
 8E76  20 1A 9C  JSR  $9C1A
 8E79  20 A5 91  JSR  $91A5
 8E7C  60        RTS  
 8E7D  20 1C B2  JSR  $B21C
 8E80  A5 34     LDA  $34
 8E82  D0 02     BNE  $8E86
 8E84  C6 35     DEC  $35
 8E86  C6 34     DEC  $34
 8E88  B5 00     LDA  $00, X
 8E8A  92 34     STA  ($34)
 8E8C  E8        INX  
 8E8D  E8        INX  
 8E8E  60        RTS  
 8E8F  CA        DEX  
 8E90  CA        DEX  
 8E91  86 2A     STX  $2A
 8E93  BA        TSX  
 8E94  38        SEC  
 8E95  BD 01 01  LDA  $0101, X
 8E98  FD 03 01  SBC  $0103, X
 8E9B  A8        TAY  
 8E9C  BD 02 01  LDA  $0102, X
 8E9F  FD 04 01  SBC  $0104, X
 8EA2  A6 2A     LDX  $2A
 8EA4  95 01     STA  $01, X
 8EA6  94 00     STY  $00, X
 8EA8  60        RTS  
 8EA9  A0 8E     LDY  #$8E
 8EAB  A9 BA     LDA  #$BA
 8EAD  20 BF B0  JSR  $B0BF
 8EB0  20 18 8E  JSR  $8E18
 8EB3  20 B2 A1  JSR  $A1B2
 8EB6  20 22 85  JSR  $8522
 8EB9  60        RTS  
 8EBA  68        PLA  
 8EBB  85 22     STA  $22
 8EBD  68        PLA  
 8EBE  85 23     STA  $23
 8EC0  B5 00     LDA  $00, X
 8EC2  15 01     ORA  $01, X
 8EC4  F0 0F     BEQ  $8ED5
 8EC6  A5 22     LDA  $22
 8EC8  18        CLC  
 8EC9  69 02     ADC  #$02
 8ECB  85 24     STA  $24
 8ECD  A5 23     LDA  $23
 8ECF  69 00     ADC  #$00
 8ED1  85 25     STA  $25
 8ED3  80 13     BRA  $8EE8
 8ED5  A0 01     LDY  #$01
 8ED7  B1 22     LDA  ($22), Y
 8ED9  85 24     STA  $24
 8EDB  C8        INY  
 8EDC  B1 22     LDA  ($22), Y
 8EDE  85 25     STA  $25
 8EE0  A5 24     LDA  $24
 8EE2  D0 02     BNE  $8EE6
 8EE4  C6 25     DEC  $25
 8EE6  C6 24     DEC  $24
 8EE8  A5 25     LDA  $25
 8EEA  48        PHA  
 8EEB  A5 24     LDA  $24
 8EED  48        PHA  
 8EEE  E8        INX  
 8EEF  E8        INX  
 8EF0  60        RTS  
 8EF1  20 5E B1  JSR  $B15E
 8EF4  A0 01     LDY  #$01
 8EF6  B1 02     LDA  ($02), Y
 8EF8  09 04     ORA  #$04
 8EFA  91 02     STA  ($02), Y
 8EFC  60        RTS  
 8EFD  CA        DEX  
 8EFE  CA        DEX  
 8EFF  A9 12     LDA  #$12
 8F01  95 00     STA  $00, X
 8F03  A9 00     LDA  #$00
 8F05  95 01     STA  $01, X
 8F07  60        RTS  
 8F08  68        PLA  
 8F09  85 24     STA  $24
 8F0B  68        PLA  
 8F0C  85 25     STA  $25
 8F0E  A0 07     LDY  #$07
 8F10  B9 06 00  LDA  $0006, Y
 8F13  48        PHA  
 8F14  88        DEY  
 8F15  10 F9     BPL  $8F10
 8F17  A5 25     LDA  $25
 8F19  48        PHA  
 8F1A  A5 24     LDA  $24
 8F1C  48        PHA  
 8F1D  60        RTS  
 8F1E  20 1C B2  JSR  $B21C
 8F21  CA        DEX  
 8F22  CA        DEX  
 8F23  74 00     STZ  $00, X
 8F25  74 01     STZ  $01, X
 8F27  B5 00     LDA  $00, X
 8F29  0A        ASL  
 8F2A  18        CLC  
 8F2B  69 06     ADC  #$06
 8F2D  A8        TAY  
 8F2E  B1 1E     LDA  ($1E), Y
 8F30  85 26     STA  $26
 8F32  C8        INY  
 8F33  B1 1E     LDA  ($1E), Y
 8F35  85 27     STA  $27
 8F37  A5 26     LDA  $26
 8F39  05 27     ORA  $27
 8F3B  F0 38     BEQ  $8F75
 8F3D  B5 02     LDA  $02, X
 8F3F  85 28     STA  $28
 8F41  B5 03     LDA  $03, X
 8F43  85 29     STA  $29
 8F45  A0 04     LDY  #$04
 8F47  B1 26     LDA  ($26), Y
 8F49  C5 28     CMP  $28
 8F4B  D0 07     BNE  $8F54
 8F4D  C8        INY  
 8F4E  B1 26     LDA  ($26), Y
 8F50  C5 29     CMP  $29
 8F52  F0 32     BEQ  $8F86
 8F54  18        CLC  
 8F55  A5 26     LDA  $26
 8F57  69 02     ADC  #$02
 8F59  85 26     STA  $26
 8F5B  A5 27     LDA  $27
 8F5D  69 00     ADC  #$00
 8F5F  85 27     STA  $27
 8F61  A0 00     LDY  #$00
 8F63  B1 26     LDA  ($26), Y
 8F65  48        PHA  
 8F66  C8        INY  
 8F67  11 26     ORA  ($26), Y
 8F69  F0 09     BEQ  $8F74
 8F6B  B1 26     LDA  ($26), Y
 8F6D  85 27     STA  $27
 8F6F  68        PLA  
 8F70  85 26     STA  $26
 8F72  80 D1     BRA  $8F45
 8F74  68        PLA  
 8F75  B5 00     LDA  $00, X
 8F77  1A        INC  
 8F78  95 00     STA  $00, X
 8F7A  C9 0C     CMP  #$0C
 8F7C  D0 A9     BNE  $8F27
 8F7E  E8        INX  
 8F7F  E8        INX  
 8F80  74 00     STZ  $00, X
 8F82  74 01     STZ  $01, X
 8F84  80 0A     BRA  $8F90
 8F86  E8        INX  
 8F87  E8        INX  
 8F88  A5 26     LDA  $26
 8F8A  95 00     STA  $00, X
 8F8C  A5 27     LDA  $27
 8F8E  95 01     STA  $01, X
 8F90  60        RTS  
 8F91  20 1C B2  JSR  $B21C
 8F94  A9 FF     LDA  #$FF
 8F96  55 00     EOR  $00, X
 8F98  95 00     STA  $00, X
 8F9A  A9 FF     LDA  #$FF
 8F9C  55 01     EOR  $01, X
 8F9E  95 01     STA  $01, X
 8FA0  60        RTS  
 8FA1  A5 16     LDA  $16
 8FA3  05 17     ORA  $17
 8FA5  F0 0C     BEQ  $8FB3
 8FA7  20 A3 83  JSR  $83A3
 8FAA  A0 88     LDY  #$88
 8FAC  A9 9A     LDA  #$9A
 8FAE  20 BF B0  JSR  $B0BF
 8FB1  80 06     BRA  $8FB9
 8FB3  20 38 9C  JSR  $9C38
 8FB6  20 9A 88  JSR  $889A
 8FB9  60        RTS  
 8FBA  CA        DEX  
 8FBB  CA        DEX  
 8FBC  86 2A     STX  $2A
 8FBE  BA        TSX  
 8FBF  38        SEC  
 8FC0  BD 07 01  LDA  $0107, X
 8FC3  FD 09 01  SBC  $0109, X
 8FC6  A8        TAY  
 8FC7  BD 08 01  LDA  $0108, X
 8FCA  FD 0A 01  SBC  $010A, X
 8FCD  A6 2A     LDX  $2A
 8FCF  95 01     STA  $01, X
 8FD1  94 00     STY  $00, X
 8FD3  60        RTS  
 8FD4  20 DE 8F  JSR  $8FDE
 8FD7  CA        DEX  
 8FD8  CA        DEX  
 8FD9  95 00     STA  $00, X
 8FDB  74 01     STZ  $01, X
 8FDD  60        RTS  
 8FDE  6C 12 00  JMP  ($0012)
 8FE1  CA        DEX  
 8FE2  CA        DEX  
 8FE3  20 5E B1  JSR  $B15E
 8FE6  A5 02     LDA  $02
 8FE8  95 00     STA  $00, X
 8FEA  A5 03     LDA  $03
 8FEC  95 01     STA  $01, X
 8FEE  60        RTS  
 8FEF  20 E1 8F  JSR  $8FE1
 8FF2  20 36 92  JSR  $9236
 8FF5  60        RTS  
 8FF6  68        PLA  
 8FF7  68        PLA  
 8FF8  68        PLA  
 8FF9  68        PLA  
 8FFA  60        RTS  
 8FFB  64 16     STZ  $16
 8FFD  64 17     STZ  $17
 8FFF  60        RTS  
 9000  20 39 94  JSR  $9439
 9003  B5 00     LDA  $00, X
 9005  85 34     STA  $34
 9007  B5 01     LDA  $01, X
 9009  85 35     STA  $35
 900B  E8        INX  
 900C  E8        INX  
 900D  60        RTS  
 900E  20 21 B2  JSR  $B221
 9011  A0 00     LDY  #$00
 9013  20 43 B1  JSR  $B143
 9016  F0 03     BEQ  $901B
 9018  30 01     BMI  $901B
 901A  88        DEY  
 901B  98        TYA  
 901C  E8        INX  
 901D  E8        INX  
 901E  95 00     STA  $00, X
 9020  95 01     STA  $01, X
 9022  60        RTS  
 9023  20 1C B2  JSR  $B21C
 9026  A0 90     LDY  #$90
 9028  A9 31     LDA  #$31
 902A  20 BF B0  JSR  $B0BF
 902D  20 22 85  JSR  $8522
 9030  60        RTS  
 9031  CA        DEX  
 9032  CA        DEX  
 9033  68        PLA  
 9034  85 24     STA  $24
 9036  68        PLA  
 9037  85 25     STA  $25
 9039  A0 01     LDY  #$01
 903B  B1 24     LDA  ($24), Y
 903D  95 00     STA  $00, X
 903F  C8        INY  
 9040  B1 24     LDA  ($24), Y
 9042  95 01     STA  $01, X
 9044  98        TYA  
 9045  18        CLC  
 9046  65 24     ADC  $24
 9048  A8        TAY  
 9049  A5 25     LDA  $25
 904B  69 00     ADC  #$00
 904D  48        PHA  
 904E  5A        PHY  
 904F  60        RTS  
 9050  A0 93     LDY  #$93
 9052  A9 EF     LDA  #$EF
 9054  20 BF B0  JSR  $B0BF
 9057  A0 11     LDY  #$11
 9059  5A        PHY  
 905A  B9 BE 90  LDA  $90BE, Y
 905D  91 00     STA  ($00), Y
 905F  88        DEY  
 9060  10 F8     BPL  $905A
 9062  68        PLA  
 9063  18        CLC  
 9064  65 00     ADC  $00
 9066  85 00     STA  $00
 9068  A5 01     LDA  $01
 906A  69 00     ADC  #$00
 906C  85 01     STA  $01
 906E  20 22 85  JSR  $8522
 9071  A9 68     LDA  #$68
 9073  A0 06     LDY  #$06
 9075  91 00     STA  ($00), Y
 9077  88        DEY  
 9078  10 FB     BPL  $9075
 907A  A9 06     LDA  #$06
 907C  18        CLC  
 907D  65 00     ADC  $00
 907F  85 00     STA  $00
 9081  A5 01     LDA  $01
 9083  69 00     ADC  #$00
 9085  85 01     STA  $01
 9087  B5 00     LDA  $00, X
 9089  85 24     STA  $24
 908B  B5 01     LDA  $01, X
 908D  85 25     STA  $25
 908F  E8        INX  
 9090  E8        INX  
 9091  A5 00     LDA  $00
 9093  38        SEC  
 9094  E9 01     SBC  #$01
 9096  85 26     STA  $26
 9098  A5 01     LDA  $01
 909A  E9 00     SBC  #$00
 909C  85 27     STA  $27
 909E  A0 00     LDY  #$00
 90A0  A9 A9     LDA  #$A9
 90A2  91 24     STA  ($24), Y
 90A4  C8        INY  
 90A5  A5 27     LDA  $27
 90A7  91 24     STA  ($24), Y
 90A9  C8        INY  
 90AA  A9 48     LDA  #$48
 90AC  91 24     STA  ($24), Y
 90AE  C8        INY  
 90AF  A9 A9     LDA  #$A9
 90B1  91 24     STA  ($24), Y
 90B3  C8        INY  
 90B4  A5 26     LDA  $26
 90B6  91 24     STA  ($24), Y
 90B8  C8        INY  
 90B9  A9 48     LDA  #$48
 90BB  91 24     STA  ($24), Y
 90BD  60        RTS  
 90BE  18        CLC  
 90BF  68        PLA  
 90C0  75 00     ADC  $00, X
 90C2  A8        TAY  
 90C3  B8        CLV  
 90C4  68        PLA  
 90C5  75 01     ADC  $01, X
 90C7  48        PHA  
 90C8  98        TYA  
 90C9  48        PHA  
 90CA  E8        INX  
 90CB  E8        INX  
 90CC  70 03     BVS  $90D1
 90CE  4C                                               |L               |
 90CF  20 21 B2  JSR  $B221
 90D2  B5 00     LDA  $00, X
 90D4  29 0F     AND  #$0F
 90D6  F0 08     BEQ  $90E0
 90D8  A8        TAY  
 90D9  16 02     ASL  $02, X
 90DB  36 03     ROL  $03, X
 90DD  88        DEY  
 90DE  D0 F9     BNE  $90D9
 90E0  E8        INX  
 90E1  E8        INX  
 90E2  60        RTS  
 90E3  20 21 B2  JSR  $B221
 90E6  B5 01     LDA  $01, X
 90E8  55 03     EOR  $03, X
 90EA  48        PHA  
 90EB  20 39 81  JSR  $8139
 90EE  20 1A 9C  JSR  $9C1A
 90F1  20 39 81  JSR  $8139
 90F4  20 10 A0  JSR  $A010
 90F7  68        PLA  
 90F8  10 03     BPL  $90FD
 90FA  20 E5 88  JSR  $88E5
 90FD  60        RTS  
 90FE  20 5E B1  JSR  $B15E
 9101  A5 02     LDA  $02
 9103  48        PHA  
 9104  A5 03     LDA  $03
 9106  48        PHA  
 9107  A5 00     LDA  $00
 9109  48        PHA  
 910A  A5 01     LDA  $01
 910C  48        PHA  
 910D  20 1D 87  JSR  $871D
 9110  A5 00     LDA  $00
 9112  38        SEC  
 9113  E9 02     SBC  #$02
 9115  85 00     STA  $00
 9117  A5 01     LDA  $01
 9119  E9 00     SBC  #$00
 911B  85 01     STA  $01
 911D  A0 91     LDY  #$91
 911F  A9 3C     LDA  #$3C
 9121  20 CB B0  JSR  $B0CB
 9124  7A        PLY  
 9125  68        PLA  
 9126  20 CB B0  JSR  $B0CB
 9129  7A        PLY  
 912A  68        PLA  
 912B  20 CB B0  JSR  $B0CB
 912E  A0 04     LDY  #$04
 9130  B1 1E     LDA  ($1E), Y
 9132  20 CF B0  JSR  $B0CF
 9135  C8        INY  
 9136  98        TYA  
 9137  C9 28     CMP  #$28
 9139  D0 F5     BNE  $9130
 913B  60        RTS  
 913C  68        PLA  
 913D  85 24     STA  $24
 913F  68        PLA  
 9140  85 25     STA  $25
 9142  E6 24     INC  $24
 9144  D0 02     BNE  $9148
 9146  E6 25     INC  $25
 9148  A0 00     LDY  #$00
 914A  B1 24     LDA  ($24), Y
 914C  85 00     STA  $00
 914E  C8        INY  
 914F  B1 24     LDA  ($24), Y
 9151  85 01     STA  $01
 9153  C8        INY  
 9154  B1 24     LDA  ($24), Y
 9156  85 02     STA  $02
 9158  C8        INY  
 9159  B1 24     LDA  ($24), Y
 915B  85 03     STA  $03
 915D  A0 04     LDY  #$04
 915F  B1 24     LDA  ($24), Y
 9161  91 1E     STA  ($1E), Y
 9163  C8        INY  
 9164  98        TYA  
 9165  C9 28     CMP  #$28
 9167  D0 F6     BNE  $915F
 9169  20 71 B1  JSR  $B171
 916C  60        RTS  
 916D  20 21 B2  JSR  $B221
 9170  B5 00     LDA  $00, X
 9172  D5 02     CMP  $02, X
 9174  B5 01     LDA  $01, X
 9176  F5 03     SBC  $03, X
 9178  50 02     BVC  $917C
 917A  49 80     EOR  #$80
 917C  30 08     BMI  $9186
 917E  B5 00     LDA  $00, X
 9180  95 02     STA  $02, X
 9182  B5 01     LDA  $01, X
 9184  95 03     STA  $03, X
 9186  E8        INX  
 9187  E8        INX  
 9188  60        RTS  
 9189  20 21 B2  JSR  $B221
 918C  B5 00     LDA  $00, X
 918E  D5 02     CMP  $02, X
 9190  B5 01     LDA  $01, X
 9192  F5 03     SBC  $03, X
 9194  50 02     BVC  $9198
 9196  49 80     EOR  #$80
 9198  10 08     BPL  $91A2
 919A  B5 00     LDA  $00, X
 919C  95 02     STA  $02, X
 919E  B5 01     LDA  $01, X
 91A0  95 03     STA  $03, X
 91A2  E8        INX  
 91A3  E8        INX  
 91A4  60        RTS  
 91A5  20 21 B2  JSR  $B221
 91A8  38        SEC  
 91A9  B5 02     LDA  $02, X
 91AB  F5 00     SBC  $00, X
 91AD  95 02     STA  $02, X
 91AF  B5 03     LDA  $03, X
 91B1  F5 01     SBC  $01, X
 91B3  95 03     STA  $03, X
 91B5  E8        INX  
 91B6  E8        INX  
 91B7  60        RTS  
 91B8  20 21 B2  JSR  $B221
 91BB  B5 00     LDA  $00, X
 91BD  15 01     ORA  $01, X
 91BF  F0 0F     BEQ  $91D0
 91C1  A1 02     LDA  ($02, X)
 91C3  20 0F B2  JSR  $B20F
 91C6  90 08     BCC  $91D0
 91C8  20 EF 93  JSR  $93EF
 91CB  20 8F 9A  JSR  $9A8F
 91CE  80 EB     BRA  $91BB
 91D0  60        RTS  
 91D1  20 21 B2  JSR  $B221
 91D4  B5 00     LDA  $00, X
 91D6  15 01     ORA  $01, X
 91D8  F0 33     BEQ  $920D
 91DA  18        CLC  
 91DB  B5 02     LDA  $02, X
 91DD  75 00     ADC  $00, X
 91DF  85 24     STA  $24
 91E1  B5 03     LDA  $03, X
 91E3  75 01     ADC  $01, X
 91E5  85 25     STA  $25
 91E7  A5 24     LDA  $24
 91E9  D0 02     BNE  $91ED
 91EB  C6 25     DEC  $25
 91ED  C6 24     DEC  $24
 91EF  B2 24     LDA  ($24)
 91F1  C9 20     CMP  #$20
 91F3  D0 18     BNE  $920D
 91F5  A5 24     LDA  $24
 91F7  D0 02     BNE  $91FB
 91F9  C6 25     DEC  $25
 91FB  C6 24     DEC  $24
 91FD  B5 00     LDA  $00, X
 91FF  D0 02     BNE  $9203
 9201  D6 01     DEC  $01, X
 9203  D6 00     DEC  $00, X
 9205  B5 00     LDA  $00, X
 9207  15 01     ORA  $01, X
 9209  F0 02     BEQ  $920D
 920B  80 E2     BRA  $91EF
 920D  60        RTS  
 920E  20 21 B2  JSR  $B221
 9211  20 77 9A  JSR  $9A77
 9214  E8        INX  
 9215  E8        INX  
 9216  60        RTS  
 9217  B5 03     LDA  $03, X
 9219  D5 05     CMP  $05, X
 921B  F0 05     BEQ  $9222
 921D  B0 0E     BCS  $922D
 921F  4C 4D 84  JMP  $844D
 9222  B5 02     LDA  $02, X
 9224  D5 04     CMP  $04, X
 9226  F0 08     BEQ  $9230
 9228  B0 03     BCS  $922D
 922A  4C 4D 84  JMP  $844D
 922D  4C 88 84  JMP  $8488
 9230  8A        TXA  
 9231  18        CLC  
 9232  69 06     ADC  #$06
 9234  AA        TAX  
 9235  60        RTS  
 9236  20 1C B2  JSR  $B21C
 9239  B5 00     LDA  $00, X
 923B  18        CLC  
 923C  69 04     ADC  #$04
 923E  85 28     STA  $28
 9240  B5 01     LDA  $01, X
 9242  90 01     BCC  $9245
 9244  1A        INC  
 9245  85 29     STA  $29
 9247  A0 00     LDY  #$00
 9249  B1 28     LDA  ($28), Y
 924B  95 00     STA  $00, X
 924D  C8        INY  
 924E  B1 28     LDA  ($28), Y
 9250  95 01     STA  $01, X
 9252  60        RTS  
 9253  20 1C B2  JSR  $B21C
 9256  CA        DEX  
 9257  CA        DEX  
 9258  A1 02     LDA  ($02, X)
 925A  95 00     STA  $00, X
 925C  74 01     STZ  $01, X
 925E  B5 02     LDA  $02, X
 9260  18        CLC  
 9261  69 08     ADC  #$08
 9263  A8        TAY  
 9264  B5 03     LDA  $03, X
 9266  69 00     ADC  #$00
 9268  95 03     STA  $03, X
 926A  94 02     STY  $02, X
 926C  60        RTS  
 926D  CA        DEX  
 926E  CA        DEX  
 926F  A9 1A     LDA  #$1A
 9271  95 00     STA  $00, X
 9273  A9 00     LDA  #$00
 9275  95 01     STA  $01, X
 9277  60        RTS  
 9278  20 1C B2  JSR  $B21C
 927B  A9 00     LDA  #$00
 927D  38        SEC  
 927E  F5 00     SBC  $00, X
 9280  95 00     STA  $00, X
 9282  A9 00     LDA  #$00
 9284  F5 01     SBC  $01, X
 9286  95 01     STA  $01, X
 9288  60        RTS  
 9289  20 5E B1  JSR  $B15E
 928C  A0 01     LDY  #$01
 928E  B1 02     LDA  ($02), Y
 9290  09 08     ORA  #$08
 9292  29 FD     AND  #$FD
 9294  91 02     STA  ($02), Y
 9296  60        RTS  
 9297  20 21 B2  JSR  $B221
 929A  B5 00     LDA  $00, X
 929C  95 02     STA  $02, X
 929E  B5 01     LDA  $01, X
 92A0  95 03     STA  $03, X
 92A2  E8        INX  
 92A3  E8        INX  
 92A4  60        RTS  
 92A5  20 21 B2  JSR  $B221
 92A8  A0 00     LDY  #$00
 92AA  B5 00     LDA  $00, X
 92AC  D5 02     CMP  $02, X
 92AE  D0 0A     BNE  $92BA
 92B0  B5 01     LDA  $01, X
 92B2  D5 03     CMP  $03, X
 92B4  D0 04     BNE  $92BA
 92B6  A9 FF     LDA  #$FF
 92B8  80 01     BRA  $92BB
 92BA  88        DEY  
 92BB  98        TYA  
 92BC  E8        INX  
 92BD  E8        INX  
 92BE  95 00     STA  $00, X
 92C0  95 01     STA  $01, X
 92C2  60        RTS  
 92C3  20 26 B2  JSR  $B226
 92C6  B4 01     LDY  $01, X
 92C8  B5 03     LDA  $03, X
 92CA  95 01     STA  $01, X
 92CC  B5 05     LDA  $05, X
 92CE  95 03     STA  $03, X
 92D0  94 05     STY  $05, X
 92D2  B4 00     LDY  $00, X
 92D4  B5 02     LDA  $02, X
 92D6  95 00     STA  $00, X
 92D8  B5 04     LDA  $04, X
 92DA  95 02     STA  $02, X
 92DC  94 04     STY  $04, X
 92DE  60        RTS  
 92DF  20 21 B2  JSR  $B221
 92E2  64 2A     STZ  $2A
 92E4  64 2B     STZ  $2B
 92E6  A1 02     LDA  ($02, X)
 92E8  C9 2D     CMP  #$2D
 92EA  D0 0A     BNE  $92F6
 92EC  C6 2B     DEC  $2B
 92EE  F6 02     INC  $02, X
 92F0  D0 02     BNE  $92F4
 92F2  F6 03     INC  $03, X
 92F4  D6 00     DEC  $00, X
 92F6  B5 02     LDA  $02, X
 92F8  18        CLC  
 92F9  75 00     ADC  $00, X
 92FB  85 2C     STA  $2C
 92FD  B5 03     LDA  $03, X
 92FF  69 00     ADC  #$00
 9301  85 2D     STA  $2D
 9303  A5 2C     LDA  $2C
 9305  D0 02     BNE  $9309
 9307  C6 2D     DEC  $2D
 9309  C6 2C     DEC  $2C
 930B  B2 2C     LDA  ($2C)
 930D  C9 2E     CMP  #$2E
 930F  D0 04     BNE  $9315
 9311  C6 2A     DEC  $2A
 9313  D6 00     DEC  $00, X
 9315  CA        DEX  
 9316  CA        DEX  
 9317  CA        DEX  
 9318  CA        DEX  
 9319  B5 04     LDA  $04, X
 931B  95 00     STA  $00, X
 931D  74 01     STZ  $01, X
 931F  B5 06     LDA  $06, X
 9321  95 02     STA  $02, X
 9323  B5 07     LDA  $07, X
 9325  95 03     STA  $03, X
 9327  74 04     STZ  $04, X
 9329  74 05     STZ  $05, X
 932B  74 06     STZ  $06, X
 932D  74 07     STZ  $07, X
 932F  20 E4 9C  JSR  $9CE4
 9332  B5 00     LDA  $00, X
 9334  F0 15     BEQ  $934B
 9336  A9 3E     LDA  #$3E
 9338  20 96 8B  JSR  $8B96
 933B  20 17 9F  JSR  $9F17
 933E  A9 3C     LDA  #$3C
 9340  20 96 8B  JSR  $8B96
 9343  20 94 9B  JSR  $9B94
 9346  A9 08     LDA  #$08
 9348  4C 32 B2  JMP  $B232
 934B  E8        INX  
 934C  E8        INX  
 934D  E8        INX  
 934E  E8        INX  
 934F  A5 2A     LDA  $2A
 9351  F0 0D     BEQ  $9360
 9353  A9 20     LDA  #$20
 9355  04 20     TSB  $20
 9357  A5 2B     LDA  $2B
 9359  F0 12     BEQ  $936D
 935B  20 E5 88  JSR  $88E5
 935E  80 0D     BRA  $936D
 9360  E8        INX  
 9361  E8        INX  
 9362  A9 20     LDA  #$20
 9364  14 20     TRB  $20
 9366  A5 2B     LDA  $2B
 9368  F0 03     BEQ  $936D
 936A  20 78 92  JSR  $9278
 936D  60        RTS  
 936E  20 21 B2  JSR  $B221
 9371  20 67 83  JSR  $8367
 9374  20 60 8C  JSR  $8C60
 9377  20 84 9D  JSR  $9D84
 937A  20 B2 A1  JSR  $A1B2
 937D  20 08 96  JSR  $9608
 9380  20 CE 9F  JSR  $9FCE
 9383  20 D9 96  JSR  $96D9
 9386  20 D9 96  JSR  $96D9
 9389  20 1D 96  JSR  $961D
 938C  20 CE 9F  JSR  $9FCE
 938F  20 D9 96  JSR  $96D9
 9392  20 D9 96  JSR  $96D9
 9395  B5 00     LDA  $00, X
 9397  A8        TAY  
 9398  B9 F4 AE  LDA  $AEF4, Y
 939B  95 00     STA  $00, X
 939D  74 01     STZ  $01, X
 939F  20 7D 8E  JSR  $8E7D
 93A2  60        RTS  
 93A3  20 21 B2  JSR  $B221
 93A6  A5 34     LDA  $34
 93A8  95 00     STA  $00, X
 93AA  95 02     STA  $02, X
 93AC  A5 35     LDA  $35
 93AE  95 01     STA  $01, X
 93B0  95 03     STA  $03, X
 93B2  20 39 94  JSR  $9439
 93B5  38        SEC  
 93B6  B5 00     LDA  $00, X
 93B8  F5 02     SBC  $02, X
 93BA  95 02     STA  $02, X
 93BC  B5 01     LDA  $01, X
 93BE  F5 03     SBC  $03, X
 93C0  95 03     STA  $03, X
 93C2  E8        INX  
 93C3  E8        INX  
 93C4  60        RTS  
 93C5  20 21 B2  JSR  $B221
 93C8  20 6E 93  JSR  $936E
 93CB  B5 00     LDA  $00, X
 93CD  15 01     ORA  $01, X
 93CF  15 02     ORA  $02, X
 93D1  15 03     ORA  $03, X
 93D3  D0 F3     BNE  $93C8
 93D5  60        RTS  
 93D6  A0 94     LDY  #$94
 93D8  A9 2B     LDA  #$2B
 93DA  20 BF B0  JSR  $B0BF
 93DD  A0 8B     LDY  #$8B
 93DF  A9 AE     LDA  #$AE
 93E1  20 BF B0  JSR  $B0BF
 93E4  20 A9 8E  JSR  $8EA9
 93E7  A0 8A     LDY  #$8A
 93E9  A9 D2     LDA  #$D2
 93EB  20 BF B0  JSR  $B0BF
 93EE  60        RTS  
 93EF  CA        DEX  
 93F0  CA        DEX  
 93F1  A9 01     LDA  #$01
 93F3  95 00     STA  $00, X
 93F5  74 01     STZ  $01, X
 93F7  60        RTS  
 93F8  20 1C B2  JSR  $B21C
 93FB  B5 00     LDA  $00, X
 93FD  D0 02     BNE  $9401
 93FF  D6 01     DEC  $01, X
 9401  D6 00     DEC  $00, X
 9403  60        RTS  
 9404  20 1C B2  JSR  $B21C
 9407  F6 00     INC  $00, X
 9409  D0 02     BNE  $940D
 940B  F6 01     INC  $01, X
 940D  60        RTS  
 940E  20 21 B2  JSR  $B221
 9411  B5 00     LDA  $00, X
 9413  15 02     ORA  $02, X
 9415  95 02     STA  $02, X
 9417  B5 01     LDA  $01, X
 9419  15 03     ORA  $03, X
 941B  95 03     STA  $03, X
 941D  E8        INX  
 941E  E8        INX  
 941F  60        RTS  
 9420  CA        DEX  
 9421  CA        DEX  
 9422  A9 10     LDA  #$10
 9424  95 00     STA  $00, X
 9426  A9 00     LDA  #$00
 9428  95 01     STA  $01, X
 942A  60        RTS  
 942B  20 21 B2  JSR  $B221
 942E  CA        DEX  
 942F  CA        DEX  
 9430  B5 04     LDA  $04, X
 9432  95 00     STA  $00, X
 9434  B5 05     LDA  $05, X
 9436  95 01     STA  $01, X
 9438  60        RTS  
 9439  CA        DEX  
 943A  CA        DEX  
 943B  A5 00     LDA  $00
 943D  18        CLC  
 943E  69 FF     ADC  #$FF
 9440  95 00     STA  $00, X
 9442  A5 01     LDA  $01
 9444  69 00     ADC  #$00
 9446  95 01     STA  $01, X
 9448  60        RTS  
 9449  A9 1B     LDA  #$1B
 944B  20 96 8B  JSR  $8B96
 944E  A9 5B     LDA  #$5B
 9450  20 96 8B  JSR  $8B96
 9453  A9 32     LDA  #$32
 9455  20 96 8B  JSR  $8B96
 9458  A9 4A     LDA  #$4A
 945A  20 96 8B  JSR  $8B96
 945D  20 B2 A1  JSR  $A1B2
 9460  20 B2 A1  JSR  $A1B2
 9463  20 40 83  JSR  $8340
 9466  60        RTS  
 9467  CA        DEX  
 9468  CA        DEX  
 9469  A9 29     LDA  #$29
 946B  95 00     STA  $00, X
 946D  74 01     STZ  $01, X
 946F  20 D2 94  JSR  $94D2
 9472  E8        INX  
 9473  E8        INX  
 9474  E8        INX  
 9475  E8        INX  
 9476  60        RTS  
 9477  A5 0A     LDA  $0A
 9479  38        SEC  
 947A  E5 0C     SBC  $0C
 947C  85 24     STA  $24
 947E  A5 0B     LDA  $0B
 9480  E5 0D     SBC  $0D
 9482  85 25     STA  $25
 9484  A5 24     LDA  $24
 9486  05 25     ORA  $25
 9488  F0 28     BEQ  $94B2
 948A  A5 08     LDA  $08
 948C  18        CLC  
 948D  65 0C     ADC  $0C
 948F  85 26     STA  $26
 9491  A5 09     LDA  $09
 9493  65 0D     ADC  $0D
 9495  85 27     STA  $27
 9497  B2 26     LDA  ($26)
 9499  20 0F B2  JSR  $B20F
 949C  90 1F     BCC  $94BD
 949E  E6 26     INC  $26
 94A0  D0 02     BNE  $94A4
 94A2  E6 27     INC  $27
 94A4  A5 24     LDA  $24
 94A6  D0 02     BNE  $94AA
 94A8  C6 25     DEC  $25
 94AA  C6 24     DEC  $24
 94AC  A5 24     LDA  $24
 94AE  05 25     ORA  $25
 94B0  D0 E5     BNE  $9497
 94B2  CA        DEX  
 94B3  CA        DEX  
 94B4  CA        DEX  
 94B5  CA        DEX  
 94B6  74 00     STZ  $00, X
 94B8  74 01     STZ  $01, X
 94BA  4C 69 95  JMP  $9569
 94BD  A5 26     LDA  $26
 94BF  38        SEC  
 94C0  E5 08     SBC  $08
 94C2  85 0C     STA  $0C
 94C4  A5 27     LDA  $27
 94C6  E5 09     SBC  $09
 94C8  85 0D     STA  $0D
 94CA  CA        DEX  
 94CB  CA        DEX  
 94CC  A9 20     LDA  #$20
 94CE  95 00     STA  $00, X
 94D0  74 01     STZ  $01, X
 94D2  20 1C B2  JSR  $B21C
 94D5  A5 0A     LDA  $0A
 94D7  05 0B     ORA  $0B
 94D9  F0 0C     BEQ  $94E7
 94DB  A5 0D     LDA  $0D
 94DD  C5 0B     CMP  $0B
 94DF  90 0E     BCC  $94EF
 94E1  A5 0C     LDA  $0C
 94E3  C5 0A     CMP  $0A
 94E5  90 08     BCC  $94EF
 94E7  CA        DEX  
 94E8  CA        DEX  
 94E9  74 00     STZ  $00, X
 94EB  74 01     STZ  $01, X
 94ED  80 7A     BRA  $9569
 94EF  B5 00     LDA  $00, X
 94F1  85 2C     STA  $2C
 94F3  CA        DEX  
 94F4  CA        DEX  
 94F5  A5 08     LDA  $08
 94F7  18        CLC  
 94F8  65 0C     ADC  $0C
 94FA  85 24     STA  $24
 94FC  85 26     STA  $26
 94FE  95 02     STA  $02, X
 9500  A5 09     LDA  $09
 9502  65 0D     ADC  $0D
 9504  85 25     STA  $25
 9506  85 27     STA  $27
 9508  95 03     STA  $03, X
 950A  A5 08     LDA  $08
 950C  18        CLC  
 950D  65 0A     ADC  $0A
 950F  85 28     STA  $28
 9511  A5 09     LDA  $09
 9513  65 0B     ADC  $0B
 9515  85 29     STA  $29
 9517  64 2D     STZ  $2D
 9519  A5 26     LDA  $26
 951B  C5 28     CMP  $28
 951D  D0 06     BNE  $9525
 951F  A5 27     LDA  $27
 9521  C5 29     CMP  $29
 9523  F0 1D     BEQ  $9542
 9525  B2 26     LDA  ($26)
 9527  A4 2C     LDY  $2C
 9529  C0 20     CPY  #$20
 952B  D0 07     BNE  $9534
 952D  20 0F B2  JSR  $B20F
 9530  90 02     BCC  $9534
 9532  80 0C     BRA  $9540
 9534  C5 2C     CMP  $2C
 9536  F0 08     BEQ  $9540
 9538  E6 26     INC  $26
 953A  D0 DD     BNE  $9519
 953C  E6 27     INC  $27
 953E  80 D9     BRA  $9519
 9540  E6 2D     INC  $2D
 9542  A5 26     LDA  $26
 9544  38        SEC  
 9545  E5 24     SBC  $24
 9547  95 00     STA  $00, X
 9549  A5 27     LDA  $27
 954B  E5 25     SBC  $25
 954D  95 01     STA  $01, X
 954F  A5 26     LDA  $26
 9551  38        SEC  
 9552  E5 08     SBC  $08
 9554  85 0C     STA  $0C
 9556  A5 27     LDA  $27
 9558  E5 09     SBC  $09
 955A  85 0D     STA  $0D
 955C  A5 0C     LDA  $0C
 955E  18        CLC  
 955F  65 2D     ADC  $2D
 9561  85 0C     STA  $0C
 9563  A5 0D     LDA  $0D
 9565  69 00     ADC  #$00
 9567  85 0D     STA  $0D
 9569  60        RTS  
 956A  16 00     ASL  $00, X
 956C  8A        TXA  
 956D  75 00     ADC  $00, X
 956F  A8        TAY  
 9570  B9 02 00  LDA  $0002, Y
 9573  95 00     STA  $00, X
 9575  B9 03 00  LDA  $0003, Y
 9578  95 01     STA  $01, X
 957A  60        RTS  
 957B  20 21 B2  JSR  $B221
 957E  18        CLC  
 957F  B5 00     LDA  $00, X
 9581  75 02     ADC  $02, X
 9583  95 02     STA  $02, X
 9585  B5 01     LDA  $01, X
 9587  75 03     ADC  $03, X
 9589  95 03     STA  $03, X
 958B  E8        INX  
 958C  E8        INX  
 958D  60        RTS  
 958E  20 21 B2  JSR  $B221
 9591  B5 00     LDA  $00, X
 9593  85 24     STA  $24
 9595  B5 01     LDA  $01, X
 9597  85 25     STA  $25
 9599  A0 00     LDY  #$00
 959B  B1 24     LDA  ($24), Y
 959D  18        CLC  
 959E  75 02     ADC  $02, X
 95A0  91 24     STA  ($24), Y
 95A2  C8        INY  
 95A3  B1 24     LDA  ($24), Y
 95A5  75 03     ADC  $03, X
 95A7  91 24     STA  ($24), Y
 95A9  E8        INX  
 95AA  E8        INX  
 95AB  E8        INX  
 95AC  E8        INX  
 95AD  60        RTS  
 95AE  20 77 94  JSR  $9477
 95B1  B5 00     LDA  $00, X
 95B3  15 01     ORA  $01, X
 95B5  D0 05     BNE  $95BC
 95B7  A9 05     LDA  #$05
 95B9  4C 32 B2  JMP  $B232
 95BC  20 BB 8C  JSR  $8CBB
 95BF  D0 05     BNE  $95C6
 95C1  A9 05     LDA  #$05
 95C3  4C 32 B2  JMP  $B232
 95C6  B5 00     LDA  $00, X
 95C8  85 24     STA  $24
 95CA  B5 01     LDA  $01, X
 95CC  85 25     STA  $25
 95CE  20 36 92  JSR  $9236
 95D1  E6 24     INC  $24
 95D3  D0 02     BNE  $95D7
 95D5  E6 25     INC  $25
 95D7  B2 24     LDA  ($24)
 95D9  29 04     AND  #$04
 95DB  F0 05     BEQ  $95E2
 95DD  20 A1 85  JSR  $85A1
 95E0  80 0A     BRA  $95EC
 95E2  20 23 90  JSR  $9023
 95E5  A0 85     LDY  #$85
 95E7  A9 A1     LDA  #$A1
 95E9  20 BF B0  JSR  $B0BF
 95EC  60        RTS  
 95ED  20 60 8C  JSR  $8C60
 95F0  20 DA 89  JSR  $89DA
 95F3  60        RTS  
 95F4  20 1C B2  JSR  $B21C
 95F7  B5 00     LDA  $00, X
 95F9  15 01     ORA  $01, X
 95FB  F0 0A     BEQ  $9607
 95FD  CA        DEX  
 95FE  CA        DEX  
 95FF  B5 02     LDA  $02, X
 9601  95 00     STA  $00, X
 9603  B5 03     LDA  $03, X
 9605  95 01     STA  $01, X
 9607  60        RTS  
 9608  7A        PLY  
 9609  84 24     STY  $24
 960B  7A        PLY  
 960C  CA        DEX  
 960D  CA        DEX  
 960E  68        PLA  
 960F  95 00     STA  $00, X
 9611  68        PLA  
 9612  95 01     STA  $01, X
 9614  48        PHA  
 9615  B5 00     LDA  $00, X
 9617  48        PHA  
 9618  5A        PHY  
 9619  A4 24     LDY  $24
 961B  5A        PHY  
 961C  60        RTS  
 961D  68        PLA  
 961E  85 2C     STA  $2C
 9620  7A        PLY  
 9621  CA        DEX  
 9622  CA        DEX  
 9623  68        PLA  
 9624  95 00     STA  $00, X
 9626  68        PLA  
 9627  95 01     STA  $01, X
 9629  5A        PHY  
 962A  A5 2C     LDA  $2C
 962C  48        PHA  
 962D  60        RTS  
 962E  68        PLA  
 962F  85 24     STA  $24
 9631  68        PLA  
 9632  85 25     STA  $25
 9634  A0 00     LDY  #$00
 9636  68        PLA  
 9637  99 06 00  STA  $0006, Y
 963A  C8        INY  
 963B  C0 08     CPY  #$08
 963D  D0 F7     BNE  $9636
 963F  A5 25     LDA  $25
 9641  48        PHA  
 9642  A5 24     LDA  $24
 9644  48        PHA  
 9645  60        RTS  
 9646  A0 00     LDY  #$00
 9648  A9 20     LDA  #$20
 964A  91 00     STA  ($00), Y
 964C  C8        INY  
 964D  24 20     BIT  $20
 964F  70 0C     BVS  $965D
 9651  A5 04     LDA  $04
 9653  91 00     STA  ($00), Y
 9655  C8        INY  
 9656  A5 05     LDA  $05
 9658  91 00     STA  ($00), Y
 965A  C8        INY  
 965B  80 1B     BRA  $9678
 965D  A5 04     LDA  $04
 965F  18        CLC  
 9660  69 04     ADC  #$04
 9662  85 24     STA  $24
 9664  A5 05     LDA  $05
 9666  69 00     ADC  #$00
 9668  85 25     STA  $25
 966A  B2 24     LDA  ($24)
 966C  91 00     STA  ($00), Y
 966E  5A        PHY  
 966F  A0 01     LDY  #$01
 9671  B1 24     LDA  ($24), Y
 9673  7A        PLY  
 9674  C8        INY  
 9675  91 00     STA  ($00), Y
 9677  C8        INY  
 9678  98        TYA  
 9679  18        CLC  
 967A  65 00     ADC  $00
 967C  85 00     STA  $00
 967E  90 02     BCC  $9682
 9680  E6 01     INC  $01
 9682  60        RTS  
 9683  A5 06     LDA  $06
 9685  D0 2D     BNE  $96B4
 9687  CA        DEX  
 9688  CA        DEX  
 9689  CA        DEX  
 968A  CA        DEX  
 968B  A5 08     LDA  $08
 968D  95 02     STA  $02, X
 968F  A5 09     LDA  $09
 9691  95 03     STA  $03, X
 9693  64 0A     STZ  $0A
 9695  64 0B     STZ  $0B
 9697  A9 FF     LDA  #$FF
 9699  95 00     STA  $00, X
 969B  74 01     STZ  $01, X
 969D  20 4E 81  JSR  $814E
 96A0  B5 00     LDA  $00, X
 96A2  85 0A     STA  $0A
 96A4  B5 01     LDA  $01, X
 96A6  85 0B     STA  $0B
 96A8  64 0C     STZ  $0C
 96AA  64 0D     STZ  $0D
 96AC  A9 FF     LDA  #$FF
 96AE  95 00     STA  $00, X
 96B0  95 01     STA  $01, X
 96B2  80 10     BRA  $96C4
 96B4  1A        INC  
 96B5  D0 08     BNE  $96BF
 96B7  CA        DEX  
 96B8  CA        DEX  
 96B9  74 00     STZ  $00, X
 96BB  74 01     STZ  $01, X
 96BD  80 05     BRA  $96C4
 96BF  A9 01     LDA  #$01
 96C1  4C 32 B2  JMP  $B232
 96C4  60        RTS  
 96C5  20 89 82  JSR  $8289
 96C8  20 18 8E  JSR  $8E18
 96CB  20 1A 9C  JSR  $9C1A
 96CE  20 F9 9B  JSR  $9BF9
 96D1  60        RTS  
 96D2  A9 FF     LDA  #$FF
 96D4  85 16     STA  $16
 96D6  85 17     STA  $17
 96D8  60        RTS  
 96D9  20 26 B2  JSR  $B226
 96DC  B4 05     LDY  $05, X
 96DE  B5 03     LDA  $03, X
 96E0  95 05     STA  $05, X
 96E2  B5 01     LDA  $01, X
 96E4  95 03     STA  $03, X
 96E6  94 01     STY  $01, X
 96E8  B4 04     LDY  $04, X
 96EA  B5 02     LDA  $02, X
 96EC  95 04     STA  $04, X
 96EE  B5 00     LDA  $00, X
 96F0  95 02     STA  $02, X
 96F2  94 00     STY  $00, X
 96F4  60        RTS  
 96F5  20 21 B2  JSR  $B221
 96F8  B5 00     LDA  $00, X
 96FA  29 0F     AND  #$0F
 96FC  F0 08     BEQ  $9706
 96FE  A8        TAY  
 96FF  56 03     LSR  $03, X
 9701  76 02     ROR  $02, X
 9703  88        DEY  
 9704  D0 F9     BNE  $96FF
 9706  E8        INX  
 9707  E8        INX  
 9708  60        RTS  
 9709  A9 FF     LDA  #$FF
 970B  85 26     STA  $26
 970D  64 27     STZ  $27
 970F  20 F4 97  JSR  $97F4
 9712  60        RTS  
 9713  C9 41     CMP  #$41
 9715  90 07     BCC  $971E
 9717  29 DF     AND  #$DF
 9719  38        SEC  
 971A  E9 37     SBC  #$37
 971C  80 03     BRA  $9721
 971E  38        SEC  
 971F  E9 30     SBC  #$30
 9721  60        RTS  
 9722  20 77 94  JSR  $9477
 9725  20 BB 8C  JSR  $8CBB
 9728  B5 00     LDA  $00, X
 972A  15 01     ORA  $01, X
 972C  D0 05     BNE  $9733
 972E  A9 05     LDA  #$05
 9730  4C 32 B2  JMP  $B232
 9733  20 17 87  JSR  $8717
 9736  A5 18     LDA  $18
 9738  48        PHA  
 9739  20 23 8E  JSR  $8E23
 973C  A9 0A     LDA  #$0A
 973E  20 48 B2  JSR  $B248
 9741  20 53 8B  JSR  $8B53
 9744  20 42 9F  JSR  $9F42
 9747  20 94 9B  JSR  $9B94
 974A  20 53 8B  JSR  $8B53
 974D  20 36 92  JSR  $9236
 9750  A9 0B     LDA  #$0B
 9752  20 48 B2  JSR  $B248
 9755  20 53 8B  JSR  $8B53
 9758  20 42 9F  JSR  $9F42
 975B  20 17 87  JSR  $8717
 975E  A9 09     LDA  #$09
 9760  20 48 B2  JSR  $B248
 9763  20 2B 94  JSR  $942B
 9766  20 04 94  JSR  $9404
 9769  20 60 8C  JSR  $8C60
 976C  B5 00     LDA  $00, X
 976E  A0 06     LDY  #$06
 9770  48        PHA  
 9771  29 01     AND  #$01
 9773  18        CLC  
 9774  69 30     ADC  #$30
 9776  20 96 8B  JSR  $8B96
 9779  20 94 9B  JSR  $9B94
 977C  68        PLA  
 977D  6A        ROR  
 977E  88        DEY  
 977F  D0 EF     BNE  $9770
 9781  20 17 87  JSR  $8717
 9784  E8        INX  
 9785  E8        INX  
 9786  A9 0C     LDA  #$0C
 9788  20 48 B2  JSR  $B248
 978B  20 1A 9C  JSR  $9C1A
 978E  20 7F A1  JSR  $A17F
 9791  20 53 8B  JSR  $8B53
 9794  20 59 88  JSR  $8859
 9797  20 42 9F  JSR  $9F42
 979A  20 23 8E  JSR  $8E23
 979D  20 17 87  JSR  $8717
 97A0  20 CC 9D  JSR  $9DCC
 97A3  20 D8 8A  JSR  $8AD8
 97A6  20 17 87  JSR  $8717
 97A9  20 D2 8A  JSR  $8AD2
 97AC  68        PLA  
 97AD  85 18     STA  $18
 97AF  60        RTS  
 97B0  20 1C B2  JSR  $B21C
 97B3  A0 04     LDY  #$04
 97B5  B5 00     LDA  $00, X
 97B7  91 1E     STA  ($1E), Y
 97B9  E8        INX  
 97BA  E8        INX  
 97BB  60        RTS  
 97BC  A9 FF     LDA  #$FF
 97BE  D5 01     CMP  $01, X
 97C0  D0 12     BNE  $97D4
 97C2  D5 00     CMP  $00, X
 97C4  D0 0E     BNE  $97D4
 97C6  CA        DEX  
 97C7  CA        DEX  
 97C8  74 03     STZ  $03, X
 97CA  A9 03     LDA  #$03
 97CC  95 02     STA  $02, X
 97CE  74 01     STZ  $01, X
 97D0  A9 01     LDA  #$01
 97D2  95 00     STA  $00, X
 97D4  A0 1E     LDY  #$1E
 97D6  B5 00     LDA  $00, X
 97D8  91 1E     STA  ($1E), Y
 97DA  85 24     STA  $24
 97DC  E8        INX  
 97DD  E8        INX  
 97DE  A5 24     LDA  $24
 97E0  F0 0D     BEQ  $97EF
 97E2  A0 1F     LDY  #$1F
 97E4  B5 00     LDA  $00, X
 97E6  91 1E     STA  ($1E), Y
 97E8  C8        INY  
 97E9  E8        INX  
 97EA  E8        INX  
 97EB  C6 24     DEC  $24
 97ED  D0 F5     BNE  $97E4
 97EF  60        RTS  
 97F0  64 26     STZ  $26
 97F2  64 27     STZ  $27
 97F4  CA        DEX  
 97F5  CA        DEX  
 97F6  CA        DEX  
 97F7  CA        DEX  
 97F8  A9 4C     LDA  #$4C
 97FA  20 CF B0  JSR  $B0CF
 97FD  20 CF B0  JSR  $B0CF
 9800  20 CF B0  JSR  $B0CF
 9803  A5 00     LDA  $00
 9805  95 02     STA  $02, X
 9807  A5 01     LDA  $01
 9809  95 03     STA  $03, X
 980B  A5 0D     LDA  $0D
 980D  C5 0B     CMP  $0B
 980F  90 2A     BCC  $983B
 9811  A5 0C     LDA  $0C
 9813  C5 0A     CMP  $0A
 9815  90 24     BCC  $983B
 9817  A5 26     LDA  $26
 9819  48        PHA  
 981A  A5 27     LDA  $27
 981C  48        PHA  
 981D  A5 28     LDA  $28
 981F  48        PHA  
 9820  20 83 96  JSR  $9683
 9823  68        PLA  
 9824  85 28     STA  $28
 9826  68        PLA  
 9827  85 27     STA  $27
 9829  68        PLA  
 982A  85 26     STA  $26
 982C  B5 00     LDA  $00, X
 982E  15 01     ORA  $01, X
 9830  D0 05     BNE  $9837
 9832  A9 06     LDA  #$06
 9834  4C 32 B2  JMP  $B232
 9837  E8        INX  
 9838  E8        INX  
 9839  80 D0     BRA  $980B
 983B  A5 08     LDA  $08
 983D  18        CLC  
 983E  65 0C     ADC  $0C
 9840  85 24     STA  $24
 9842  A5 09     LDA  $09
 9844  65 0D     ADC  $0D
 9846  85 25     STA  $25
 9848  B2 24     LDA  ($24)
 984A  24 26     BIT  $26
 984C  30 03     BMI  $9851
 984E  4C 09 99  JMP  $9909
 9851  24 27     BIT  $27
 9853  30 03     BMI  $9858
 9855  4C FF 98  JMP  $98FF
 9858  70 22     BVS  $987C
 985A  A9 01     LDA  #$01
 985C  24 27     BIT  $27
 985E  D0 10     BNE  $9870
 9860  E6 27     INC  $27
 9862  B2 24     LDA  ($24)
 9864  20 13 97  JSR  $9713
 9867  0A        ASL  
 9868  0A        ASL  
 9869  0A        ASL  
 986A  0A        ASL  
 986B  85 28     STA  $28
 986D  4C 10 99  JMP  $9910
 9870  64 27     STZ  $27
 9872  B2 24     LDA  ($24)
 9874  20 13 97  JSR  $9713
 9877  05 28     ORA  $28
 9879  4C 0D 99  JMP  $990D
 987C  64 27     STZ  $27
 987E  C9 61     CMP  #$61
 9880  D0 05     BNE  $9887
 9882  A9 07     LDA  #$07
 9884  4C 0D 99  JMP  $990D
 9887  C9 62     CMP  #$62
 9889  D0 05     BNE  $9890
 988B  A9 08     LDA  #$08
 988D  4C 0D 99  JMP  $990D
 9890  C9 65     CMP  #$65
 9892  D0 04     BNE  $9898
 9894  A9 1B     LDA  #$1B
 9896  80 75     BRA  $990D
 9898  C9 66     CMP  #$66
 989A  D0 04     BNE  $98A0
 989C  A9 0C     LDA  #$0C
 989E  80 6D     BRA  $990D
 98A0  C9 6C     CMP  #$6C
 98A2  D0 04     BNE  $98A8
 98A4  A9 0A     LDA  #$0A
 98A6  80 65     BRA  $990D
 98A8  C9 6D     CMP  #$6D
 98AA  D0 09     BNE  $98B5
 98AC  A9 0D     LDA  #$0D
 98AE  20 CF B0  JSR  $B0CF
 98B1  A9 0A     LDA  #$0A
 98B3  80 58     BRA  $990D
 98B5  C9 6E     CMP  #$6E
 98B7  D0 04     BNE  $98BD
 98B9  A9 0A     LDA  #$0A
 98BB  80 50     BRA  $990D
 98BD  C9 71     CMP  #$71
 98BF  D0 04     BNE  $98C5
 98C1  A9 22     LDA  #$22
 98C3  80 48     BRA  $990D
 98C5  C9 72     CMP  #$72
 98C7  D0 04     BNE  $98CD
 98C9  A9 0D     LDA  #$0D
 98CB  80 40     BRA  $990D
 98CD  C9 74     CMP  #$74
 98CF  D0 04     BNE  $98D5
 98D1  A9 09     LDA  #$09
 98D3  80 38     BRA  $990D
 98D5  C9 76     CMP  #$76
 98D7  D0 04     BNE  $98DD
 98D9  A9 0B     LDA  #$0B
 98DB  80 30     BRA  $990D
 98DD  C9 7A     CMP  #$7A
 98DF  D0 04     BNE  $98E5
 98E1  A9 00     LDA  #$00
 98E3  80 28     BRA  $990D
 98E5  C9 22     CMP  #$22
 98E7  D0 04     BNE  $98ED
 98E9  A9 22     LDA  #$22
 98EB  80 20     BRA  $990D
 98ED  C9 78     CMP  #$78
 98EF  D0 06     BNE  $98F7
 98F1  A9 BE     LDA  #$BE
 98F3  85 27     STA  $27
 98F5  80 19     BRA  $9910
 98F7  C9 5C     CMP  #$5C
 98F9  D0 04     BNE  $98FF
 98FB  A9 5C     LDA  #$5C
 98FD  80 0E     BRA  $990D
 98FF  C9 5C     CMP  #$5C
 9901  D0 06     BNE  $9909
 9903  A9 FF     LDA  #$FF
 9905  85 27     STA  $27
 9907  80 07     BRA  $9910
 9909  C9 22     CMP  #$22
 990B  F0 0C     BEQ  $9919
 990D  20 CF B0  JSR  $B0CF
 9910  E6 0C     INC  $0C
 9912  D0 02     BNE  $9916
 9914  E6 0D     INC  $0D
 9916  4C 0B 98  JMP  $980B
 9919  E6 0C     INC  $0C
 991B  D0 02     BNE  $991F
 991D  E6 0D     INC  $0D
 991F  A5 00     LDA  $00
 9921  38        SEC  
 9922  F5 02     SBC  $02, X
 9924  95 00     STA  $00, X
 9926  A5 01     LDA  $01
 9928  F5 03     SBC  $03, X
 992A  95 01     STA  $01, X
 992C  B5 02     LDA  $02, X
 992E  38        SEC  
 992F  E9 02     SBC  #$02
 9931  85 24     STA  $24
 9933  B5 03     LDA  $03, X
 9935  E9 00     SBC  #$00
 9937  85 25     STA  $25
 9939  A5 00     LDA  $00
 993B  92 24     STA  ($24)
 993D  A0 01     LDY  #$01
 993F  A5 01     LDA  $01
 9941  91 24     STA  ($24), Y
 9943  A5 16     LDA  $16
 9945  05 17     ORA  $17
 9947  F0 03     BEQ  $994C
 9949  20 05 9B  JSR  $9B05
 994C  60        RTS  
 994D  20 1C B2  JSR  $B21C
 9950  CA        DEX  
 9951  CA        DEX  
 9952  74 00     STZ  $00, X
 9954  74 01     STZ  $01, X
 9956  B5 03     LDA  $03, X
 9958  10 04     BPL  $995E
 995A  D6 00     DEC  $00, X
 995C  D6 01     DEC  $01, X
 995E  60        RTS  
 995F  20 2B B2  JSR  $B22B
 9962  B5 00     LDA  $00, X
 9964  15 01     ORA  $01, X
 9966  D0 0B     BNE  $9973
 9968  E8        INX  
 9969  E8        INX  
 996A  A9 FF     LDA  #$FF
 996C  95 00     STA  $00, X
 996E  95 01     STA  $01, X
 9970  4C FD 99  JMP  $99FD
 9973  20 B2 A1  JSR  $A1B2
 9976  18        CLC  
 9977  B5 00     LDA  $00, X
 9979  75 02     ADC  $02, X
 997B  85 24     STA  $24
 997D  B5 01     LDA  $01, X
 997F  75 03     ADC  $03, X
 9981  D5 07     CMP  $07, X
 9983  90 12     BCC  $9997
 9985  D0 06     BNE  $998D
 9987  B5 06     LDA  $06, X
 9989  C5 24     CMP  $24
 998B  B0 0A     BCS  $9997
 998D  E8        INX  
 998E  E8        INX  
 998F  E8        INX  
 9990  E8        INX  
 9991  74 00     STZ  $00, X
 9993  74 01     STZ  $01, X
 9995  80 66     BRA  $99FD
 9997  18        CLC  
 9998  B5 08     LDA  $08, X
 999A  75 00     ADC  $00, X
 999C  85 24     STA  $24
 999E  B5 09     LDA  $09, X
 99A0  75 01     ADC  $01, X
 99A2  85 25     STA  $25
 99A4  B5 04     LDA  $04, X
 99A6  85 26     STA  $26
 99A8  B5 05     LDA  $05, X
 99AA  85 27     STA  $27
 99AC  B5 02     LDA  $02, X
 99AE  85 28     STA  $28
 99B0  B5 03     LDA  $03, X
 99B2  85 29     STA  $29
 99B4  B2 24     LDA  ($24)
 99B6  D2 26     CMP  ($26)
 99B8  F0 05     BEQ  $99BF
 99BA  20 04 94  JSR  $9404
 99BD  80 B7     BRA  $9976
 99BF  E6 24     INC  $24
 99C1  D0 02     BNE  $99C5
 99C3  E6 25     INC  $25
 99C5  E6 26     INC  $26
 99C7  D0 02     BNE  $99CB
 99C9  E6 27     INC  $27
 99CB  A5 28     LDA  $28
 99CD  D0 02     BNE  $99D1
 99CF  C6 29     DEC  $29
 99D1  C6 28     DEC  $28
 99D3  A5 28     LDA  $28
 99D5  05 29     ORA  $29
 99D7  D0 DB     BNE  $99B4
 99D9  18        CLC  
 99DA  B5 00     LDA  $00, X
 99DC  75 08     ADC  $08, X
 99DE  95 08     STA  $08, X
 99E0  B5 01     LDA  $01, X
 99E2  75 09     ADC  $09, X
 99E4  95 09     STA  $09, X
 99E6  38        SEC  
 99E7  B5 06     LDA  $06, X
 99E9  F5 00     SBC  $00, X
 99EB  95 06     STA  $06, X
 99ED  B5 07     LDA  $07, X
 99EF  F5 01     SBC  $01, X
 99F1  95 07     STA  $07, X
 99F3  E8        INX  
 99F4  E8        INX  
 99F5  E8        INX  
 99F6  E8        INX  
 99F7  A9 FF     LDA  #$FF
 99F9  95 00     STA  $00, X
 99FB  95 01     STA  $01, X
 99FD  60        RTS  
 99FE  24 20     BIT  $20
 9A00  70 11     BVS  $9A13
 9A02  A9 60     LDA  #$60
 9A04  20 CF B0  JSR  $B0CF
 9A07  CA        DEX  
 9A08  CA        DEX  
 9A09  A5 04     LDA  $04
 9A0B  95 00     STA  $00, X
 9A0D  A5 05     LDA  $05
 9A0F  95 01     STA  $01, X
 9A11  80 45     BRA  $9A58
 9A13  A0 06     LDY  #$06
 9A15  A5 00     LDA  $00
 9A17  91 04     STA  ($04), Y
 9A19  C8        INY  
 9A1A  A5 01     LDA  $01
 9A1C  91 04     STA  ($04), Y
 9A1E  A9 60     LDA  #$60
 9A20  20 CF B0  JSR  $B0CF
 9A23  24 20     BIT  $20
 9A25  10 26     BPL  $9A4D
 9A27  CA        DEX  
 9A28  CA        DEX  
 9A29  CA        DEX  
 9A2A  CA        DEX  
 9A2B  B2 04     LDA  ($04)
 9A2D  95 00     STA  $00, X
 9A2F  74 01     STZ  $01, X
 9A31  A5 04     LDA  $04
 9A33  18        CLC  
 9A34  69 08     ADC  #$08
 9A36  95 02     STA  $02, X
 9A38  A5 05     LDA  $05
 9A3A  69 00     ADC  #$00
 9A3C  95 03     STA  $03, X
 9A3E  A9 02     LDA  #$02
 9A40  20 48 B2  JSR  $B248
 9A43  20 17 9F  JSR  $9F17
 9A46  20 94 9B  JSR  $9B94
 9A49  A9 80     LDA  #$80
 9A4B  14 20     TRB  $20
 9A4D  A5 04     LDA  $04
 9A4F  85 02     STA  $02
 9A51  A5 05     LDA  $05
 9A53  85 03     STA  $03
 9A55  20 71 B1  JSR  $B171
 9A58  64 16     STZ  $16
 9A5A  64 17     STZ  $17
 9A5C  60        RTS  
 9A5D  20 1C B2  JSR  $B21C
 9A60  B5 01     LDA  $01, X
 9A62  30 04     BMI  $9A68
 9A64  E8        INX  
 9A65  E8        INX  
 9A66  80 09     BRA  $9A71
 9A68  A9 2D     LDA  #$2D
 9A6A  95 00     STA  $00, X
 9A6C  74 01     STZ  $01, X
 9A6E  20 7D 8E  JSR  $8E7D
 9A71  60        RTS  
 9A72  A9 00     LDA  #$00
 9A74  48        PHA  
 9A75  80 03     BRA  $9A7A
 9A77  A9 FF     LDA  #$FF
 9A79  48        PHA  
 9A7A  20 84 9D  JSR  $9D84
 9A7D  20 4D 99  JSR  $994D
 9A80  20 1D 96  JSR  $961D
 9A83  20 4B 9B  JSR  $9B4B
 9A86  68        PLA  
 9A87  D0 05     BNE  $9A8E
 9A89  20 1A 9C  JSR  $9C1A
 9A8C  E8        INX  
 9A8D  E8        INX  
 9A8E  60        RTS  
 9A8F  20 26 B2  JSR  $B226
 9A92  18        CLC  
 9A93  B5 00     LDA  $00, X
 9A95  75 04     ADC  $04, X
 9A97  95 04     STA  $04, X
 9A99  B5 01     LDA  $01, X
 9A9B  75 05     ADC  $05, X
 9A9D  95 05     STA  $05, X
 9A9F  38        SEC  
 9AA0  B5 02     LDA  $02, X
 9AA2  F5 00     SBC  $00, X
 9AA4  95 02     STA  $02, X
 9AA6  B5 03     LDA  $03, X
 9AA8  F5 01     SBC  $01, X
 9AAA  95 03     STA  $03, X
 9AAC  E8        INX  
 9AAD  E8        INX  
 9AAE  60        RTS  
 9AAF  20 21 B2  JSR  $B221
 9AB2  A9 4C     LDA  #$4C
 9AB4  20 CF B0  JSR  $B0CF
 9AB7  20 CF B0  JSR  $B0CF
 9ABA  20 CF B0  JSR  $B0CF
 9ABD  8A        TXA  
 9ABE  38        SEC  
 9ABF  E9 06     SBC  #$06
 9AC1  AA        TAX  
 9AC2  B5 08     LDA  $08, X
 9AC4  95 04     STA  $04, X
 9AC6  B5 09     LDA  $09, X
 9AC8  95 05     STA  $05, X
 9ACA  B5 06     LDA  $06, X
 9ACC  95 00     STA  $00, X
 9ACE  B5 07     LDA  $07, X
 9AD0  95 01     STA  $01, X
 9AD2  A5 00     LDA  $00
 9AD4  95 08     STA  $08, X
 9AD6  95 02     STA  $02, X
 9AD8  A5 01     LDA  $01
 9ADA  95 09     STA  $09, X
 9ADC  95 03     STA  $03, X
 9ADE  20 17 92  JSR  $9217
 9AE1  18        CLC  
 9AE2  A5 00     LDA  $00
 9AE4  75 00     ADC  $00, X
 9AE6  85 00     STA  $00
 9AE8  A5 01     LDA  $01
 9AEA  75 01     ADC  $01, X
 9AEC  85 01     STA  $01
 9AEE  B5 02     LDA  $02, X
 9AF0  38        SEC  
 9AF1  E9 02     SBC  #$02
 9AF3  85 24     STA  $24
 9AF5  B5 03     LDA  $03, X
 9AF7  E9 00     SBC  #$00
 9AF9  85 25     STA  $25
 9AFB  A5 00     LDA  $00
 9AFD  92 24     STA  ($24)
 9AFF  A0 01     LDY  #$01
 9B01  A5 01     LDA  $01
 9B03  91 24     STA  ($24), Y
 9B05  A0 9B     LDY  #$9B
 9B07  A9 1F     LDA  #$1F
 9B09  20 BF B0  JSR  $B0BF
 9B0C  B4 03     LDY  $03, X
 9B0E  B5 02     LDA  $02, X
 9B10  20 CB B0  JSR  $B0CB
 9B13  B4 01     LDY  $01, X
 9B15  B5 00     LDA  $00, X
 9B17  20 CB B0  JSR  $B0CB
 9B1A  E8        INX  
 9B1B  E8        INX  
 9B1C  E8        INX  
 9B1D  E8        INX  
 9B1E  60        RTS  
 9B1F  CA        DEX  
 9B20  CA        DEX  
 9B21  CA        DEX  
 9B22  CA        DEX  
 9B23  68        PLA  
 9B24  85 24     STA  $24
 9B26  68        PLA  
 9B27  85 25     STA  $25
 9B29  A0 01     LDY  #$01
 9B2B  B1 24     LDA  ($24), Y
 9B2D  95 02     STA  $02, X
 9B2F  C8        INY  
 9B30  B1 24     LDA  ($24), Y
 9B32  95 03     STA  $03, X
 9B34  C8        INY  
 9B35  B1 24     LDA  ($24), Y
 9B37  95 00     STA  $00, X
 9B39  C8        INY  
 9B3A  B1 24     LDA  ($24), Y
 9B3C  95 01     STA  $01, X
 9B3E  18        CLC  
 9B3F  A5 24     LDA  $24
 9B41  69 04     ADC  #$04
 9B43  A8        TAY  
 9B44  A5 25     LDA  $25
 9B46  69 00     ADC  #$00
 9B48  48        PHA  
 9B49  5A        PHY  
 9B4A  60        RTS  
 9B4B  20 26 B2  JSR  $B226
 9B4E  B5 03     LDA  $03, X
 9B50  48        PHA  
 9B51  B5 01     LDA  $01, X
 9B53  55 03     EOR  $03, X
 9B55  48        PHA  
 9B56  20 39 81  JSR  $8139
 9B59  E8        INX  
 9B5A  E8        INX  
 9B5B  20 3A 88  JSR  $883A
 9B5E  CA        DEX  
 9B5F  CA        DEX  
 9B60  20 CE 9F  JSR  $9FCE
 9B63  68        PLA  
 9B64  10 03     BPL  $9B69
 9B66  20 78 92  JSR  $9278
 9B69  68        PLA  
 9B6A  10 07     BPL  $9B73
 9B6C  E8        INX  
 9B6D  E8        INX  
 9B6E  20 78 92  JSR  $9278
 9B71  CA        DEX  
 9B72  CA        DEX  
 9B73  60        RTS  
 9B74  CA        DEX  
 9B75  CA        DEX  
 9B76  A5 08     LDA  $08
 9B78  95 00     STA  $00, X
 9B7A  A5 09     LDA  $09
 9B7C  95 01     STA  $01, X
 9B7E  CA        DEX  
 9B7F  CA        DEX  
 9B80  A5 0A     LDA  $0A
 9B82  95 00     STA  $00, X
 9B84  A5 0B     LDA  $0B
 9B86  95 01     STA  $01, X
 9B88  60        RTS  
 9B89  CA        DEX  
 9B8A  CA        DEX  
 9B8B  A5 06     LDA  $06
 9B8D  95 00     STA  $00, X
 9B8F  A5 07     LDA  $07
 9B91  95 01     STA  $01, X
 9B93  60        RTS  
 9B94  A9 20     LDA  #$20
 9B96  20 96 8B  JSR  $8B96
 9B99  60        RTS  
 9B9A  20 1C B2  JSR  $B21C
 9B9D  B5 00     LDA  $00, X
 9B9F  15 01     ORA  $01, X
 9BA1  F0 26     BEQ  $9BC9
 9BA3  A9 20     LDA  #$20
 9BA5  B4 01     LDY  $01, X
 9BA7  D0 0A     BNE  $9BB3
 9BA9  B4 00     LDY  $00, X
 9BAB  20 96 8B  JSR  $8B96
 9BAE  88        DEY  
 9BAF  F0 18     BEQ  $9BC9
 9BB1  80 F8     BRA  $9BAB
 9BB3  B4 00     LDY  $00, X
 9BB5  F0 06     BEQ  $9BBD
 9BB7  20 96 8B  JSR  $8B96
 9BBA  88        DEY  
 9BBB  80 F8     BRA  $9BB5
 9BBD  A0 00     LDY  #$00
 9BBF  20 96 8B  JSR  $8B96
 9BC2  88        DEY  
 9BC3  D0 FA     BNE  $9BBF
 9BC5  D6 01     DEC  $01, X
 9BC7  D0 F4     BNE  $9BBD
 9BC9  E8        INX  
 9BCA  E8        INX  
 9BCB  60        RTS  
 9BCC  20 21 B2  JSR  $B221
 9BCF  20 10 A0  JSR  $A010
 9BD2  E8        INX  
 9BD3  E8        INX  
 9BD4  60        RTS  
 9BD5  20 DE 9B  JSR  $9BDE
 9BD8  20 1A 9C  JSR  $9C1A
 9BDB  E8        INX  
 9BDC  E8        INX  
 9BDD  60        RTS  
 9BDE  20 26 B2  JSR  $B226
 9BE1  20 84 9D  JSR  $9D84
 9BE4  20 E3 90  JSR  $90E3
 9BE7  20 1D 96  JSR  $961D
 9BEA  20 4B 9B  JSR  $9B4B
 9BED  60        RTS  
 9BEE  CA        DEX  
 9BEF  CA        DEX  
 9BF0  A9 16     LDA  #$16
 9BF2  95 00     STA  $00, X
 9BF4  A9 00     LDA  #$00
 9BF6  95 01     STA  $01, X
 9BF8  60        RTS  
 9BF9  20 21 B2  JSR  $B221
 9BFC  B5 02     LDA  $02, X
 9BFE  81 00     STA  ($00, X)
 9C00  F6 00     INC  $00, X
 9C02  D0 02     BNE  $9C06
 9C04  F6 01     INC  $01, X
 9C06  B5 03     LDA  $03, X
 9C08  81 00     STA  ($00, X)
 9C0A  E8        INX  
 9C0B  E8        INX  
 9C0C  E8        INX  
 9C0D  E8        INX  
 9C0E  60        RTS  
 9C0F  CA        DEX  
 9C10  CA        DEX  
 9C11  A9 1C     LDA  #$1C
 9C13  95 00     STA  $00, X
 9C15  A9 00     LDA  #$00
 9C17  95 01     STA  $01, X
 9C19  60        RTS  
 9C1A  20 21 B2  JSR  $B221
 9C1D  B5 00     LDA  $00, X
 9C1F  B4 02     LDY  $02, X
 9C21  95 02     STA  $02, X
 9C23  94 00     STY  $00, X
 9C25  B5 01     LDA  $01, X
 9C27  B4 03     LDY  $03, X
 9C29  95 03     STA  $03, X
 9C2B  94 01     STY  $01, X
 9C2D  60        RTS  
 9C2E  20 18 8E  JSR  $8E18
 9C31  20 1A 9C  JSR  $9C1A
 9C34  20 F9 9B  JSR  $9BF9
 9C37  60        RTS  
 9C38  20 77 94  JSR  $9477
 9C3B  B5 00     LDA  $00, X
 9C3D  15 01     ORA  $01, X
 9C3F  D0 05     BNE  $9C46
 9C41  A9 05     LDA  #$05
 9C43  4C 32 B2  JMP  $B232
 9C46  20 BB 8C  JSR  $8CBB
 9C49  B5 00     LDA  $00, X
 9C4B  15 01     ORA  $01, X
 9C4D  D0 05     BNE  $9C54
 9C4F  A9 08     LDA  #$08
 9C51  4C 32 B2  JMP  $B232
 9C54  20 36 92  JSR  $9236
 9C57  60        RTS  
 9C58  20 38 9C  JSR  $9C38
 9C5B  B5 00     LDA  $00, X
 9C5D  18        CLC  
 9C5E  69 03     ADC  #$03
 9C60  85 24     STA  $24
 9C62  B5 01     LDA  $01, X
 9C64  69 00     ADC  #$00
 9C66  85 25     STA  $25
 9C68  E8        INX  
 9C69  E8        INX  
 9C6A  A5 16     LDA  $16
 9C6C  05 17     ORA  $17
 9C6E  F0 34     BEQ  $9CA4
 9C70  A0 00     LDY  #$00
 9C72  A9 B5     LDA  #$B5
 9C74  20 CB B0  JSR  $B0CB
 9C77  A9 8D     LDA  #$8D
 9C79  20 CF B0  JSR  $B0CF
 9C7C  A4 25     LDY  $25
 9C7E  A5 24     LDA  $24
 9C80  20 CB B0  JSR  $B0CB
 9C83  A0 01     LDY  #$01
 9C85  A9 B5     LDA  #$B5
 9C87  20 CB B0  JSR  $B0CB
 9C8A  A9 8D     LDA  #$8D
 9C8C  20 CF B0  JSR  $B0CF
 9C8F  E6 24     INC  $24
 9C91  D0 02     BNE  $9C95
 9C93  E6 25     INC  $25
 9C95  A4 25     LDY  $25
 9C97  A5 24     LDA  $24
 9C99  20 CB B0  JSR  $B0CB
 9C9C  A0 E8     LDY  #$E8
 9C9E  98        TYA  
 9C9F  20 CB B0  JSR  $B0CB
 9CA2  80 0F     BRA  $9CB3
 9CA4  20 1C B2  JSR  $B21C
 9CA7  B5 00     LDA  $00, X
 9CA9  92 24     STA  ($24)
 9CAB  A0 01     LDY  #$01
 9CAD  B5 01     LDA  $01, X
 9CAF  91 24     STA  ($24), Y
 9CB1  E8        INX  
 9CB2  E8        INX  
 9CB3  60        RTS  
 9CB4  20 1C B2  JSR  $B21C
 9CB7  20 53 8B  JSR  $8B53
 9CBA  20 1E 8F  JSR  $8F1E
 9CBD  F6 00     INC  $00, X
 9CBF  D0 02     BNE  $9CC3
 9CC1  F6 01     INC  $01, X
 9CC3  A1 00     LDA  ($00, X)
 9CC5  29 20     AND  #$20
 9CC7  F0 0D     BEQ  $9CD6
 9CC9  18        CLC  
 9CCA  B5 02     LDA  $02, X
 9CCC  69 03     ADC  #$03
 9CCE  95 02     STA  $02, X
 9CD0  B5 03     LDA  $03, X
 9CD2  69 00     ADC  #$00
 9CD4  95 03     STA  $03, X
 9CD6  E8        INX  
 9CD7  E8        INX  
 9CD8  60        RTS  
 9CD9  CA        DEX  
 9CDA  CA        DEX  
 9CDB  A9 0C     LDA  #$0C
 9CDD  95 00     STA  $00, X
 9CDF  A9 00     LDA  #$00
 9CE1  95 01     STA  $01, X
 9CE3  60        RTS  
 9CE4  20 2B B2  JSR  $B22B
 9CE7  B5 06     LDA  $06, X
 9CE9  85 36     STA  $36
 9CEB  B5 07     LDA  $07, X
 9CED  85 37     STA  $37
 9CEF  B5 04     LDA  $04, X
 9CF1  85 38     STA  $38
 9CF3  B5 05     LDA  $05, X
 9CF5  85 39     STA  $39
 9CF7  CA        DEX  
 9CF8  CA        DEX  
 9CF9  A1 04     LDA  ($04, X)
 9CFB  95 00     STA  $00, X
 9CFD  74 01     STZ  $01, X
 9CFF  20 B0 88  JSR  $88B0
 9D02  B5 00     LDA  $00, X
 9D04  D0 04     BNE  $9D0A
 9D06  E8        INX  
 9D07  E8        INX  
 9D08  80 67     BRA  $9D71
 9D0A  B5 02     LDA  $02, X
 9D0C  85 3A     STA  $3A
 9D0E  B5 03     LDA  $03, X
 9D10  85 3B     STA  $3B
 9D12  A5 38     LDA  $38
 9D14  95 02     STA  $02, X
 9D16  A5 39     LDA  $39
 9D18  95 03     STA  $03, X
 9D1A  A5 18     LDA  $18
 9D1C  95 00     STA  $00, X
 9D1E  74 01     STZ  $01, X
 9D20  20 10 A0  JSR  $A010
 9D23  B5 02     LDA  $02, X
 9D25  85 3C     STA  $3C
 9D27  B5 03     LDA  $03, X
 9D29  85 3D     STA  $3D
 9D2B  A5 36     LDA  $36
 9D2D  95 02     STA  $02, X
 9D2F  A5 37     LDA  $37
 9D31  95 03     STA  $03, X
 9D33  A5 18     LDA  $18
 9D35  95 00     STA  $00, X
 9D37  74 01     STZ  $01, X
 9D39  20 10 A0  JSR  $A010
 9D3C  B5 00     LDA  $00, X
 9D3E  85 38     STA  $38
 9D40  B5 01     LDA  $01, X
 9D42  85 39     STA  $39
 9D44  B5 02     LDA  $02, X
 9D46  85 36     STA  $36
 9D48  B5 03     LDA  $03, X
 9D4A  85 37     STA  $37
 9D4C  18        CLC  
 9D4D  A5 36     LDA  $36
 9D4F  65 3A     ADC  $3A
 9D51  85 36     STA  $36
 9D53  A5 37     LDA  $37
 9D55  65 3B     ADC  $3B
 9D57  85 37     STA  $37
 9D59  A5 38     LDA  $38
 9D5B  65 3C     ADC  $3C
 9D5D  85 38     STA  $38
 9D5F  A5 39     LDA  $39
 9D61  65 3D     ADC  $3D
 9D63  85 39     STA  $39
 9D65  E8        INX  
 9D66  E8        INX  
 9D67  F6 04     INC  $04, X
 9D69  D0 02     BNE  $9D6D
 9D6B  F6 05     INC  $05, X
 9D6D  D6 02     DEC  $02, X
 9D6F  D0 88     BNE  $9CF9
 9D71  E8        INX  
 9D72  E8        INX  
 9D73  A5 36     LDA  $36
 9D75  95 06     STA  $06, X
 9D77  A5 37     LDA  $37
 9D79  95 07     STA  $07, X
 9D7B  A5 38     LDA  $38
 9D7D  95 04     STA  $04, X
 9D7F  A5 39     LDA  $39
 9D81  95 05     STA  $05, X
 9D83  60        RTS  
 9D84  68        PLA  
 9D85  85 2C     STA  $2C
 9D87  7A        PLY  
 9D88  20 1C B2  JSR  $B21C
 9D8B  B5 01     LDA  $01, X
 9D8D  48        PHA  
 9D8E  B5 00     LDA  $00, X
 9D90  48        PHA  
 9D91  E8        INX  
 9D92  E8        INX  
 9D93  5A        PHY  
 9D94  A5 2C     LDA  $2C
 9D96  48        PHA  
 9D97  60        RTS  
 9D98  CA        DEX  
 9D99  CA        DEX  
 9D9A  A9 FF     LDA  #$FF
 9D9C  95 00     STA  $00, X
 9D9E  95 01     STA  $01, X
 9DA0  60        RTS  
 9DA1  20 21 B2  JSR  $B221
 9DA4  CA        DEX  
 9DA5  CA        DEX  
 9DA6  B4 04     LDY  $04, X
 9DA8  B5 02     LDA  $02, X
 9DAA  95 04     STA  $04, X
 9DAC  94 02     STY  $02, X
 9DAE  95 00     STA  $00, X
 9DB0  B4 05     LDY  $05, X
 9DB2  B5 03     LDA  $03, X
 9DB4  95 05     STA  $05, X
 9DB6  94 03     STY  $03, X
 9DB8  95 01     STA  $01, X
 9DBA  60        RTS  
 9DBB  CA        DEX  
 9DBC  CA        DEX  
 9DBD  A9 02     LDA  #$02
 9DBF  95 00     STA  $00, X
 9DC1  74 01     STZ  $01, X
 9DC3  60        RTS  
 9DC4  20 21 B2  JSR  $B221
 9DC7  E8        INX  
 9DC8  E8        INX  
 9DC9  E8        INX  
 9DCA  E8        INX  
 9DCB  60        RTS  
 9DCC  20 21 B2  JSR  $B221
 9DCF  CA        DEX  
 9DD0  CA        DEX  
 9DD1  CA        DEX  
 9DD2  CA        DEX  
 9DD3  B5 04     LDA  $04, X
 9DD5  95 00     STA  $00, X
 9DD7  B5 05     LDA  $05, X
 9DD9  95 01     STA  $01, X
 9DDB  B5 06     LDA  $06, X
 9DDD  95 02     STA  $02, X
 9DDF  B5 07     LDA  $07, X
 9DE1  95 03     STA  $03, X
 9DE3  60        RTS  
 9DE4  20 1C B2  JSR  $B21C
 9DE7  B5 00     LDA  $00, X
 9DE9  85 24     STA  $24
 9DEB  B4 01     LDY  $01, X
 9DED  84 25     STY  $25
 9DEF  CA        DEX  
 9DF0  CA        DEX  
 9DF1  B2 24     LDA  ($24)
 9DF3  95 00     STA  $00, X
 9DF5  A0 01     LDY  #$01
 9DF7  B1 24     LDA  ($24), Y
 9DF9  95 01     STA  $01, X
 9DFB  C8        INY  
 9DFC  B1 24     LDA  ($24), Y
 9DFE  95 02     STA  $02, X
 9E00  C8        INY  
 9E01  B1 24     LDA  ($24), Y
 9E03  95 03     STA  $03, X
 9E05  60        RTS  
 9E06  20 2B B2  JSR  $B22B
 9E09  CA        DEX  
 9E0A  CA        DEX  
 9E0B  CA        DEX  
 9E0C  CA        DEX  
 9E0D  B5 08     LDA  $08, X
 9E0F  95 00     STA  $00, X
 9E11  B5 09     LDA  $09, X
 9E13  95 01     STA  $01, X
 9E15  B5 0A     LDA  $0A, X
 9E17  95 02     STA  $02, X
 9E19  B5 0B     LDA  $0B, X
 9E1B  95 03     STA  $03, X
 9E1D  60        RTS  
 9E1E  CA        DEX  
 9E1F  CA        DEX  
 9E20  CA        DEX  
 9E21  CA        DEX  
 9E22  8A        TXA  
 9E23  BA        TSX  
 9E24  DA        PHX  
 9E25  7A        PLY  
 9E26  AA        TAX  
 9E27  B9 03 01  LDA  $0103, Y
 9E2A  95 00     STA  $00, X
 9E2C  B9 04 01  LDA  $0104, Y
 9E2F  95 01     STA  $01, X
 9E31  B9 05 01  LDA  $0105, Y
 9E34  95 02     STA  $02, X
 9E36  B9 06 01  LDA  $0106, Y
 9E39  95 03     STA  $03, X
 9E3B  60        RTS  
 9E3C  68        PLA  
 9E3D  85 24     STA  $24
 9E3F  68        PLA  
 9E40  85 25     STA  $25
 9E42  CA        DEX  
 9E43  CA        DEX  
 9E44  CA        DEX  
 9E45  CA        DEX  
 9E46  68        PLA  
 9E47  95 00     STA  $00, X
 9E49  68        PLA  
 9E4A  95 01     STA  $01, X
 9E4C  68        PLA  
 9E4D  95 02     STA  $02, X
 9E4F  68        PLA  
 9E50  95 03     STA  $03, X
 9E52  A5 25     LDA  $25
 9E54  48        PHA  
 9E55  A5 24     LDA  $24
 9E57  48        PHA  
 9E58  60        RTS  
 9E59  20 1C B2  JSR  $B21C
 9E5C  B5 01     LDA  $01, X
 9E5E  0A        ASL  
 9E5F  76 01     ROR  $01, X
 9E61  76 00     ROR  $00, X
 9E63  60        RTS  
 9E64  20 1C B2  JSR  $B21C
 9E67  16 00     ASL  $00, X
 9E69  36 01     ROL  $01, X
 9E6B  60        RTS  
 9E6C  20 26 B2  JSR  $B226
 9E6F  B5 00     LDA  $00, X
 9E71  85 24     STA  $24
 9E73  B4 01     LDY  $01, X
 9E75  84 25     STY  $25
 9E77  E8        INX  
 9E78  E8        INX  
 9E79  B5 00     LDA  $00, X
 9E7B  92 24     STA  ($24)
 9E7D  B5 01     LDA  $01, X
 9E7F  A0 01     LDY  #$01
 9E81  91 24     STA  ($24), Y
 9E83  B5 02     LDA  $02, X
 9E85  C8        INY  
 9E86  91 24     STA  ($24), Y
 9E88  B5 03     LDA  $03, X
 9E8A  C8        INY  
 9E8B  91 24     STA  ($24), Y
 9E8D  E8        INX  
 9E8E  E8        INX  
 9E8F  E8        INX  
 9E90  E8        INX  
 9E91  60        RTS  
 9E92  20 2B B2  JSR  $B22B
 9E95  B5 00     LDA  $00, X
 9E97  B4 04     LDY  $04, X
 9E99  95 04     STA  $04, X
 9E9B  94 00     STY  $00, X
 9E9D  B5 01     LDA  $01, X
 9E9F  B4 05     LDY  $05, X
 9EA1  95 05     STA  $05, X
 9EA3  94 01     STY  $01, X
 9EA5  B5 02     LDA  $02, X
 9EA7  B4 06     LDY  $06, X
 9EA9  95 06     STA  $06, X
 9EAB  94 02     STY  $02, X
 9EAD  B5 03     LDA  $03, X
 9EAF  B4 07     LDY  $07, X
 9EB1  95 07     STA  $07, X
 9EB3  94 03     STY  $03, X
 9EB5  60        RTS  
 9EB6  68        PLA  
 9EB7  85 24     STA  $24
 9EB9  68        PLA  
 9EBA  85 25     STA  $25
 9EBC  20 21 B2  JSR  $B221
 9EBF  B5 03     LDA  $03, X
 9EC1  48        PHA  
 9EC2  B5 02     LDA  $02, X
 9EC4  48        PHA  
 9EC5  B5 01     LDA  $01, X
 9EC7  48        PHA  
 9EC8  B5 00     LDA  $00, X
 9ECA  48        PHA  
 9ECB  E8        INX  
 9ECC  E8        INX  
 9ECD  E8        INX  
 9ECE  E8        INX  
 9ECF  A5 25     LDA  $25
 9ED1  48        PHA  
 9ED2  A5 24     LDA  $24
 9ED4  48        PHA  
 9ED5  60        RTS  
 9ED6  20 21 B2  JSR  $B221
 9ED9  20 1D 87  JSR  $871D
 9EDC  20 1A 9C  JSR  $9C1A
 9EDF  20 22 85  JSR  $8522
 9EE2  20 22 85  JSR  $8522
 9EE5  20 A8 89  JSR  $89A8
 9EE8  20 05 B1  JSR  $B105
 9EEB  20 53 8B  JSR  $8B53
 9EEE  20 60 8C  JSR  $8C60
 9EF1  20 1A 9C  JSR  $9C1A
 9EF4  20 D5 83  JSR  $83D5
 9EF7  20 60 8C  JSR  $8C60
 9EFA  60        RTS  
 9EFB  20 21 B2  JSR  $B221
 9EFE  20 1A 9C  JSR  $9C1A
 9F01  20 23 90  JSR  $9023
 9F04  20 23 90  JSR  $9023
 9F07  60        RTS  
 9F08  20 1D 87  JSR  $871D
 9F0B  CA        DEX  
 9F0C  CA        DEX  
 9F0D  A9 04     LDA  #$04
 9F0F  95 00     STA  $00, X
 9F11  74 01     STZ  $01, X
 9F13  20 AB 82  JSR  $82AB
 9F16  60        RTS  
 9F17  20 21 B2  JSR  $B221
 9F1A  B5 02     LDA  $02, X
 9F1C  85 24     STA  $24
 9F1E  B5 03     LDA  $03, X
 9F20  85 25     STA  $25
 9F22  B5 00     LDA  $00, X
 9F24  15 01     ORA  $01, X
 9F26  F0 15     BEQ  $9F3D
 9F28  B2 24     LDA  ($24)
 9F2A  20 96 8B  JSR  $8B96
 9F2D  E6 24     INC  $24
 9F2F  D0 02     BNE  $9F33
 9F31  E6 25     INC  $25
 9F33  B5 00     LDA  $00, X
 9F35  D0 02     BNE  $9F39
 9F37  D6 01     DEC  $01, X
 9F39  D6 00     DEC  $00, X
 9F3B  80 E5     BRA  $9F22
 9F3D  E8        INX  
 9F3E  E8        INX  
 9F3F  E8        INX  
 9F40  E8        INX  
 9F41  60        RTS  
 9F42  20 1C B2  JSR  $B21C
 9F45  20 68 B2  JSR  $B268
 9F48  A9 20     LDA  #$20
 9F4A  20 96 8B  JSR  $8B96
 9F4D  60        RTS  
 9F4E  20 21 B2  JSR  $B221
 9F51  20 84 9D  JSR  $9D84
 9F54  20 B2 A1  JSR  $A1B2
 9F57  20 00 90  JSR  $9000
 9F5A  20 C5 93  JSR  $93C5
 9F5D  20 A3 93  JSR  $93A3
 9F60  20 1D 96  JSR  $961D
 9F63  20 2B 94  JSR  $942B
 9F66  20 A5 91  JSR  $91A5
 9F69  20 9A 9B  JSR  $9B9A
 9F6C  20 17 9F  JSR  $9F17
 9F6F  60        RTS  
 9F70  20 21 B2  JSR  $B221
 9F73  B5 00     LDA  $00, X
 9F75  D5 02     CMP  $02, X
 9F77  B5 01     LDA  $01, X
 9F79  F5 03     SBC  $03, X
 9F7B  E8        INX  
 9F7C  E8        INX  
 9F7D  A9 00     LDA  #$00
 9F7F  69 FF     ADC  #$FF
 9F81  95 00     STA  $00, X
 9F83  95 01     STA  $01, X
 9F85  60        RTS  
 9F86  20 21 B2  JSR  $B221
 9F89  B5 02     LDA  $02, X
 9F8B  D5 00     CMP  $00, X
 9F8D  B5 03     LDA  $03, X
 9F8F  F5 01     SBC  $01, X
 9F91  E8        INX  
 9F92  E8        INX  
 9F93  A9 00     LDA  #$00
 9F95  69 FF     ADC  #$FF
 9F97  95 00     STA  $00, X
 9F99  95 01     STA  $01, X
 9F9B  60        RTS  
 9F9C  20 21 B2  JSR  $B221
 9F9F  20 00 90  JSR  $9000
 9FA2  20 C5 93  JSR  $93C5
 9FA5  20 A3 93  JSR  $93A3
 9FA8  20 17 9F  JSR  $9F17
 9FAB  20 94 9B  JSR  $9B94
 9FAE  60        RTS  
 9FAF  20 26 B2  JSR  $B226
 9FB2  20 84 9D  JSR  $9D84
 9FB5  20 00 90  JSR  $9000
 9FB8  20 C5 93  JSR  $93C5
 9FBB  20 A3 93  JSR  $93A3
 9FBE  20 1D 96  JSR  $961D
 9FC1  20 2B 94  JSR  $942B
 9FC4  20 A5 91  JSR  $91A5
 9FC7  20 9A 9B  JSR  $9B9A
 9FCA  20 17 9F  JSR  $9F17
 9FCD  60        RTS  
 9FCE  20 26 B2  JSR  $B226
 9FD1  B5 00     LDA  $00, X
 9FD3  15 01     ORA  $01, X
 9FD5  D0 05     BNE  $9FDC
 9FD7  A9 04     LDA  #$04
 9FD9  4C 32 B2  JMP  $B232
 9FDC  A9 11     LDA  #$11
 9FDE  85 2C     STA  $2C
 9FE0  36 04     ROL  $04, X
 9FE2  36 05     ROL  $05, X
 9FE4  C6 2C     DEC  $2C
 9FE6  F0 22     BEQ  $A00A
 9FE8  36 02     ROL  $02, X
 9FEA  36 03     ROL  $03, X
 9FEC  64 24     STZ  $24
 9FEE  26 24     ROL  $24
 9FF0  38        SEC  
 9FF1  B5 02     LDA  $02, X
 9FF3  F5 00     SBC  $00, X
 9FF5  85 25     STA  $25
 9FF7  B5 03     LDA  $03, X
 9FF9  F5 01     SBC  $01, X
 9FFB  A8        TAY  
 9FFC  A5 24     LDA  $24
 9FFE  E9 00     SBC  #$00
 A000  90 DE     BCC  $9FE0
 A002  A5 25     LDA  $25
 A004  95 02     STA  $02, X
 A006  94 03     STY  $03, X
 A008  80 D6     BRA  $9FE0
 A00A  E8        INX  
 A00B  E8        INX  
 A00C  20 1A 9C  JSR  $9C1A
 A00F  60        RTS  
 A010  20 21 B2  JSR  $B221
 A013  18        CLC  
 A014  B5 00     LDA  $00, X
 A016  E9 00     SBC  #$00
 A018  85 26     STA  $26
 A01A  B5 01     LDA  $01, X
 A01C  E9 00     SBC  #$00
 A01E  90 31     BCC  $A051
 A020  85 27     STA  $27
 A022  A9 00     LDA  #$00
 A024  85 24     STA  $24
 A026  86 28     STX  $28
 A028  CA        DEX  
 A029  CA        DEX  
 A02A  A0 08     LDY  #$08
 A02C  56 04     LSR  $04, X
 A02E  90 0C     BCC  $A03C
 A030  85 25     STA  $25
 A032  A5 24     LDA  $24
 A034  65 26     ADC  $26
 A036  85 24     STA  $24
 A038  A5 25     LDA  $25
 A03A  65 27     ADC  $27
 A03C  6A        ROR  
 A03D  66 24     ROR  $24
 A03F  76 04     ROR  $04, X
 A041  88        DEY  
 A042  D0 EA     BNE  $A02E
 A044  E8        INX  
 A045  E4 28     CPX  $28
 A047  D0 E1     BNE  $A02A
 A049  95 01     STA  $01, X
 A04B  A5 24     LDA  $24
 A04D  95 00     STA  $00, X
 A04F  80 04     BRA  $A055
 A051  74 02     STZ  $02, X
 A053  74 03     STZ  $03, X
 A055  60        RTS  
 A056  68        PLA  
 A057  68        PLA  
 A058  68        PLA  
 A059  68        PLA  
 A05A  68        PLA  
 A05B  68        PLA  
 A05C  60        RTS  
 A05D  A0 8E     LDY  #$8E
 A05F  A9 BA     LDA  #$BA
 A061  20 BF B0  JSR  $B0BF
 A064  20 22 85  JSR  $8522
 A067  60        RTS  
 A068  CA        DEX  
 A069  CA        DEX  
 A06A  A9 00     LDA  #$00
 A06C  38        SEC  
 A06D  E5 00     SBC  $00
 A06F  95 00     STA  $00, X
 A071  A9 7C     LDA  #$7C
 A073  E5 01     SBC  $01
 A075  95 01     STA  $01, X
 A077  60        RTS  
 A078  CA        DEX  
 A079  CA        DEX  
 A07A  A9 1E     LDA  #$1E
 A07C  95 00     STA  $00, X
 A07E  A9 00     LDA  #$00
 A080  95 01     STA  $01, X
 A082  60        RTS  
 A083  20 1D 87  JSR  $871D
 A086  A9 00     LDA  #$00
 A088  92 00     STA  ($00)
 A08A  E6 00     INC  $00
 A08C  D0 02     BNE  $A090
 A08E  E6 01     INC  $01
 A090  92 00     STA  ($00)
 A092  E6 00     INC  $00
 A094  D0 02     BNE  $A098
 A096  E6 01     INC  $01
 A098  20 E5 86  JSR  $86E5
 A09B  60        RTS  
 A09C  A0 8E     LDY  #$8E
 A09E  A9 BA     LDA  #$BA
 A0A0  20 BF B0  JSR  $B0BF
 A0A3  20 18 8E  JSR  $8E18
 A0A6  20 B2 A1  JSR  $A1B2
 A0A9  20 22 85  JSR  $8522
 A0AC  20 1A 9C  JSR  $9C1A
 A0AF  60        RTS  
 A0B0  20 26 B2  JSR  $B226
 A0B3  20 2B 94  JSR  $942B
 A0B6  20 A5 91  JSR  $91A5
 A0B9  20 84 9D  JSR  $9D84
 A0BC  20 A5 91  JSR  $91A5
 A0BF  20 1D 96  JSR  $961D
 A0C2  20 86 9F  JSR  $9F86
 A0C5  60        RTS  
 A0C6  20 1C B2  JSR  $B21C
 A0C9  A4 0C     LDY  $0C
 A0CB  C4 0A     CPY  $0A
 A0CD  F0 09     BEQ  $A0D8
 A0CF  B1 08     LDA  ($08), Y
 A0D1  D5 00     CMP  $00, X
 A0D3  D0 03     BNE  $A0D8
 A0D5  C8        INY  
 A0D6  80 F3     BRA  $A0CB
 A0D8  84 0C     STY  $0C
 A0DA  20 D2 94  JSR  $94D2
 A0DD  B5 00     LDA  $00, X
 A0DF  92 00     STA  ($00)
 A0E1  48        PHA  
 A0E2  20 53 8B  JSR  $8B53
 A0E5  A5 00     LDA  $00
 A0E7  18        CLC  
 A0E8  69 01     ADC  #$01
 A0EA  95 02     STA  $02, X
 A0EC  A5 01     LDA  $01
 A0EE  69 00     ADC  #$00
 A0F0  95 03     STA  $03, X
 A0F2  20 17 92  JSR  $9217
 A0F5  CA        DEX  
 A0F6  CA        DEX  
 A0F7  A5 00     LDA  $00
 A0F9  95 00     STA  $00, X
 A0FB  A5 01     LDA  $01
 A0FD  95 01     STA  $01, X
 A0FF  68        PLA  
 A100  18        CLC  
 A101  65 00     ADC  $00
 A103  85 00     STA  $00
 A105  A5 01     LDA  $01
 A107  69 00     ADC  #$00
 A109  85 01     STA  $01
 A10B  60        RTS  
 A10C  A0 05     LDY  #$05
 A10E  B1 1E     LDA  ($1E), Y
 A110  C9 0C     CMP  #$0C
 A112  D0 05     BNE  $A119
 A114  A9 0B     LDA  #$0B
 A116  4C 32 B2  JMP  $B232
 A119  1A        INC  
 A11A  91 1E     STA  ($1E), Y
 A11C  CA        DEX  
 A11D  CA        DEX  
 A11E  95 00     STA  $00, X
 A120  74 01     STZ  $01, X
 A122  60        RTS  
 A123  20 17 87  JSR  $8717
 A126  A9 00     LDA  #$00
 A128  48        PHA  
 A129  CA        DEX  
 A12A  CA        DEX  
 A12B  64 28     STZ  $28
 A12D  A0 1E     LDY  #$1E
 A12F  A5 28     LDA  $28
 A131  D1 1E     CMP  ($1E), Y
 A133  D0 02     BNE  $A137
 A135  80 44     BRA  $A17B
 A137  18        CLC  
 A138  69 1F     ADC  #$1F
 A13A  A8        TAY  
 A13B  B1 1E     LDA  ($1E), Y
 A13D  0A        ASL  
 A13E  18        CLC  
 A13F  69 06     ADC  #$06
 A141  A8        TAY  
 A142  B1 1E     LDA  ($1E), Y
 A144  95 00     STA  $00, X
 A146  C8        INY  
 A147  B1 1E     LDA  ($1E), Y
 A149  95 01     STA  $01, X
 A14B  20 53 8B  JSR  $8B53
 A14E  20 53 92  JSR  $9253
 A151  68        PLA  
 A152  18        CLC  
 A153  75 00     ADC  $00, X
 A155  1A        INC  
 A156  C9 4F     CMP  #$4F
 A158  90 05     BCC  $A15F
 A15A  20 17 87  JSR  $8717
 A15D  A9 00     LDA  #$00
 A15F  48        PHA  
 A160  20 17 9F  JSR  $9F17
 A163  A9 20     LDA  #$20
 A165  20 96 8B  JSR  $8B96
 A168  20 04 94  JSR  $9404
 A16B  20 04 94  JSR  $9404
 A16E  20 60 8C  JSR  $8C60
 A171  B5 00     LDA  $00, X
 A173  15 01     ORA  $01, X
 A175  D0 D4     BNE  $A14B
 A177  E6 28     INC  $28
 A179  80 B2     BRA  $A12D
 A17B  68        PLA  
 A17C  E8        INX  
 A17D  E8        INX  
 A17E  60        RTS  
 A17F  20 1C B2  JSR  $B21C
 A182  B5 00     LDA  $00, X
 A184  85 24     STA  $24
 A186  B5 01     LDA  $01, X
 A188  85 25     STA  $25
 A18A  A0 06     LDY  #$06
 A18C  B1 24     LDA  ($24), Y
 A18E  88        DEY  
 A18F  88        DEY  
 A190  38        SEC  
 A191  F1 24     SBC  ($24), Y
 A193  95 00     STA  $00, X
 A195  A0 07     LDY  #$07
 A197  B1 24     LDA  ($24), Y
 A199  88        DEY  
 A19A  88        DEY  
 A19B  F1 24     SBC  ($24), Y
 A19D  95 01     STA  $01, X
 A19F  60        RTS  
 A1A0  20 21 B2  JSR  $B221
 A1A3  B5 00     LDA  $00, X
 A1A5  55 02     EOR  $02, X
 A1A7  95 02     STA  $02, X
 A1A9  B5 01     LDA  $01, X
 A1AB  55 03     EOR  $03, X
 A1AD  95 03     STA  $03, X
 A1AF  E8        INX  
 A1B0  E8        INX  
 A1B1  60        RTS  
 A1B2  CA        DEX  
 A1B3  CA        DEX  
 A1B4  74 00     STZ  $00, X
 A1B6  74 01     STZ  $01, X
 A1B8  60        RTS  
 A1B9  20 1C B2  JSR  $B21C
 A1BC  B5 00     LDA  $00, X
 A1BE  15 01     ORA  $01, X
 A1C0  F0 04     BEQ  $A1C6
 A1C2  A9 00     LDA  #$00
 A1C4  80 02     BRA  $A1C8
 A1C6  A9 FF     LDA  #$FF
 A1C8  95 00     STA  $00, X
 A1CA  95 01     STA  $01, X
 A1CC  60        RTS  
 A1CD  20 1C B2  JSR  $B21C
 A1D0  A0 00     LDY  #$00
 A1D2  B5 01     LDA  $01, X
 A1D4  30 05     BMI  $A1DB
 A1D6  15 00     ORA  $00, X
 A1D8  F0 01     BEQ  $A1DB
 A1DA  88        DEY  
 A1DB  98        TYA  
 A1DC  95 00     STA  $00, X
 A1DE  95 01     STA  $01, X
 A1E0  60        RTS  
 A1E1  20 1C B2  JSR  $B21C
 A1E4  A0 00     LDY  #$00
 A1E6  B5 01     LDA  $01, X
 A1E8  10 01     BPL  $A1EB
 A1EA  88        DEY  
 A1EB  98        TYA  
 A1EC  95 00     STA  $00, X
 A1EE  95 01     STA  $01, X
 A1F0  60        RTS  
 A1F1  20 1C B2  JSR  $B21C
 A1F4  A0 00     LDY  #$00
 A1F6  B5 00     LDA  $00, X
 A1F8  15 01     ORA  $01, X
 A1FA  F0 01     BEQ  $A1FD
 A1FC  88        DEY  
 A1FD  98        TYA  
 A1FE  95 00     STA  $00, X
 A200  95 01     STA  $01, X
 A202  60        RTS  
 A203  20 63 72 20 2E 28 20 54 61 6C 69 20 46 6F 72 74  | cr .( Tali Fort|
 A213  68 20 32 20 66 6F 72 20 74 68 65 20 36 35 63 30  |h 2 for the 65c0|
 A223  32 29 20 63 72 20 2E 28 20 56 65 72 73 69 6F 6E  |2) cr .( Version|
 A233  20 31 2E 30 20 30 33 2E 20 4A 61 6E 20 32 30 31  | 1.0 03. Jan 201|
 A243  39 20 29 20 63 72 20 2E 28 20 43 6F 70 79 72 69  |9 ) cr .( Copyri|
 A253  67 68 74 20 32 30 31 34 2D 32 30 31 39 20 53 63  |ght 2014-2019 Sc|
 A263  6F 74 20 57 2E 20 53 74 65 76 65 6E 73 6F 6E 29  |ot W. Stevenson)|
 A273  20 63 72 20 2E 28 20 54 61 6C 69 20 46 6F 72 74  | cr .( Tali Fort|
 A283  68 20 32 20 63 6F 6D 65 73 20 77 69 74 68 20 61  |h 2 comes with a|
 A293  62 73 6F 6C 75 74 65 6C 79 20 4E 4F 20 57 41 52  |bsolutely NO WAR|
 A2A3  52 41 4E 54 59 29 20 63 72 20 2E 28 20 54 79 70  |RANTY) cr .( Typ|
 A2B3  65 20 27 62 79 65 27 20 74 6F 20 65 78 69 74 29  |e 'bye' to exit)|
 A2C3  20 63 72 20 20 20 03 00 00 00 B1 83 B4 83 62 79  | cr   ........by|
 A2D3  65 04 00 C9 A2 00 80 C5 80 63 6F 6C 64 03 08 D4  |e........cold...|
 A2E3  A2 22 97 AF 97 73 65 65 0E 00 E0 A2 B2 A1 B8 A1  |."...see........|
 A2F3  66 6F 72 74 68 2D 77 6F 72 64 6C 69 73 74 09 00  |forth-wordlist..|
 A303  EB A2 BC 97 EF 97 73 65 74 2D 6F 72 64 65 72 0B  |......set-order.|
 A313  00 01 A3 F8 8D 02 8E 67 65 74 2D 63 75 72 72 65  |.......get-curre|
 A323  6E 74 0B 10 12 A3 B0 97 BB 97 73 65 74 2D 63 75  |nt........set-cu|
 A333  72 72 65 6E 74 08 00 25 A3 0C A1 22 A1 77 6F 72  |rrent..%...".wor|
 A343  64 6C 69 73 74 07 00 38 A3 AA 83 B0 83 62 75 66  |dlist..8.....buf|
 A353  66 65 72 3A 08 00 48 A3 78 A0 82 A0 75 73 65 72  |fer:..H.x...user|
 A363  61 64 64 72 09 04 57 A3 70 82 88 82 61 63 74 69  |addr..W.p...acti|
 A373  6F 6E 2D 6F 66 02 04 67 A3 A1 8F B9 8F 69 73 06  |on-of..g.....is.|
 A383  00 78 A3 9A 88 A0 88 64 65 66 65 72 21 06 00 82  |.x.....defer!...|
 A393  A3 93 88 99 88 64 65 66 65 72 40 07 0D 90 A3 99  |.....defer@.....|
 A3A3  8B AD 8B 65 6E 64 63 61 73 65 05 0D 9E A3 61 8B  |...endcase....a.|
 A3B3  7A 8B 65 6E 64 6F 66 02 0D AD A3 D6 93 EE 93 6F  |z.endof........o|
 A3C3  66 04 0D BA A3 B2 A1 B8 A1 63 61 73 65 05 0D C4  |f........case...|
 A3D3  A3 9C A0 AF A0 77 68 69 6C 65 05 0D D0 A3 5D A0  |.....while....].|
 A3E3  67 A0 75 6E 74 69 6C 06 0D DD A3 C5 96 D1 96 72  |g.until........r|
 A3F3  65 70 65 61 74 04 0D EA A3 61 8B 7A 8B 65 6C 73  |epeat....a.z.els|
 A403  65 04 0D F8 A3 2E 9C 37 9C 74 68 65 6E 02 0D 04  |e......7.then...|
 A413  A4 A9 8E B9 8E 69 66 02 04 10 A4 FC 89 0A 8A 2E  |.....if.........|
 A423  28 01 04 1A A4 67 94 76 94 28 04 10 24 A4 C6 A0  |(....g.v.(..$...|
 A433  0B A1 77 6F 72 64 04 10 2D A4 73 8C BA 8C 66 69  |..word..-.s...fi|
 A443  6E 64 06 18 39 A4 5F 99 FD 99 73 65 61 72 63 68  |nd..9._...search|
 A453  07 10 45 A4 3C 85 A0 85 63 6F 6D 70 61 72 65 02  |..E.<...compare.|
 A463  00 53 A4 44 8A 87 8A 2E 73 04 10 62 A4 D8 8A 3E  |.S.D....s..b...>|
 A473  8B 64 75 6D 70 04 00 6C A4 74 83 79 83 62 65 6C  |.dump..l.t.y.bel|
 A483  6C 05 00 78 A4 AA 82 AA 82 61 6C 69 67 6E 07 00  |l..x.....align..|
 A493  84 A4 AA 82 AA 82 61 6C 69 67 6E 65 64 08 10 91  |......aligned...|
 A4A3  A4 7F A1 9F A1 77 6F 72 64 73 69 7A 65 05 00 A0  |.....wordsize...|
 A4B3  A4 23 A1 7E A1 77 6F 72 64 73 06 04 B0 A4 FE 90  |.#.~.words......|
 A4C3  3B 91 6D 61 72 6B 65 72 05 10 BD A4 40 83 5D 83  |;.marker....@.].|
 A4D3  61 74 2D 78 79 04 00 CB A4 49 94 66 94 70 61 67  |at-xy....I.f.pag|
 A4E3  65 02 00 D8 A4 17 87 1C 87 63 72 05 00 E4 A4 FD  |e........cr.....|
 A4F3  8E 07 8F 69 6E 70 75 74 06 00 EE A4 20 94 2A 94  |...input.... .*.|
 A503  6F 75 74 70 75 74 04 10 FB A4 5D 9A 71 9A 73 69  |output....].q.si|
 A513  67 6E 04 10 09 A5 7D 8E 8E 8E 68 6F 6C 64 02 10  |gn....}...hold..|
 A523  15 A5 A3 93 C4 93 23 3E 02 10 21 A5 C5 93 D5 93  |......#>..!.....|
 A533  23 73 01 10 2B A5 6E 93 A2 93 23 02 00 35 A5 00  |#s..+.n...#..5..|
 A543  90 0D 90 3C 23 03 00 3E A5 D9 9C E3 9C 3E 69 6E  |...<#..>.....>in|
 A553  06 10 48 A5 B0 A0 C5 A0 77 69 74 68 69 6E 08 10  |..H.....within..|
 A563  53 A5 2A 8E 7C 8E 68 65 78 73 74 6F 72 65 06 10  |S.*.|.hexstore..|
 A573  61 A5 00 84 4C 84 63 6C 65 61 76 65 03 00 71 A5  |a...L.cleave..q.|
 A583  39 94 48 94 70 61 64 05 10 7F A5 4D 84 87 84 63  |9.H.pad....M...c|
 A593  6D 6F 76 65 06 10 8A A5 88 84 C2 84 63 6D 6F 76  |move........cmov|
 A5A3  65 3E 04 18 97 A5 17 92 35 92 6D 6F 76 65 01 04  |e>......5.move..|
 A5B3  A5 A5 5E 83 66 83 5C 02 10 B1 A5 D5 9B DD 9B 2A  |..^.f.\........*|
 A5C3  2F 05 10 BA A5 DE 9B ED 9B 2A 2F 6D 6F 64 03 10  |/........*/mod..|
 A5D3  C4 A5 0E 92 16 92 6D 6F 64 04 10 D1 A5 77 9A 8E  |......mod....w..|
 A5E3  9A 2F 6D 6F 64 01 10 DC A5 72 9A 8E 9A 2F 06 10  |./mod....r.../..|
 A5F3  E8 A5 67 8D 9D 8D 66 6D 2F 6D 6F 64 06 10 F1 A5  |..g...fm/mod....|
 A603  4B 9B 73 9B 73 6D 2F 72 65 6D 06 10 FF A5 CE 9F  |K.s.sm/rem......|
 A613  0F A0 75 6D 2F 6D 6F 64 01 10 0D A6 CC 9B D4 9B  |..um/mod........|
 A623  2A 03 10 1B A6 10 A0 55 A0 75 6D 2A 02 10 24 A6  |*......U.um*..$.|
 A633  E3 90 FD 90 6D 2A 05 10 2F A6 03 87 16 87 63 6F  |....m*../.....co|
 A643  75 6E 74 07 00 39 A6 59 88 5F 88 64 65 63 69 6D  |unt..9.Y._.decim|
 A653  61 6C 03 00 46 A6 23 8E 29 8E 68 65 78 07 10 55  |al..F.#.).hex..U|
 A663  A6 E4 9C 83 9D 3E 6E 75 6D 62 65 72 06 10 60 A6  |.....>number..`.|
 A673  DF 92 6D 93 6E 75 6D 62 65 72 06 10 6F A6 B0 88  |..m.number..o...|
 A683  E4 88 64 69 67 69 74 3F 04 00 7D A6 67 83 6F 83  |..digit?..}.g.o.|
 A693  62 61 73 65 08 10 8B A6 A4 8D F7 8D 65 76 61 6C  |base........eval|
 A6A3  75 61 74 65 05 00 97 A6 EE 9B F8 9B 73 74 61 74  |uate........stat|
 A6B3  65 05 17 A7 A6 89 82 A9 82 61 67 61 69 6E 05 07  |e........again..|
 A6C3  B4 A6 70 83 73 83 62 65 67 69 6E 04 00 C1 A6 83  |..p.s.begin.....|
 A6D3  80 C5 80 71 75 69 74 07 0D CE A6 46 96 82 96 72  |...quit....F...r|
 A6E3  65 63 75 72 73 65 05 03 DA A6 F6 8F FB 8F 6C 65  |ecurse........le|
 A6F3  61 76 65 06 03 E9 A6 56 A0 5C A0 75 6E 6C 6F 6F  |ave....V.\.unloo|
 A703  70 04 03 F6 A6 58 8C 59 8C 65 78 69 74 05 05 04  |p....X.Y.exit...|
 A713  A7 57 90 BD 90 2B 6C 6F 6F 70 04 05 10 A7 50 90  |.W...+loop....P.|
 A723  BD 90 6C 6F 6F 70 01 03 1D A7 BA 8F D3 8F 6A 01  |..loop........j.|
 A733  03 29 A7 8F 8E A8 8E 69 03 0D 32 A7 00 89 60 89  |.).....i..2...`.|
 A743  3F 64 6F 02 0D 3B A7 06 89 60 89 64 6F 06 0D 46  |?do..;...`.do..F|
 A753  A7 19 81 23 81 61 62 6F 72 74 22 05 00 50 A7 81  |...#.abort"..P..|
 A763  80 C5 80 61 62 6F 72 74 0F 00 5E A7 0F 9C 19 9C  |...abort..^.....|
 A773  73 74 72 69 70 2D 75 6E 64 65 72 66 6C 6F 77 08  |strip-underflow.|
 A783  00 6B A7 6D 92 77 92 6E 63 2D 6C 69 6D 69 74 0C  |.k.m.w.nc-limit.|
 A793  00 82 A7 14 83 1F 83 61 6C 6C 6F 77 2D 6E 61 74  |.......allow-nat|
 A7A3  69 76 65 0D 00 92 A7 20 83 2D 83 61 6C 77 61 79  |ive.... .-.alway|
 A7B3  73 2D 6E 61 74 69 76 65 0C 00 A6 A7 89 92 96 92  |s-native........|
 A7C3  6E 65 76 65 72 2D 6E 61 74 69 76 65 0C 00 BB A7  |never-native....|
 A7D3  B9 86 C4 86 63 6F 6D 70 69 6C 65 2D 6F 6E 6C 79  |....compile-only|
 A7E3  09 00 CF A7 F1 8E FC 8E 69 6D 6D 65 64 69 61 74  |........immediat|
 A7F3  65 08 05 E3 A7 AE 95 EC 95 70 6F 73 74 70 6F 6E  |e........postpon|
 A803  65 03 04 F4 A7 09 97 12 97 73 5C 22 02 0C 04 A8  |e........s\"....|
 A813  F0 97 4C 99 73 22 02 05 0F A8 0B 8A 15 8A 2E 22  |..L.s"........."|
 A823  08 15 19 A8 AF 9A 1E 9B 73 6C 69 74 65 72 61 6C  |........sliteral|
 A833  07 15 23 A8 23 90 30 90 6C 69 74 65 72 61 6C 01  |..#.#.0.literal.|
 A843  04 33 A8 D2 96 D8 96 5D 01 05 42 A8 FB 8F FF 8F  |.3.....]..B.....|
 A853  5B 08 18 4B A8 A1 85 B8 86 63 6F 6D 70 69 6C 65  |[..K.....compile|
 A863  2C 07 00 54 A8 06 85 21 85 3A 6E 6F 6E 61 6D 65  |,..T...!.:noname|
 A873  01 05 64 A8 FE 99 5C 9A 3B 01 00 73 A8 C3 84 05  |..d...\.;..s....|
 A883  85 3A 09 00 7C A8 89 9B 93 9B 73 6F 75 72 63 65  |.:..|.....source|
 A893  2D 69 64 06 00 85 A8 74 9B 88 9B 73 6F 75 72 63  |-id....t...sourc|
 A8A3  65 0F 10 96 A8 31 8C 57 8C 65 78 65 63 75 74 65  |e....1.W.execute|
 A8B3  2D 70 61 72 73 69 6E 67 05 10 A4 A8 D2 94 69 95  |-parsing......i.|
 A8C3  70 61 72 73 65 0A 08 BB A8 77 94 69 95 70 61 72  |parse....w.i.par|
 A8D3  73 65 2D 6E 61 6D 65 08 00 C8 A8 E1 8F EE 8F 6C  |se-name........l|
 A8E3  61 74 65 73 74 6E 74 08 00 DA A8 EF 8F F5 8F 6C  |atestnt........l|
 A8F3  61 74 65 73 74 78 74 05 00 EA A8 60 88 92 88 64  |atestxt....`...d|
 A903  65 66 65 72 05 10 FA A8 B4 9C D8 9C 3E 62 6F 64  |efer........>bod|
 A913  79 0B 10 07 A9 53 92 6C 92 6E 61 6D 65 3E 73 74  |y....S.l.name>st|
 A923  72 69 6E 67 08 10 14 A9 1E 8F 90 8F 69 6E 74 3E  |ring........int>|
 A933  6E 61 6D 65 08 10 27 A9 36 92 52 92 6E 61 6D 65  |name..'.6.R.name|
 A943  3E 69 6E 74 03 05 37 A9 A3 83 A9 83 5B 27 5D 01  |>int..7.....['].|
 A953  00 47 A9 38 9C 57 9C 27 09 10 52 A9 BB 8C 66 8D  |.G.8.W.'..R...f.|
 A963  66 69 6E 64 2D 6E 61 6D 65 04 10 5B A9 DA 8B 1C  |find-name..[....|
 A973  8C 66 69 6C 6C 05 00 6C A9 CA 8B 1C 8C 62 6C 61  |.fill..l.....bla|
 A983  6E 6B 05 00 78 A9 D4 8B 1C 8C 65 72 61 73 65 02  |nk..x.....erase.|
 A993  10 85 A9 13 88 33 88 64 2B 02 10 92 A9 F2 87 12  |.....3.d+.......|
 A9A3  88 64 2D 03 10 9C A9 34 88 39 88 64 3E 73 03 10  |.d-....4.9.d>s..|
 A9B3  A6 A9 4D 99 5E 99 73 3E 64 02 0C B1 A9 58 9C B3  |..M.^.s>d....X..|
 A9C3  9C 74 6F 05 10 BC A9 C5 86 02 87 76 61 6C 75 65  |.to........value|
 A9D3  08 10 C6 A9 C5 86 02 87 63 6F 6E 73 74 61 6E 74  |........constant|
 A9E3  08 00 D3 A9 83 A0 9B A0 76 61 72 69 61 62 6C 65  |........variable|
 A9F3  05 05 E3 A9 99 89 A7 89 64 6F 65 73 3E 06 00 F3  |........does>...|
 AA03  A9 1D 87 F1 87 63 72 65 61 74 65 05 10 00 AA AB  |.....create.....|
 AA13  82 13 83 61 6C 6C 6F 74 03 00 0E AA D4 8F DD 8F  |...allot........|
 AA23  6B 65 79 05 00 1B AA A1 88 AF 88 64 65 70 74 68  |key........depth|
 AA33  06 00 26 AA 68 A0 77 A0 75 6E 75 73 65 64 07 08  |..&.h.w.unused..|
 AA43  33 AA 2E 96 45 96 72 3E 69 6E 70 75 74 07 08 41  |3...E.r>input..A|
 AA53  AA 08 8F 1D 8F 69 6E 70 75 74 3E 72 06 18 50 AA  |.....input>r..P.|
 AA63  4E 81 46 82 61 63 63 65 70 74 06 00 5F AA 83 96  |N.F.accept.._...|
 AA73  C4 96 72 65 66 69 6C 6C 07 10 6D AA 8F 9A AE 9A  |..refill..m.....|
 AA83  2F 73 74 72 69 6E 67 08 10 7B AA B8 91 D0 91 2D  |/string..{.....-|
 AA93  6C 65 61 64 69 6E 67 09 10 8A AA D1 91 0D 92 2D  |leading........-|
 AAA3  74 72 61 69 6C 69 6E 67 02 00 9A AA 7A 83 82 83  |trailing....z...|
 AAB3  62 6C 06 10 AB AA 9A 9B CB 9B 73 70 61 63 65 73  |bl........spaces|
 AAC3  06 10 B5 AA 83 83 9B 83 62 6F 75 6E 64 73 02 10  |........bounds..|
 AAD3  C3 AA B4 83 BE 83 63 2C 07 10 D1 AA E5 88 FF 88  |......c,........|
 AAE3  64 6E 65 67 61 74 65 06 10 DB AA 78 92 88 92 6E  |dnegate....x...n|
 AAF3  65 67 61 74 65 06 10 EA AA 91 8F A0 8F 69 6E 76  |egate........inv|
 AB03  65 72 74 03 11 F8 AA B6 9E D5 9E 32 3E 72 03 01  |ert........2>r..|
 AB13  06 AB 3C 9E 58 9E 32 72 3E 03 09 11 AB 1E 9E 3B  |..<.X.2r>......;|
 AB23  9E 32 72 40 08 14 1C AB FB 9E 07 9F 32 6C 69 74  |.2r@........2lit|
 AB33  65 72 61 6C 09 10 27 AB D6 9E FA 9E 32 63 6F 6E  |eral..'.....2con|
 AB43  73 74 61 6E 74 09 00 37 AB 08 9F 16 9F 32 76 61  |stant..7.....2va|
 AB53  72 69 61 62 6C 65 02 10 48 AB E4 9D 05 9E 32 40  |riable..H.....2@|
 AB63  02 10 59 AB 6C 9E 91 9E 32 21 05 10 63 AB 06 9E  |..Y.l...2!..c...|
 AB73  1D 9E 32 6F 76 65 72 05 10 6D AB 92 9E B5 9E 32  |..2over..m.....2|
 AB83  73 77 61 70 05 10 7A AB C4 9D CB 9D 32 64 72 6F  |swap..z.....2dro|
 AB93  70 03 10 87 AB 6D 91 88 91 6D 61 78 03 10 94 AB  |p....m...max....|
 ABA3  89 91 A4 91 6D 69 6E 02 10 9F AB E1 A1 F0 A1 30  |....min........0|
 ABB3  3C 02 10 AA AB CD A1 E0 A1 30 3E 03 10 B4 AB F1  |<........0>.....|
 ABC3  A1 02 A2 30 3C 3E 02 10 BE AB B9 A1 CC A1 30 3D  |...0<>........0=|
 ABD3  01 10 C9 AB 03 8E 17 8E 3E 02 10 D3 AB 70 9F 85  |........>....p..|
 ABE3  9F 75 3E 02 10 DC AB 86 9F 9B 9F 75 3C 01 10 E6  |.u>........u<...|
 ABF3  AB 0E 90 22 90 3C 02 10 F0 AB A5 92 C2 92 3C 3E  |...".<........<>|
 AC03  01 10 F9 AB AE 8B C9 8B 3D 02 10 03 AC 59 9E 63  |........=....Y.c|
 AC13  9E 32 2F 02 10 0C AC 64 9E 6B 9E 32 2A 02 10 16  |.2/....d.k.2*...|
 AC23  AC 04 94 0D 94 31 2B 02 10 20 AC F8 93 03 94 31  |.....1+.. .....1|
 AC33  2D 04 00 2A AC 18 8E 22 8E 68 65 72 65 05 10 34  |-..*...".here..4|
 AC43  AC D5 83 E4 83 63 65 6C 6C 2B 05 00 40 AC 64 9E  |.....cell+..@.d.|
 AC53  6B 9E 63 65 6C 6C 73 05 12 4D AC FC 83 FF 83 63  |k.cells..M.....c|
 AC63  68 61 72 73 05 00 5A AC 04 94 0D 94 63 68 61 72  |hars..Z.....char|
 AC73  2B 06 05 67 AC 9C 83 A2 83 5B 63 68 61 72 5D 04  |+..g.....[char].|
 AC83  00 74 AC E5 83 FB 83 63 68 61 72 04 00 82 AC 6A  |.t.....char....j|
 AC93  95 7A 95 70 69 63 6B 06 10 8E AC CF 90 E2 90 6C  |.z.pick........l|
 ACA3  73 68 69 66 74 06 10 9A AC F5 96 08 97 72 73 68  |shift........rsh|
 ACB3  69 66 74 03 10 A8 AC A0 A1 B1 A1 78 6F 72 02 10  |ift........xor..|
 ACC3  B6 AC 0E 94 1F 94 6F 72 03 10 C1 AC 2E 83 3F 83  |......or......?.|
 ACD3  61 6E 64 04 10 CB AC 3A 88 58 88 64 61 62 73 03  |and....:.X.dabs.|
 ACE3  10 D6 AC 39 81 4D 81 61 62 73 01 10 E2 AC A5 91  |...9.M.abs......|
 ACF3  B7 91 2D 01 10 ED AC 7B 95 8D 95 2B 04 10 F6 AC  |..-....{...+....|
 AD03  F4 95 07 96 3F 64 75 70 04 10 FF AC CC 9D E3 9D  |....?dup........|
 AD13  32 64 75 70 01 00 0B AD BB 9D C3 9D 32 01 00 17  |2dup........2...|
 AD23  AD EF 93 F7 93 31 01 00 20 AD B2 A1 B8 A1 30 05  |.....1.. .....0.|
 AD33  00 29 AD 94 9B 99 9B 73 70 61 63 65 04 00 32 AD  |.).....space..2.|
 AD43  98 9D A0 9D 74 72 75 65 05 00 3F AD 59 8C 5F 8C  |....true..?.Y._.|
 AD53  66 61 6C 73 65 01 00 4B AD ED 95 F3 95 3F 04 10  |false..K.....?..|
 AD63  58 AD AF 9F CD 9F 75 64 2E 72 03 10 61 AD 9C 9F  |X.....ud.r..a...|
 AD73  AE 9F 75 64 2E 03 10 6D AD A7 8A D1 8A 64 2E 72  |..ud...m.....d.r|
 AD83  02 10 78 AD 88 8A A6 8A 64 2E 02 10 83 AD 16 8A  |..x.....d.......|
 AD93  43 8A 2E 72 03 10 8D AD 4E 9F 6F 9F 75 2E 72 02  |C..r....N.o.u.r.|
 ADA3  10 97 AD 42 9F 4D 9F 75 2E 01 10 A2 AD DA 89 FB  |...B.M.u........|
 ADB3  89 2E 04 10 AC AD 17 9F 41 9F 74 79 70 65 04 18  |........A.type..|
 ADC3  B5 AD 8F 8B 99 8B 65 6D 69 74 07 10 C1 AD 1D 8C  |......emit......|
 ADD3  23 8C 65 78 65 63 75 74 65 02 10 CD AD 8E 95 AD  |#.execute.......|
 ADE3  95 2B 21 02 10 DC AD C9 83 D4 83 63 21 02 10 E6  |.+!........c!...|
 ADF3  AD BF 83 C8 83 63 40 01 10 F0 AD 22 85 3B 85 2C  |.....c@....".;.,|
 AE03  04 10 FA AD A1 9D BA 9D 74 75 63 6B 04 10 03 AE  |........tuck....|
 AE13  C3 92 DE 92 2D 72 6F 74 03 10 0F AE D9 96 F4 96  |....-rot........|
 AE23  72 6F 74 03 10 1B AE 97 92 A4 92 6E 69 70 02 01  |rot........nip..|
 AE33  26 AE 08 96 1C 96 72 40 02 01 31 AE 1D 96 2D 96  |&.....r@..1...-.|
 AE43  72 3E 02 11 3B AE 84 9D 97 9D 3E 72 04 10 45 AE  |r>..;.....>r..E.|
 AE53  2B 94 38 94 6F 76 65 72 01 10 4F AE 60 8C 72 8C  |+.8.over..O.`.r.|
 AE63  40 01 10 5B AE F9 9B 0E 9C 21 04 10 64 AE 1A 9C  |@..[.....!..d...|
 AE73  2D 9C 73 77 61 70 03 10 6D AE 53 8B 60 8B 64 75  |-.swap..m.S.`.du|
 AE83  70 04 10 79 AE D2 8A D7 8A 64 72 6F 70 05 00 00  |p..y.....drop...|
 AE93  00 23 A1 7E A1 77 6F 72 64 73 B7 AE BB AE C5 AE  |.#.~.words......|
 AEA3  2B AF D0 AE F4 AE 23 AF 18 AF 32 AF 38 AF 54 AF  |+.....#...2.8.T.|
 AEB3  59 AF 5E AF 20 6F 6B 00 20 63 6F 6D 70 69 6C 65  |Y.^. ok. compile|
 AEC3  64 00 72 65 64 65 66 69 6E 65 64 20 00 30 31 32  |d.redefined .012|
 AED3  33 34 35 36 37 38 39 61 62 63 64 65 66 67 68 69  |3456789abcdefghi|
 AEE3  6A 6B 6C 6D 6E 6F 70 71 72 73 74 75 76 77 78 79  |jklmnopqrstuvwxy|
 AEF3  7A 30 31 32 33 34 35 36 37 38 39 41 42 43 44 45  |z0123456789ABCDE|
 AF03  46 47 48 49 4A 4B 4C 4D 4E 4F 50 51 52 53 54 55  |FGHIJKLMNOPQRSTU|
 AF13  56 57 58 59 5A 41 73 73 65 6D 62 6C 65 72 20 00  |VWXYZAssembler .|
 AF23  45 64 69 74 6F 72 20 00 46 6F 72 74 68 20 00 52  |Editor .Forth .R|
 AF33  6F 6F 74 20 00 66 6C 61 67 73 20 28 43 4F 20 41  |oot .flags (CO A|
 AF43  4E 20 49 4D 20 4E 4E 20 55 46 20 48 43 29 3A 20  |N IM NN UF HC): |
 AF53  00 6E 74 3A 20 00 78 74 3A 20 00 73 69 7A 65 20  |.nt: .xt: .size |
 AF63  28 64 65 63 69 6D 61 6C 29 3A 20 00 87 AF A8 AF  |(decimal): .....|
 AF73  C8 AF E9 AF 06 B0 17 B0 27 B0 55 B0 6D B0 7C B0  |........'.U.m.|.|
 AF83  8C B0 A8 B0 41 4C 4C 4F 54 20 75 73 69 6E 67 20  |....ALLOT using |
 AF93  61 6C 6C 20 61 76 61 69 6C 61 62 6C 65 20 6D 65  |all available me|
 AFA3  6D 6F 72 79 00 49 6C 6C 65 67 61 6C 20 53 4F 55  |mory.Illegal SOU|
 AFB3  52 43 45 2D 49 44 20 64 75 72 69 6E 67 20 52 45  |RCE-ID during RE|
 AFC3  46 49 4C 4C 00 49 6E 74 65 72 70 72 65 74 69 6E  |FILL.Interpretin|
 AFD3  67 20 61 20 63 6F 6D 70 69 6C 65 2D 6F 6E 6C 79  |g a compile-only|
 AFE3  20 77 6F 72 64 00 44 45 46 45 52 65 64 20 77 6F  | word.DEFERed wo|
 AFF3  72 64 20 6E 6F 74 20 64 65 66 69 6E 65 64 20 79  |rd not defined y|
 B003  65 74 00 44 69 76 69 73 69 6F 6E 20 62 79 20 7A  |et.Division by z|
 B013  65 72 6F 00 50 61 72 73 69 6E 67 20 66 61 69 6C  |ero.Parsing fail|
 B023  75 72 65 00 51 55 49 54 20 63 6F 75 6C 64 20 6E  |ure.QUIT could n|
 B033  6F 74 20 67 65 74 20 69 6E 70 75 74 20 28 52 45  |ot get input (RE|
 B043  46 49 4C 4C 20 72 65 74 75 72 6E 65 64 20 2D 31  |FILL returned -1|
 B053  29 00 41 6C 72 65 61 64 79 20 69 6E 20 63 6F 6D  |).Already in com|
 B063  70 69 6C 65 20 6D 6F 64 65 00 55 6E 64 65 66 69  |pile mode.Undefi|
 B073  6E 65 64 20 77 6F 72 64 00 53 74 61 63 6B 20 75  |ned word.Stack u|
 B083  6E 64 65 72 66 6C 6F 77 00 4D 61 78 20 6D 65 6D  |nderflow.Max mem|
 B093  6F 72 79 20 66 72 65 65 64 20 77 69 74 68 20 41  |ory freed with A|
 B0A3  4C 4C 4F 54 00 4E 6F 20 77 6F 72 64 6C 69 73 74  |LLOT.No wordlist|
 B0B3  73 20 61 76 61 69 6C 61 62 6C 65 00              |s available.    |
 B0BF  48        PHA  
 B0C0  A9 20     LDA  #$20
 B0C2  80 03     BRA  $B0C7
 B0C4  48        PHA  
 B0C5  A9 4C     LDA  #$4C
 B0C7  20 CF B0  JSR  $B0CF
 B0CA  68        PLA  
 B0CB  20 CF B0  JSR  $B0CF
 B0CE  98        TYA  
 B0CF  92 00     STA  ($00)
 B0D1  E6 00     INC  $00
 B0D3  D0 02     BNE  $B0D7
 B0D5  E6 01     INC  $01
 B0D7  60        RTS  
 B0D8  CA        DEX  
 B0D9  CA        DEX  
 B0DA  68        PLA  
 B0DB  85 24     STA  $24
 B0DD  68        PLA  
 B0DE  85 25     STA  $25
 B0E0  A0 01     LDY  #$01
 B0E2  B1 24     LDA  ($24), Y
 B0E4  95 00     STA  $00, X
 B0E6  C8        INY  
 B0E7  B1 24     LDA  ($24), Y
 B0E9  95 01     STA  $01, X
 B0EB  60        RTS  
 B0EC  68        PLA  
 B0ED  85 24     STA  $24
 B0EF  68        PLA  
 B0F0  85 25     STA  $25
 B0F2  A0 01     LDY  #$01
 B0F4  B1 24     LDA  ($24), Y
 B0F6  85 26     STA  $26
 B0F8  C8        INY  
 B0F9  B1 24     LDA  ($24), Y
 B0FB  85 27     STA  $27
 B0FD  6C 26 00  JMP  ($0026)
 B100  A9 03     LDA  #$03
 B102  4C 32 B2  JMP  $B232
 B105  7A        PLY  
 B106  68        PLA  
 B107  C8        INY  
 B108  D0 01     BNE  $B10B
 B10A  1A        INC  
 B10B  84 26     STY  $26
 B10D  85 27     STA  $27
 B10F  CA        DEX  
 B110  CA        DEX  
 B111  7A        PLY  
 B112  68        PLA  
 B113  C8        INY  
 B114  D0 01     BNE  $B117
 B116  1A        INC  
 B117  94 00     STY  $00, X
 B119  95 01     STA  $01, X
 B11B  6C 26 00  JMP  ($0026)
 B11E  7A        PLY  
 B11F  68        PLA  
 B120  C8        INY  
 B121  D0 01     BNE  $B124
 B123  1A        INC  
 B124  CA        DEX  
 B125  CA        DEX  
 B126  95 01     STA  $01, X
 B128  98        TYA  
 B129  95 00     STA  $00, X
 B12B  60        RTS  
 B12C  48        PHA  
 B12D  4A        LSR  
 B12E  4A        LSR  
 B12F  4A        LSR  
 B130  4A        LSR  
 B131  20 35 B1  JSR  $B135
 B134  68        PLA  
 B135  29 0F     AND  #$0F
 B137  09 30     ORA  #$30
 B139  C9 3A     CMP  #$3A
 B13B  90 02     BCC  $B13F
 B13D  69 06     ADC  #$06
 B13F  4C 96 8B  JMP  $8B96
 B142  60        RTS  
 B143  B5 00     LDA  $00, X
 B145  D5 02     CMP  $02, X
 B147  F0 0A     BEQ  $B153
 B149  B5 01     LDA  $01, X
 B14B  F5 03     SBC  $03, X
 B14D  09 01     ORA  #$01
 B14F  70 08     BVS  $B159
 B151  80 08     BRA  $B15B
 B153  B5 01     LDA  $01, X
 B155  F5 03     SBC  $03, X
 B157  50 04     BVC  $B15D
 B159  49 80     EOR  #$80
 B15B  09 01     ORA  #$01
 B15D  60        RTS  
 B15E  A0 04     LDY  #$04
 B160  B1 1E     LDA  ($1E), Y
 B162  0A        ASL  
 B163  18        CLC  
 B164  69 06     ADC  #$06
 B166  A8        TAY  
 B167  B1 1E     LDA  ($1E), Y
 B169  85 02     STA  $02
 B16B  C8        INY  
 B16C  B1 1E     LDA  ($1E), Y
 B16E  85 03     STA  $03
 B170  60        RTS  
 B171  A0 04     LDY  #$04
 B173  B1 1E     LDA  ($1E), Y
 B175  0A        ASL  
 B176  18        CLC  
 B177  69 06     ADC  #$06
 B179  A8        TAY  
 B17A  A5 02     LDA  $02
 B17C  91 1E     STA  ($1E), Y
 B17E  C8        INY  
 B17F  A5 03     LDA  $03
 B181  91 1E     STA  ($1E), Y
 B183  60        RTS  
 B184  20 77 94  JSR  $9477
 B187  B5 00     LDA  $00, X
 B189  15 01     ORA  $01, X
 B18B  F0 70     BEQ  $B1FD
 B18D  20 CC 9D  JSR  $9DCC
 B190  20 BB 8C  JSR  $8CBB
 B193  B5 00     LDA  $00, X
 B195  15 01     ORA  $01, X
 B197  D0 28     BNE  $B1C1
 B199  E8        INX  
 B19A  E8        INX  
 B19B  20 DF 92  JSR  $92DF
 B19E  A5 16     LDA  $16
 B1A0  F0 E2     BEQ  $B184
 B1A2  A9 20     LDA  #$20
 B1A4  24 20     BIT  $20
 B1A6  F0 0D     BEQ  $B1B5
 B1A8  20 1A 9C  JSR  $9C1A
 B1AB  A0 90     LDY  #$90
 B1AD  A9 31     LDA  #$31
 B1AF  20 BF B0  JSR  $B0BF
 B1B2  20 22 85  JSR  $8522
 B1B5  A0 90     LDY  #$90
 B1B7  A9 31     LDA  #$31
 B1B9  20 BF B0  JSR  $B0BF
 B1BC  20 22 85  JSR  $8522
 B1BF  80 C3     BRA  $B184
 B1C1  B5 00     LDA  $00, X
 B1C3  95 04     STA  $04, X
 B1C5  B5 01     LDA  $01, X
 B1C7  95 05     STA  $05, X
 B1C9  E8        INX  
 B1CA  E8        INX  
 B1CB  E8        INX  
 B1CC  E8        INX  
 B1CD  B5 00     LDA  $00, X
 B1CF  85 22     STA  $22
 B1D1  B5 01     LDA  $01, X
 B1D3  85 23     STA  $23
 B1D5  20 36 92  JSR  $9236
 B1D8  A5 16     LDA  $16
 B1DA  D0 13     BNE  $B1EF
 B1DC  A0 01     LDY  #$01
 B1DE  B1 22     LDA  ($22), Y
 B1E0  29 01     AND  #$01
 B1E2  F0 05     BEQ  $B1E9
 B1E4  A9 02     LDA  #$02
 B1E6  4C 32 B2  JMP  $B232
 B1E9  20 1D 8C  JSR  $8C1D
 B1EC  4C 84 B1  JMP  $B184
 B1EF  A0 01     LDY  #$01
 B1F1  B1 22     LDA  ($22), Y
 B1F3  29 04     AND  #$04
 B1F5  D0 F2     BNE  $B1E9
 B1F7  20 A1 85  JSR  $85A1
 B1FA  4C 84 B1  JMP  $B184
 B1FD  E8        INX  
 B1FE  E8        INX  
 B1FF  E8        INX  
 B200  E8        INX  
 B201  60        RTS  
 B202  C9 20     CMP  #$20
 B204  90 08     BCC  $B20E
 B206  C9 7F     CMP  #$7F
 B208  B0 03     BCS  $B20D
 B20A  38        SEC  
 B20B  80 01     BRA  $B20E
 B20D  18        CLC  
 B20E  60        RTS  
 B20F  C9 00     CMP  #$00
 B211  90 08     BCC  $B21B
 B213  C9 21     CMP  #$21
 B215  B0 03     BCS  $B21A
 B217  38        SEC  
 B218  80 01     BRA  $B21B
 B21A  18        CLC  
 B21B  60        RTS  
 B21C  E0 77     CPX  #$77
 B21E  10 10     BPL  $B230
 B220  60        RTS  
 B221  E0 75     CPX  #$75
 B223  10 0B     BPL  $B230
 B225  60        RTS  
 B226  E0 73     CPX  #$73
 B228  10 06     BPL  $B230
 B22A  60        RTS  
 B22B  E0 71     CPX  #$71
 B22D  10 01     BPL  $B230
 B22F  60        RTS  
 B230  A9 09     LDA  #$09
 B232  0A        ASL  
 B233  A8        TAY  
 B234  B9 6F AF  LDA  $AF6F, Y
 B237  85 28     STA  $28
 B239  C8        INY  
 B23A  B9 6F AF  LDA  $AF6F, Y
 B23D  85 29     STA  $29
 B23F  20 55 B2  JSR  $B255
 B242  20 17 87  JSR  $8717
 B245  4C 81 80  JMP  $8081
 B248  0A        ASL  
 B249  A8        TAY  
 B24A  B9 9D AE  LDA  $AE9D, Y
 B24D  85 28     STA  $28
 B24F  C8        INY  
 B250  B9 9D AE  LDA  $AE9D, Y
 B253  85 29     STA  $29
 B255  A0 00     LDY  #$00
 B257  B1 28     LDA  ($28), Y
 B259  F0 06     BEQ  $B261
 B25B  20 96 8B  JSR  $8B96
 B25E  C8        INY  
 B25F  80 F6     BRA  $B257
 B261  60        RTS  
 B262  20 48 B2  JSR  $B248
 B265  4C 17 87  JMP  $8717
 B268  20 B2 A1  JSR  $A1B2
 B26B  20 00 90  JSR  $9000
 B26E  20 C5 93  JSR  $93C5
 B271  20 A3 93  JSR  $93A3
 B274  4C 17 9F  JMP  $9F17
 B277  00 00 00 00 00 00 00 00 00 00 00 00 00 00 00 00  |................|
 B287  00 00 00 00 00 00 00 00 00 00 00 00 00 00 00 00  |................|
 B297  00 00 00 00 00 00 00 00 00 00 00 00 00 00 00 00  |................|
 B2A7  00 00 00 00 00 00 00 00 00 00 00 00 00 00 00 00  |................|
 B2B7  00 00 00 00 00 00 00 00 00 00 00 00 00 00 00 00  |................|
 B2C7  00 00 00 00 00 00 00 00 00 00 00 00 00 00 00 00  |................|
 B2D7  00 00 00 00 00 00 00 00 00 00 00 00 00 00 00 00  |................|
 B2E7  00 00 00 00 00 00 00 00 00 00 00 00 00 00 00 00  |................|
 B2F7  00 00 00 00 00 00 00 00 00 00 00 00 00 00 00 00  |................|
 B307  00 00 00 00 00 00 00 00 00 00 00 00 00 00 00 00  |................|
 B317  00 00 00 00 00 00 00 00 00 00 00 00 00 00 00 00  |................|
 B327  00 00 00 00 00 00 00 00 00 00 00 00 00 00 00 00  |................|
 B337  00 00 00 00 00 00 00 00 00 00 00 00 00 00 00 00  |................|
 B347  00 00 00 00 00 00 00 00 00 00 00 00 00 00 00 00  |................|
 B357  00 00 00 00 00 00 00 00 00 00 00 00 00 00 00 00  |................|
 B367  00 00 00 00 00 00 00 00 00 00 00 00 00 00 00 00  |................|
 B377  00 00 00 00 00 00 00 00 00 00 00 00 00 00 00 00  |................|
 B387  00 00 00 00 00 00 00 00 00 00 00 00 00 00 00 00  |................|
 B397  00 00 00 00 00 00 00 00 00 00 00 00 00 00 00 00  |................|
 B3A7  00 00 00 00 00 00 00 00 00 00 00 00 00 00 00 00  |................|
 B3B7  00 00 00 00 00 00 00 00 00 00 00 00 00 00 00 00  |................|
 B3C7  00 00 00 00 00 00 00 00 00 00 00 00 00 00 00 00  |................|
 B3D7  00 00 00 00 00 00 00 00 00 00 00 00 00 00 00 00  |................|
 B3E7  00 00 00 00 00 00 00 00 00 00 00 00 00 00 00 00  |................|
 B3F7  00 00 00 00 00 00 00 00 00 00 00 00 00 00 00 00  |................|
 B407  00 00 00 00 00 00 00 00 00 00 00 00 00 00 00 00  |................|
 B417  00 00 00 00 00 00 00 00 00 00 00 00 00 00 00 00  |................|
 B427  00 00 00 00 00 00 00 00 00 00 00 00 00 00 00 00  |................|
 B437  00 00 00 00 00 00 00 00 00 00 00 00 00 00 00 00  |................|
 B447  00 00 00 00 00 00 00 00 00 00 00 00 00 00 00 00  |................|
 B457  00 00 00 00 00 00 00 00 00 00 00 00 00 00 00 00  |................|
 B467  00 00 00 00 00 00 00 00 00 00 00 00 00 00 00 00  |................|
 B477  00 00 00 00 00 00 00 00 00 00 00 00 00 00 00 00  |................|
 B487  00 00 00 00 00 00 00 00 00 00 00 00 00 00 00 00  |................|
 B497  00 00 00 00 00 00 00 00 00 00 00 00 00 00 00 00  |................|
 B4A7  00 00 00 00 00 00 00 00 00 00 00 00 00 00 00 00  |................|
 B4B7  00 00 00 00 00 00 00 00 00 00 00 00 00 00 00 00  |................|
 B4C7  00 00 00 00 00 00 00 00 00 00 00 00 00 00 00 00  |................|
 B4D7  00 00 00 00 00 00 00 00 00 00 00 00 00 00 00 00  |................|
 B4E7  00 00 00 00 00 00 00 00 00 00 00 00 00 00 00 00  |................|
 B4F7  00 00 00 00 00 00 00 00 00 00 00 00 00 00 00 00  |................|
 B507  00 00 00 00 00 00 00 00 00 00 00 00 00 00 00 00  |................|
 B517  00 00 00 00 00 00 00 00 00 00 00 00 00 00 00 00  |................|
 B527  00 00 00 00 00 00 00 00 00 00 00 00 00 00 00 00  |................|
 B537  00 00 00 00 00 00 00 00 00 00 00 00 00 00 00 00  |................|
 B547  00 00 00 00 00 00 00 00 00 00 00 00 00 00 00 00  |................|
 B557  00 00 00 00 00 00 00 00 00 00 00 00 00 00 00 00  |................|
 B567  00 00 00 00 00 00 00 00 00 00 00 00 00 00 00 00  |................|
 B577  00 00 00 00 00 00 00 00 00 00 00 00 00 00 00 00  |................|
 B587  00 00 00 00 00 00 00 00 00 00 00 00 00 00 00 00  |................|
 B597  00 00 00 00 00 00 00 00 00 00 00 00 00 00 00 00  |................|
 B5A7  00 00 00 00 00 00 00 00 00 00 00 00 00 00 00 00  |................|
 B5B7  00 00 00 00 00 00 00 00 00 00 00 00 00 00 00 00  |................|
 B5C7  00 00 00 00 00 00 00 00 00 00 00 00 00 00 00 00  |................|
 B5D7  00 00 00 00 00 00 00 00 00 00 00 00 00 00 00 00  |................|
 B5E7  00 00 00 00 00 00 00 00 00 00 00 00 00 00 00 00  |................|
 B5F7  00 00 00 00 00 00 00 00 00 00 00 00 00 00 00 00  |................|
 B607  00 00 00 00 00 00 00 00 00 00 00 00 00 00 00 00  |................|
 B617  00 00 00 00 00 00 00 00 00 00 00 00 00 00 00 00  |................|
 B627  00 00 00 00 00 00 00 00 00 00 00 00 00 00 00 00  |................|
 B637  00 00 00 00 00 00 00 00 00 00 00 00 00 00 00 00  |................|
 B647  00 00 00 00 00 00 00 00 00 00 00 00 00 00 00 00  |................|
 B657  00 00 00 00 00 00 00 00 00 00 00 00 00 00 00 00  |................|
 B667  00 00 00 00 00 00 00 00 00 00 00 00 00 00 00 00  |................|
 B677  00 00 00 00 00 00 00 00 00 00 00 00 00 00 00 00  |................|
 B687  00 00 00 00 00 00 00 00 00 00 00 00 00 00 00 00  |................|
 B697  00 00 00 00 00 00 00 00 00 00 00 00 00 00 00 00  |................|
 B6A7  00 00 00 00 00 00 00 00 00 00 00 00 00 00 00 00  |................|
 B6B7  00 00 00 00 00 00 00 00 00 00 00 00 00 00 00 00  |................|
 B6C7  00 00 00 00 00 00 00 00 00 00 00 00 00 00 00 00  |................|
 B6D7  00 00 00 00 00 00 00 00 00 00 00 00 00 00 00 00  |................|
 B6E7  00 00 00 00 00 00 00 00 00 00 00 00 00 00 00 00  |................|
 B6F7  00 00 00 00 00 00 00 00 00 00 00 00 00 00 00 00  |................|
 B707  00 00 00 00 00 00 00 00 00 00 00 00 00 00 00 00  |................|
 B717  00 00 00 00 00 00 00 00 00 00 00 00 00 00 00 00  |................|
 B727  00 00 00 00 00 00 00 00 00 00 00 00 00 00 00 00  |................|
 B737  00 00 00 00 00 00 00 00 00 00 00 00 00 00 00 00  |................|
 B747  00 00 00 00 00 00 00 00 00 00 00 00 00 00 00 00  |................|
 B757  00 00 00 00 00 00 00 00 00 00 00 00 00 00 00 00  |................|
 B767  00 00 00 00 00 00 00 00 00 00 00 00 00 00 00 00  |................|
 B777  00 00 00 00 00 00 00 00 00 00 00 00 00 00 00 00  |................|
 B787  00 00 00 00 00 00 00 00 00 00 00 00 00 00 00 00  |................|
 B797  00 00 00 00 00 00 00 00 00 00 00 00 00 00 00 00  |................|
 B7A7  00 00 00 00 00 00 00 00 00 00 00 00 00 00 00 00  |................|
 B7B7  00 00 00 00 00 00 00 00 00 00 00 00 00 00 00 00  |................|
 B7C7  00 00 00 00 00 00 00 00 00 00 00 00 00 00 00 00  |................|
 B7D7  00 00 00 00 00 00 00 00 00 00 00 00 00 00 00 00  |................|
 B7E7  00 00 00 00 00 00 00 00 00 00 00 00 00 00 00 00  |................|
 B7F7  00 00 00 00 00 00 00 00 00 00 00 00 00 00 00 00  |................|
 B807  00 00 00 00 00 00 00 00 00 00 00 00 00 00 00 00  |................|
 B817  00 00 00 00 00 00 00 00 00 00 00 00 00 00 00 00  |................|
 B827  00 00 00 00 00 00 00 00 00 00 00 00 00 00 00 00  |................|
 B837  00 00 00 00 00 00 00 00 00 00 00 00 00 00 00 00  |................|
 B847  00 00 00 00 00 00 00 00 00 00 00 00 00 00 00 00  |................|
 B857  00 00 00 00 00 00 00 00 00 00 00 00 00 00 00 00  |................|
 B867  00 00 00 00 00 00 00 00 00 00 00 00 00 00 00 00  |................|
 B877  00 00 00 00 00 00 00 00 00 00 00 00 00 00 00 00  |................|
 B887  00 00 00 00 00 00 00 00 00 00 00 00 00 00 00 00  |................|
 B897  00 00 00 00 00 00 00 00 00 00 00 00 00 00 00 00  |................|
 B8A7  00 00 00 00 00 00 00 00 00 00 00 00 00 00 00 00  |................|
 B8B7  00 00 00 00 00 00 00 00 00 00 00 00 00 00 00 00  |................|
 B8C7  00 00 00 00 00 00 00 00 00 00 00 00 00 00 00 00  |................|
 B8D7  00 00 00 00 00 00 00 00 00 00 00 00 00 00 00 00  |................|
 B8E7  00 00 00 00 00 00 00 00 00 00 00 00 00 00 00 00  |................|
 B8F7  00 00 00 00 00 00 00 00 00 00 00 00 00 00 00 00  |................|
 B907  00 00 00 00 00 00 00 00 00 00 00 00 00 00 00 00  |................|
 B917  00 00 00 00 00 00 00 00 00 00 00 00 00 00 00 00  |................|
 B927  00 00 00 00 00 00 00 00 00 00 00 00 00 00 00 00  |................|
 B937  00 00 00 00 00 00 00 00 00 00 00 00 00 00 00 00  |................|
 B947  00 00 00 00 00 00 00 00 00 00 00 00 00 00 00 00  |................|
 B957  00 00 00 00 00 00 00 00 00 00 00 00 00 00 00 00  |................|
 B967  00 00 00 00 00 00 00 00 00 00 00 00 00 00 00 00  |................|
 B977  00 00 00 00 00 00 00 00 00 00 00 00 00 00 00 00  |................|
 B987  00 00 00 00 00 00 00 00 00 00 00 00 00 00 00 00  |................|
 B997  00 00 00 00 00 00 00 00 00 00 00 00 00 00 00 00  |................|
 B9A7  00 00 00 00 00 00 00 00 00 00 00 00 00 00 00 00  |................|
 B9B7  00 00 00 00 00 00 00 00 00 00 00 00 00 00 00 00  |................|
 B9C7  00 00 00 00 00 00 00 00 00 00 00 00 00 00 00 00  |................|
 B9D7  00 00 00 00 00 00 00 00 00 00 00 00 00 00 00 00  |................|
 B9E7  00 00 00 00 00 00 00 00 00 00 00 00 00 00 00 00  |................|
 B9F7  00 00 00 00 00 00 00 00 00 00 00 00 00 00 00 00  |................|
 BA07  00 00 00 00 00 00 00 00 00 00 00 00 00 00 00 00  |................|
 BA17  00 00 00 00 00 00 00 00 00 00 00 00 00 00 00 00  |................|
 BA27  00 00 00 00 00 00 00 00 00 00 00 00 00 00 00 00  |................|
 BA37  00 00 00 00 00 00 00 00 00 00 00 00 00 00 00 00  |................|
 BA47  00 00 00 00 00 00 00 00 00 00 00 00 00 00 00 00  |................|
 BA57  00 00 00 00 00 00 00 00 00 00 00 00 00 00 00 00  |................|
 BA67  00 00 00 00 00 00 00 00 00 00 00 00 00 00 00 00  |................|
 BA77  00 00 00 00 00 00 00 00 00 00 00 00 00 00 00 00  |................|
 BA87  00 00 00 00 00 00 00 00 00 00 00 00 00 00 00 00  |................|
 BA97  00 00 00 00 00 00 00 00 00 00 00 00 00 00 00 00  |................|
 BAA7  00 00 00 00 00 00 00 00 00 00 00 00 00 00 00 00  |................|
 BAB7  00 00 00 00 00 00 00 00 00 00 00 00 00 00 00 00  |................|
 BAC7  00 00 00 00 00 00 00 00 00 00 00 00 00 00 00 00  |................|
 BAD7  00 00 00 00 00 00 00 00 00 00 00 00 00 00 00 00  |................|
 BAE7  00 00 00 00 00 00 00 00 00 00 00 00 00 00 00 00  |................|
 BAF7  00 00 00 00 00 00 00 00 00 00 00 00 00 00 00 00  |................|
 BB07  00 00 00 00 00 00 00 00 00 00 00 00 00 00 00 00  |................|
 BB17  00 00 00 00 00 00 00 00 00 00 00 00 00 00 00 00  |................|
 BB27  00 00 00 00 00 00 00 00 00 00 00 00 00 00 00 00  |................|
 BB37  00 00 00 00 00 00 00 00 00 00 00 00 00 00 00 00  |................|
 BB47  00 00 00 00 00 00 00 00 00 00 00 00 00 00 00 00  |................|
 BB57  00 00 00 00 00 00 00 00 00 00 00 00 00 00 00 00  |................|
 BB67  00 00 00 00 00 00 00 00 00 00 00 00 00 00 00 00  |................|
 BB77  00 00 00 00 00 00 00 00 00 00 00 00 00 00 00 00  |................|
 BB87  00 00 00 00 00 00 00 00 00 00 00 00 00 00 00 00  |................|
 BB97  00 00 00 00 00 00 00 00 00 00 00 00 00 00 00 00  |................|
 BBA7  00 00 00 00 00 00 00 00 00 00 00 00 00 00 00 00  |................|
 BBB7  00 00 00 00 00 00 00 00 00 00 00 00 00 00 00 00  |................|
 BBC7  00 00 00 00 00 00 00 00 00 00 00 00 00 00 00 00  |................|
 BBD7  00 00 00 00 00 00 00 00 00 00 00 00 00 00 00 00  |................|
 BBE7  00 00 00 00 00 00 00 00 00 00 00 00 00 00 00 00  |................|
 BBF7  00 00 00 00 00 00 00 00 00 00 00 00 00 00 00 00  |................|
 BC07  00 00 00 00 00 00 00 00 00 00 00 00 00 00 00 00  |................|
 BC17  00 00 00 00 00 00 00 00 00 00 00 00 00 00 00 00  |................|
 BC27  00 00 00 00 00 00 00 00 00 00 00 00 00 00 00 00  |................|
 BC37  00 00 00 00 00 00 00 00 00 00 00 00 00 00 00 00  |................|
 BC47  00 00 00 00 00 00 00 00 00 00 00 00 00 00 00 00  |................|
 BC57  00 00 00 00 00 00 00 00 00 00 00 00 00 00 00 00  |................|
 BC67  00 00 00 00 00 00 00 00 00 00 00 00 00 00 00 00  |................|
 BC77  00 00 00 00 00 00 00 00 00 00 00 00 00 00 00 00  |................|
 BC87  00 00 00 00 00 00 00 00 00 00 00 00 00 00 00 00  |................|
 BC97  00 00 00 00 00 00 00 00 00 00 00 00 00 00 00 00  |................|
 BCA7  00 00 00 00 00 00 00 00 00 00 00 00 00 00 00 00  |................|
 BCB7  00 00 00 00 00 00 00 00 00 00 00 00 00 00 00 00  |................|
 BCC7  00 00 00 00 00 00 00 00 00 00 00 00 00 00 00 00  |................|
 BCD7  00 00 00 00 00 00 00 00 00 00 00 00 00 00 00 00  |................|
 BCE7  00 00 00 00 00 00 00 00 00 00 00 00 00 00 00 00  |................|
 BCF7  00 00 00 00 00 00 00 00 00 00 00 00 00 00 00 00  |................|
 BD07  00 00 00 00 00 00 00 00 00 00 00 00 00 00 00 00  |................|
 BD17  00 00 00 00 00 00 00 00 00 00 00 00 00 00 00 00  |................|
 BD27  00 00 00 00 00 00 00 00 00 00 00 00 00 00 00 00  |................|
 BD37  00 00 00 00 00 00 00 00 00 00 00 00 00 00 00 00  |................|
 BD47  00 00 00 00 00 00 00 00 00 00 00 00 00 00 00 00  |................|
 BD57  00 00 00 00 00 00 00 00 00 00 00 00 00 00 00 00  |................|
 BD67  00 00 00 00 00 00 00 00 00 00 00 00 00 00 00 00  |................|
 BD77  00 00 00 00 00 00 00 00 00 00 00 00 00 00 00 00  |................|
 BD87  00 00 00 00 00 00 00 00 00 00 00 00 00 00 00 00  |................|
 BD97  00 00 00 00 00 00 00 00 00 00 00 00 00 00 00 00  |................|
 BDA7  00 00 00 00 00 00 00 00 00 00 00 00 00 00 00 00  |................|
 BDB7  00 00 00 00 00 00 00 00 00 00 00 00 00 00 00 00  |................|
 BDC7  00 00 00 00 00 00 00 00 00 00 00 00 00 00 00 00  |................|
 BDD7  00 00 00 00 00 00 00 00 00 00 00 00 00 00 00 00  |................|
 BDE7  00 00 00 00 00 00 00 00 00 00 00 00 00 00 00 00  |................|
 BDF7  00 00 00 00 00 00 00 00 00 00 00 00 00 00 00 00  |................|
 BE07  00 00 00 00 00 00 00 00 00 00 00 00 00 00 00 00  |................|
 BE17  00 00 00 00 00 00 00 00 00 00 00 00 00 00 00 00  |................|
 BE27  00 00 00 00 00 00 00 00 00 00 00 00 00 00 00 00  |................|
 BE37  00 00 00 00 00 00 00 00 00 00 00 00 00 00 00 00  |................|
 BE47  00 00 00 00 00 00 00 00 00 00 00 00 00 00 00 00  |................|
 BE57  00 00 00 00 00 00 00 00 00 00 00 00 00 00 00 00  |................|
 BE67  00 00 00 00 00 00 00 00 00 00 00 00 00 00 00 00  |................|
 BE77  00 00 00 00 00 00 00 00 00 00 00 00 00 00 00 00  |................|
 BE87  00 00 00 00 00 00 00 00 00 00 00 00 00 00 00 00  |................|
 BE97  00 00 00 00 00 00 00 00 00 00 00 00 00 00 00 00  |................|
 BEA7  00 00 00 00 00 00 00 00 00 00 00 00 00 00 00 00  |................|
 BEB7  00 00 00 00 00 00 00 00 00 00 00 00 00 00 00 00  |................|
 BEC7  00 00 00 00 00 00 00 00 00 00 00 00 00 00 00 00  |................|
 BED7  00 00 00 00 00 00 00 00 00 00 00 00 00 00 00 00  |................|
 BEE7  00 00 00 00 00 00 00 00 00 00 00 00 00 00 00 00  |................|
 BEF7  00 00 00 00 00 00 00 00 00 00 00 00 00 00 00 00  |................|
 BF07  00 00 00 00 00 00 00 00 00 00 00 00 00 00 00 00  |................|
 BF17  00 00 00 00 00 00 00 00 00 00 00 00 00 00 00 00  |................|
 BF27  00 00 00 00 00 00 00 00 00 00 00 00 00 00 00 00  |................|
 BF37  00 00 00 00 00 00 00 00 00 00 00 00 00 00 00 00  |................|
 BF47  00 00 00 00 00 00 00 00 00 00 00 00 00 00 00 00  |................|
 BF57  00 00 00 00 00 00 00 00 00 00 00 00 00 00 00 00  |................|
 BF67  00 00 00 00 00 00 00 00 00 00 00 00 00 00 00 00  |................|
 BF77  00 00 00 00 00 00 00 00 00 00 00 00 00 00 00 00  |................|
 BF87  00 00 00 00 00 00 00 00 00 00 00 00 00 00 00 00  |................|
 BF97  00 00 00 00 00 00 00 00 00 00 00 00 00 00 00 00  |................|
 BFA7  00 00 00 00 00 00 00 00 00 00 00 00 00 00 00 00  |................|
 BFB7  00 00 00 00 00 00 00 00 00 00 00 00 00 00 00 00  |................|
 BFC7  00 00 00 00 00 00 00 00 00 00 00 00 00 00 00 00  |................|
 BFD7  00 00 00 00 00 00 00 00 00 00 00 00 00 00 00 00  |................|
 BFE7  00 00 00 00 00 00 00 00 00 00 00 00 00 00 00 00  |................|
 BFF7  00 00 00 00 00 00 00 00 00 00 00 00 00 00 00 00  |................|
 C007  00 00 00 00 00 00 00 00 00 00 00 00 00 00 00 00  |................|
 C017  00 00 00 00 00 00 00 00 00 00 00 00 00 00 00 00  |................|
 C027  00 00 00 00 00 00 00 00 00 00 00 00 00 00 00 00  |................|
 C037  00 00 00 00 00 00 00 00 00 00 00 00 00 00 00 00  |................|
 C047  00 00 00 00 00 00 00 00 00 00 00 00 00 00 00 00  |................|
 C057  00 00 00 00 00 00 00 00 00 00 00 00 00 00 00 00  |................|
 C067  00 00 00 00 00 00 00 00 00 00 00 00 00 00 00 00  |................|
 C077  00 00 00 00 00 00 00 00 00 00 00 00 00 00 00 00  |................|
 C087  00 00 00 00 00 00 00 00 00 00 00 00 00 00 00 00  |................|
 C097  00 00 00 00 00 00 00 00 00 00 00 00 00 00 00 00  |................|
 C0A7  00 00 00 00 00 00 00 00 00 00 00 00 00 00 00 00  |................|
 C0B7  00 00 00 00 00 00 00 00 00 00 00 00 00 00 00 00  |................|
 C0C7  00 00 00 00 00 00 00 00 00 00 00 00 00 00 00 00  |................|
 C0D7  00 00 00 00 00 00 00 00 00 00 00 00 00 00 00 00  |................|
 C0E7  00 00 00 00 00 00 00 00 00 00 00 00 00 00 00 00  |................|
 C0F7  00 00 00 00 00 00 00 00 00 00 00 00 00 00 00 00  |................|
 C107  00 00 00 00 00 00 00 00 00 00 00 00 00 00 00 00  |................|
 C117  00 00 00 00 00 00 00 00 00 00 00 00 00 00 00 00  |................|
 C127  00 00 00 00 00 00 00 00 00 00 00 00 00 00 00 00  |................|
 C137  00 00 00 00 00 00 00 00 00 00 00 00 00 00 00 00  |................|
 C147  00 00 00 00 00 00 00 00 00 00 00 00 00 00 00 00  |................|
 C157  00 00 00 00 00 00 00 00 00 00 00 00 00 00 00 00  |................|
 C167  00 00 00 00 00 00 00 00 00 00 00 00 00 00 00 00  |................|
 C177  00 00 00 00 00 00 00 00 00 00 00 00 00 00 00 00  |................|
 C187  00 00 00 00 00 00 00 00 00 00 00 00 00 00 00 00  |................|
 C197  00 00 00 00 00 00 00 00 00 00 00 00 00 00 00 00  |................|
 C1A7  00 00 00 00 00 00 00 00 00 00 00 00 00 00 00 00  |................|
 C1B7  00 00 00 00 00 00 00 00 00 00 00 00 00 00 00 00  |................|
 C1C7  00 00 00 00 00 00 00 00 00 00 00 00 00 00 00 00  |................|
 C1D7  00 00 00 00 00 00 00 00 00 00 00 00 00 00 00 00  |................|
 C1E7  00 00 00 00 00 00 00 00 00 00 00 00 00 00 00 00  |................|
 C1F7  00 00 00 00 00 00 00 00 00 00 00 00 00 00 00 00  |................|
 C207  00 00 00 00 00 00 00 00 00 00 00 00 00 00 00 00  |................|
 C217  00 00 00 00 00 00 00 00 00 00 00 00 00 00 00 00  |................|
 C227  00 00 00 00 00 00 00 00 00 00 00 00 00 00 00 00  |................|
 C237  00 00 00 00 00 00 00 00 00 00 00 00 00 00 00 00  |................|
 C247  00 00 00 00 00 00 00 00 00 00 00 00 00 00 00 00  |................|
 C257  00 00 00 00 00 00 00 00 00 00 00 00 00 00 00 00  |................|
 C267  00 00 00 00 00 00 00 00 00 00 00 00 00 00 00 00  |................|
 C277  00 00 00 00 00 00 00 00 00 00 00 00 00 00 00 00  |................|
 C287  00 00 00 00 00 00 00 00 00 00 00 00 00 00 00 00  |................|
 C297  00 00 00 00 00 00 00 00 00 00 00 00 00 00 00 00  |................|
 C2A7  00 00 00 00 00 00 00 00 00 00 00 00 00 00 00 00  |................|
 C2B7  00 00 00 00 00 00 00 00 00 00 00 00 00 00 00 00  |................|
 C2C7  00 00 00 00 00 00 00 00 00 00 00 00 00 00 00 00  |................|
 C2D7  00 00 00 00 00 00 00 00 00 00 00 00 00 00 00 00  |................|
 C2E7  00 00 00 00 00 00 00 00 00 00 00 00 00 00 00 00  |................|
 C2F7  00 00 00 00 00 00 00 00 00 00 00 00 00 00 00 00  |................|
 C307  00 00 00 00 00 00 00 00 00 00 00 00 00 00 00 00  |................|
 C317  00 00 00 00 00 00 00 00 00 00 00 00 00 00 00 00  |................|
 C327  00 00 00 00 00 00 00 00 00 00 00 00 00 00 00 00  |................|
 C337  00 00 00 00 00 00 00 00 00 00 00 00 00 00 00 00  |................|
 C347  00 00 00 00 00 00 00 00 00 00 00 00 00 00 00 00  |................|
 C357  00 00 00 00 00 00 00 00 00 00 00 00 00 00 00 00  |................|
 C367  00 00 00 00 00 00 00 00 00 00 00 00 00 00 00 00  |................|
 C377  00 00 00 00 00 00 00 00 00 00 00 00 00 00 00 00  |................|
 C387  00 00 00 00 00 00 00 00 00 00 00 00 00 00 00 00  |................|
 C397  00 00 00 00 00 00 00 00 00 00 00 00 00 00 00 00  |................|
 C3A7  00 00 00 00 00 00 00 00 00 00 00 00 00 00 00 00  |................|
 C3B7  00 00 00 00 00 00 00 00 00 00 00 00 00 00 00 00  |................|
 C3C7  00 00 00 00 00 00 00 00 00 00 00 00 00 00 00 00  |................|
 C3D7  00 00 00 00 00 00 00 00 00 00 00 00 00 00 00 00  |................|
 C3E7  00 00 00 00 00 00 00 00 00 00 00 00 00 00 00 00  |................|
 C3F7  00 00 00 00 00 00 00 00 00 00 00 00 00 00 00 00  |................|
 C407  00 00 00 00 00 00 00 00 00 00 00 00 00 00 00 00  |................|
 C417  00 00 00 00 00 00 00 00 00 00 00 00 00 00 00 00  |................|
 C427  00 00 00 00 00 00 00 00 00 00 00 00 00 00 00 00  |................|
 C437  00 00 00 00 00 00 00 00 00 00 00 00 00 00 00 00  |................|
 C447  00 00 00 00 00 00 00 00 00 00 00 00 00 00 00 00  |................|
 C457  00 00 00 00 00 00 00 00 00 00 00 00 00 00 00 00  |................|
 C467  00 00 00 00 00 00 00 00 00 00 00 00 00 00 00 00  |................|
 C477  00 00 00 00 00 00 00 00 00 00 00 00 00 00 00 00  |................|
 C487  00 00 00 00 00 00 00 00 00 00 00 00 00 00 00 00  |................|
 C497  00 00 00 00 00 00 00 00 00 00 00 00 00 00 00 00  |................|
 C4A7  00 00 00 00 00 00 00 00 00 00 00 00 00 00 00 00  |................|
 C4B7  00 00 00 00 00 00 00 00 00 00 00 00 00 00 00 00  |................|
 C4C7  00 00 00 00 00 00 00 00 00 00 00 00 00 00 00 00  |................|
 C4D7  00 00 00 00 00 00 00 00 00 00 00 00 00 00 00 00  |................|
 C4E7  00 00 00 00 00 00 00 00 00 00 00 00 00 00 00 00  |................|
 C4F7  00 00 00 00 00 00 00 00 00 00 00 00 00 00 00 00  |................|
 C507  00 00 00 00 00 00 00 00 00 00 00 00 00 00 00 00  |................|
 C517  00 00 00 00 00 00 00 00 00 00 00 00 00 00 00 00  |................|
 C527  00 00 00 00 00 00 00 00 00 00 00 00 00 00 00 00  |................|
 C537  00 00 00 00 00 00 00 00 00 00 00 00 00 00 00 00  |................|
 C547  00 00 00 00 00 00 00 00 00 00 00 00 00 00 00 00  |................|
 C557  00 00 00 00 00 00 00 00 00 00 00 00 00 00 00 00  |................|
 C567  00 00 00 00 00 00 00 00 00 00 00 00 00 00 00 00  |................|
 C577  00 00 00 00 00 00 00 00 00 00 00 00 00 00 00 00  |................|
 C587  00 00 00 00 00 00 00 00 00 00 00 00 00 00 00 00  |................|
 C597  00 00 00 00 00 00 00 00 00 00 00 00 00 00 00 00  |................|
 C5A7  00 00 00 00 00 00 00 00 00 00 00 00 00 00 00 00  |................|
 C5B7  00 00 00 00 00 00 00 00 00 00 00 00 00 00 00 00  |................|
 C5C7  00 00 00 00 00 00 00 00 00 00 00 00 00 00 00 00  |................|
 C5D7  00 00 00 00 00 00 00 00 00 00 00 00 00 00 00 00  |................|
 C5E7  00 00 00 00 00 00 00 00 00 00 00 00 00 00 00 00  |................|
 C5F7  00 00 00 00 00 00 00 00 00 00 00 00 00 00 00 00  |................|
 C607  00 00 00 00 00 00 00 00 00 00 00 00 00 00 00 00  |................|
 C617  00 00 00 00 00 00 00 00 00 00 00 00 00 00 00 00  |................|
 C627  00 00 00 00 00 00 00 00 00 00 00 00 00 00 00 00  |................|
 C637  00 00 00 00 00 00 00 00 00 00 00 00 00 00 00 00  |................|
 C647  00 00 00 00 00 00 00 00 00 00 00 00 00 00 00 00  |................|
 C657  00 00 00 00 00 00 00 00 00 00 00 00 00 00 00 00  |................|
 C667  00 00 00 00 00 00 00 00 00 00 00 00 00 00 00 00  |................|
 C677  00 00 00 00 00 00 00 00 00 00 00 00 00 00 00 00  |................|
 C687  00 00 00 00 00 00 00 00 00 00 00 00 00 00 00 00  |................|
 C697  00 00 00 00 00 00 00 00 00 00 00 00 00 00 00 00  |................|
 C6A7  00 00 00 00 00 00 00 00 00 00 00 00 00 00 00 00  |................|
 C6B7  00 00 00 00 00 00 00 00 00 00 00 00 00 00 00 00  |................|
 C6C7  00 00 00 00 00 00 00 00 00 00 00 00 00 00 00 00  |................|
 C6D7  00 00 00 00 00 00 00 00 00 00 00 00 00 00 00 00  |................|
 C6E7  00 00 00 00 00 00 00 00 00 00 00 00 00 00 00 00  |................|
 C6F7  00 00 00 00 00 00 00 00 00 00 00 00 00 00 00 00  |................|
 C707  00 00 00 00 00 00 00 00 00 00 00 00 00 00 00 00  |................|
 C717  00 00 00 00 00 00 00 00 00 00 00 00 00 00 00 00  |................|
 C727  00 00 00 00 00 00 00 00 00 00 00 00 00 00 00 00  |................|
 C737  00 00 00 00 00 00 00 00 00 00 00 00 00 00 00 00  |................|
 C747  00 00 00 00 00 00 00 00 00 00 00 00 00 00 00 00  |................|
 C757  00 00 00 00 00 00 00 00 00 00 00 00 00 00 00 00  |................|
 C767  00 00 00 00 00 00 00 00 00 00 00 00 00 00 00 00  |................|
 C777  00 00 00 00 00 00 00 00 00 00 00 00 00 00 00 00  |................|
 C787  00 00 00 00 00 00 00 00 00 00 00 00 00 00 00 00  |................|
 C797  00 00 00 00 00 00 00 00 00 00 00 00 00 00 00 00  |................|
 C7A7  00 00 00 00 00 00 00 00 00 00 00 00 00 00 00 00  |................|
 C7B7  00 00 00 00 00 00 00 00 00 00 00 00 00 00 00 00  |................|
 C7C7  00 00 00 00 00 00 00 00 00 00 00 00 00 00 00 00  |................|
 C7D7  00 00 00 00 00 00 00 00 00 00 00 00 00 00 00 00  |................|
 C7E7  00 00 00 00 00 00 00 00 00 00 00 00 00 00 00 00  |................|
 C7F7  00 00 00 00 00 00 00 00 00 00 00 00 00 00 00 00  |................|
 C807  00 00 00 00 00 00 00 00 00 00 00 00 00 00 00 00  |................|
 C817  00 00 00 00 00 00 00 00 00 00 00 00 00 00 00 00  |................|
 C827  00 00 00 00 00 00 00 00 00 00 00 00 00 00 00 00  |................|
 C837  00 00 00 00 00 00 00 00 00 00 00 00 00 00 00 00  |................|
 C847  00 00 00 00 00 00 00 00 00 00 00 00 00 00 00 00  |................|
 C857  00 00 00 00 00 00 00 00 00 00 00 00 00 00 00 00  |................|
 C867  00 00 00 00 00 00 00 00 00 00 00 00 00 00 00 00  |................|
 C877  00 00 00 00 00 00 00 00 00 00 00 00 00 00 00 00  |................|
 C887  00 00 00 00 00 00 00 00 00 00 00 00 00 00 00 00  |................|
 C897  00 00 00 00 00 00 00 00 00 00 00 00 00 00 00 00  |................|
 C8A7  00 00 00 00 00 00 00 00 00 00 00 00 00 00 00 00  |................|
 C8B7  00 00 00 00 00 00 00 00 00 00 00 00 00 00 00 00  |................|
 C8C7  00 00 00 00 00 00 00 00 00 00 00 00 00 00 00 00  |................|
 C8D7  00 00 00 00 00 00 00 00 00 00 00 00 00 00 00 00  |................|
 C8E7  00 00 00 00 00 00 00 00 00 00 00 00 00 00 00 00  |................|
 C8F7  00 00 00 00 00 00 00 00 00 00 00 00 00 00 00 00  |................|
 C907  00 00 00 00 00 00 00 00 00 00 00 00 00 00 00 00  |................|
 C917  00 00 00 00 00 00 00 00 00 00 00 00 00 00 00 00  |................|
 C927  00 00 00 00 00 00 00 00 00 00 00 00 00 00 00 00  |................|
 C937  00 00 00 00 00 00 00 00 00 00 00 00 00 00 00 00  |................|
 C947  00 00 00 00 00 00 00 00 00 00 00 00 00 00 00 00  |................|
 C957  00 00 00 00 00 00 00 00 00 00 00 00 00 00 00 00  |................|
 C967  00 00 00 00 00 00 00 00 00 00 00 00 00 00 00 00  |................|
 C977  00 00 00 00 00 00 00 00 00 00 00 00 00 00 00 00  |................|
 C987  00 00 00 00 00 00 00 00 00 00 00 00 00 00 00 00  |................|
 C997  00 00 00 00 00 00 00 00 00 00 00 00 00 00 00 00  |................|
 C9A7  00 00 00 00 00 00 00 00 00 00 00 00 00 00 00 00  |................|
 C9B7  00 00 00 00 00 00 00 00 00 00 00 00 00 00 00 00  |................|
 C9C7  00 00 00 00 00 00 00 00 00 00 00 00 00 00 00 00  |................|
 C9D7  00 00 00 00 00 00 00 00 00 00 00 00 00 00 00 00  |................|
 C9E7  00 00 00 00 00 00 00 00 00 00 00 00 00 00 00 00  |................|
 C9F7  00 00 00 00 00 00 00 00 00 00 00 00 00 00 00 00  |................|
 CA07  00 00 00 00 00 00 00 00 00 00 00 00 00 00 00 00  |................|
 CA17  00 00 00 00 00 00 00 00 00 00 00 00 00 00 00 00  |................|
 CA27  00 00 00 00 00 00 00 00 00 00 00 00 00 00 00 00  |................|
 CA37  00 00 00 00 00 00 00 00 00 00 00 00 00 00 00 00  |................|
 CA47  00 00 00 00 00 00 00 00 00 00 00 00 00 00 00 00  |................|
 CA57  00 00 00 00 00 00 00 00 00 00 00 00 00 00 00 00  |................|
 CA67  00 00 00 00 00 00 00 00 00 00 00 00 00 00 00 00  |................|
 CA77  00 00 00 00 00 00 00 00 00 00 00 00 00 00 00 00  |................|
 CA87  00 00 00 00 00 00 00 00 00 00 00 00 00 00 00 00  |................|
 CA97  00 00 00 00 00 00 00 00 00 00 00 00 00 00 00 00  |................|
 CAA7  00 00 00 00 00 00 00 00 00 00 00 00 00 00 00 00  |................|
 CAB7  00 00 00 00 00 00 00 00 00 00 00 00 00 00 00 00  |................|
 CAC7  00 00 00 00 00 00 00 00 00 00 00 00 00 00 00 00  |................|
 CAD7  00 00 00 00 00 00 00 00 00 00 00 00 00 00 00 00  |................|
 CAE7  00 00 00 00 00 00 00 00 00 00 00 00 00 00 00 00  |................|
 CAF7  00 00 00 00 00 00 00 00 00 00 00 00 00 00 00 00  |................|
 CB07  00 00 00 00 00 00 00 00 00 00 00 00 00 00 00 00  |................|
 CB17  00 00 00 00 00 00 00 00 00 00 00 00 00 00 00 00  |................|
 CB27  00 00 00 00 00 00 00 00 00 00 00 00 00 00 00 00  |................|
 CB37  00 00 00 00 00 00 00 00 00 00 00 00 00 00 00 00  |................|
 CB47  00 00 00 00 00 00 00 00 00 00 00 00 00 00 00 00  |................|
 CB57  00 00 00 00 00 00 00 00 00 00 00 00 00 00 00 00  |................|
 CB67  00 00 00 00 00 00 00 00 00 00 00 00 00 00 00 00  |................|
 CB77  00 00 00 00 00 00 00 00 00 00 00 00 00 00 00 00  |................|
 CB87  00 00 00 00 00 00 00 00 00 00 00 00 00 00 00 00  |................|
 CB97  00 00 00 00 00 00 00 00 00 00 00 00 00 00 00 00  |................|
 CBA7  00 00 00 00 00 00 00 00 00 00 00 00 00 00 00 00  |................|
 CBB7  00 00 00 00 00 00 00 00 00 00 00 00 00 00 00 00  |................|
 CBC7  00 00 00 00 00 00 00 00 00 00 00 00 00 00 00 00  |................|
 CBD7  00 00 00 00 00 00 00 00 00 00 00 00 00 00 00 00  |................|
 CBE7  00 00 00 00 00 00 00 00 00 00 00 00 00 00 00 00  |................|
 CBF7  00 00 00 00 00 00 00 00 00 00 00 00 00 00 00 00  |................|
 CC07  00 00 00 00 00 00 00 00 00 00 00 00 00 00 00 00  |................|
 CC17  00 00 00 00 00 00 00 00 00 00 00 00 00 00 00 00  |................|
 CC27  00 00 00 00 00 00 00 00 00 00 00 00 00 00 00 00  |................|
 CC37  00 00 00 00 00 00 00 00 00 00 00 00 00 00 00 00  |................|
 CC47  00 00 00 00 00 00 00 00 00 00 00 00 00 00 00 00  |................|
 CC57  00 00 00 00 00 00 00 00 00 00 00 00 00 00 00 00  |................|
 CC67  00 00 00 00 00 00 00 00 00 00 00 00 00 00 00 00  |................|
 CC77  00 00 00 00 00 00 00 00 00 00 00 00 00 00 00 00  |................|
 CC87  00 00 00 00 00 00 00 00 00 00 00 00 00 00 00 00  |................|
 CC97  00 00 00 00 00 00 00 00 00 00 00 00 00 00 00 00  |................|
 CCA7  00 00 00 00 00 00 00 00 00 00 00 00 00 00 00 00  |................|
 CCB7  00 00 00 00 00 00 00 00 00 00 00 00 00 00 00 00  |................|
 CCC7  00 00 00 00 00 00 00 00 00 00 00 00 00 00 00 00  |................|
 CCD7  00 00 00 00 00 00 00 00 00 00 00 00 00 00 00 00  |................|
 CCE7  00 00 00 00 00 00 00 00 00 00 00 00 00 00 00 00  |................|
 CCF7  00 00 00 00 00 00 00 00 00 00 00 00 00 00 00 00  |................|
 CD07  00 00 00 00 00 00 00 00 00 00 00 00 00 00 00 00  |................|
 CD17  00 00 00 00 00 00 00 00 00 00 00 00 00 00 00 00  |................|
 CD27  00 00 00 00 00 00 00 00 00 00 00 00 00 00 00 00  |................|
 CD37  00 00 00 00 00 00 00 00 00 00 00 00 00 00 00 00  |................|
 CD47  00 00 00 00 00 00 00 00 00 00 00 00 00 00 00 00  |................|
 CD57  00 00 00 00 00 00 00 00 00 00 00 00 00 00 00 00  |................|
 CD67  00 00 00 00 00 00 00 00 00 00 00 00 00 00 00 00  |................|
 CD77  00 00 00 00 00 00 00 00 00 00 00 00 00 00 00 00  |................|
 CD87  00 00 00 00 00 00 00 00 00 00 00 00 00 00 00 00  |................|
 CD97  00 00 00 00 00 00 00 00 00 00 00 00 00 00 00 00  |................|
 CDA7  00 00 00 00 00 00 00 00 00 00 00 00 00 00 00 00  |................|
 CDB7  00 00 00 00 00 00 00 00 00 00 00 00 00 00 00 00  |................|
 CDC7  00 00 00 00 00 00 00 00 00 00 00 00 00 00 00 00  |................|
 CDD7  00 00 00 00 00 00 00 00 00 00 00 00 00 00 00 00  |................|
 CDE7  00 00 00 00 00 00 00 00 00 00 00 00 00 00 00 00  |................|
 CDF7  00 00 00 00 00 00 00 00 00 00 00 00 00 00 00 00  |................|
 CE07  00 00 00 00 00 00 00 00 00 00 00 00 00 00 00 00  |................|
 CE17  00 00 00 00 00 00 00 00 00 00 00 00 00 00 00 00  |................|
 CE27  00 00 00 00 00 00 00 00 00 00 00 00 00 00 00 00  |................|
 CE37  00 00 00 00 00 00 00 00 00 00 00 00 00 00 00 00  |................|
 CE47  00 00 00 00 00 00 00 00 00 00 00 00 00 00 00 00  |................|
 CE57  00 00 00 00 00 00 00 00 00 00 00 00 00 00 00 00  |................|
 CE67  00 00 00 00 00 00 00 00 00 00 00 00 00 00 00 00  |................|
 CE77  00 00 00 00 00 00 00 00 00 00 00 00 00 00 00 00  |................|
 CE87  00 00 00 00 00 00 00 00 00 00 00 00 00 00 00 00  |................|
 CE97  00 00 00 00 00 00 00 00 00 00 00 00 00 00 00 00  |................|
 CEA7  00 00 00 00 00 00 00 00 00 00 00 00 00 00 00 00  |................|
 CEB7  00 00 00 00 00 00 00 00 00 00 00 00 00 00 00 00  |................|
 CEC7  00 00 00 00 00 00 00 00 00 00 00 00 00 00 00 00  |................|
 CED7  00 00 00 00 00 00 00 00 00 00 00 00 00 00 00 00  |................|
 CEE7  00 00 00 00 00 00 00 00 00 00 00 00 00 00 00 00  |................|
 CEF7  00 00 00 00 00 00 00 00 00 00 00 00 00 00 00 00  |................|
 CF07  00 00 00 00 00 00 00 00 00 00 00 00 00 00 00 00  |................|
 CF17  00 00 00 00 00 00 00 00 00 00 00 00 00 00 00 00  |................|
 CF27  00 00 00 00 00 00 00 00 00 00 00 00 00 00 00 00  |................|
 CF37  00 00 00 00 00 00 00 00 00 00 00 00 00 00 00 00  |................|
 CF47  00 00 00 00 00 00 00 00 00 00 00 00 00 00 00 00  |................|
 CF57  00 00 00 00 00 00 00 00 00 00 00 00 00 00 00 00  |................|
 CF67  00 00 00 00 00 00 00 00 00 00 00 00 00 00 00 00  |................|
 CF77  00 00 00 00 00 00 00 00 00 00 00 00 00 00 00 00  |................|
 CF87  00 00 00 00 00 00 00 00 00 00 00 00 00 00 00 00  |................|
 CF97  00 00 00 00 00 00 00 00 00 00 00 00 00 00 00 00  |................|
 CFA7  00 00 00 00 00 00 00 00 00 00 00 00 00 00 00 00  |................|
 CFB7  00 00 00 00 00 00 00 00 00 00 00 00 00 00 00 00  |................|
 CFC7  00 00 00 00 00 00 00 00 00 00 00 00 00 00 00 00  |................|
 CFD7  00 00 00 00 00 00 00 00 00 00 00 00 00 00 00 00  |................|
 CFE7  00 00 00 00 00 00 00 00 00 00 00 00 00 00 00 00  |................|
 CFF7  00 00 00 00 00 00 00 00 00 00 00 00 00 00 00 00  |................|
 D007  00 00 00 00 00 00 00 00 00 00 00 00 00 00 00 00  |................|
 D017  00 00 00 00 00 00 00 00 00 00 00 00 00 00 00 00  |................|
 D027  00 00 00 00 00 00 00 00 00 00 00 00 00 00 00 00  |................|
 D037  00 00 00 00 00 00 00 00 00 00 00 00 00 00 00 00  |................|
 D047  00 00 00 00 00 00 00 00 00 00 00 00 00 00 00 00  |................|
 D057  00 00 00 00 00 00 00 00 00 00 00 00 00 00 00 00  |................|
 D067  00 00 00 00 00 00 00 00 00 00 00 00 00 00 00 00  |................|
 D077  00 00 00 00 00 00 00 00 00 00 00 00 00 00 00 00  |................|
 D087  00 00 00 00 00 00 00 00 00 00 00 00 00 00 00 00  |................|
 D097  00 00 00 00 00 00 00 00 00 00 00 00 00 00 00 00  |................|
 D0A7  00 00 00 00 00 00 00 00 00 00 00 00 00 00 00 00  |................|
 D0B7  00 00 00 00 00 00 00 00 00 00 00 00 00 00 00 00  |................|
 D0C7  00 00 00 00 00 00 00 00 00 00 00 00 00 00 00 00  |................|
 D0D7  00 00 00 00 00 00 00 00 00 00 00 00 00 00 00 00  |................|
 D0E7  00 00 00 00 00 00 00 00 00 00 00 00 00 00 00 00  |................|
 D0F7  00 00 00 00 00 00 00 00 00 00 00 00 00 00 00 00  |................|
 D107  00 00 00 00 00 00 00 00 00 00 00 00 00 00 00 00  |................|
 D117  00 00 00 00 00 00 00 00 00 00 00 00 00 00 00 00  |................|
 D127  00 00 00 00 00 00 00 00 00 00 00 00 00 00 00 00  |................|
 D137  00 00 00 00 00 00 00 00 00 00 00 00 00 00 00 00  |................|
 D147  00 00 00 00 00 00 00 00 00 00 00 00 00 00 00 00  |................|
 D157  00 00 00 00 00 00 00 00 00 00 00 00 00 00 00 00  |................|
 D167  00 00 00 00 00 00 00 00 00 00 00 00 00 00 00 00  |................|
 D177  00 00 00 00 00 00 00 00 00 00 00 00 00 00 00 00  |................|
 D187  00 00 00 00 00 00 00 00 00 00 00 00 00 00 00 00  |................|
 D197  00 00 00 00 00 00 00 00 00 00 00 00 00 00 00 00  |................|
 D1A7  00 00 00 00 00 00 00 00 00 00 00 00 00 00 00 00  |................|
 D1B7  00 00 00 00 00 00 00 00 00 00 00 00 00 00 00 00  |................|
 D1C7  00 00 00 00 00 00 00 00 00 00 00 00 00 00 00 00  |................|
 D1D7  00 00 00 00 00 00 00 00 00 00 00 00 00 00 00 00  |................|
 D1E7  00 00 00 00 00 00 00 00 00 00 00 00 00 00 00 00  |................|
 D1F7  00 00 00 00 00 00 00 00 00 00 00 00 00 00 00 00  |................|
 D207  00 00 00 00 00 00 00 00 00 00 00 00 00 00 00 00  |................|
 D217  00 00 00 00 00 00 00 00 00 00 00 00 00 00 00 00  |................|
 D227  00 00 00 00 00 00 00 00 00 00 00 00 00 00 00 00  |................|
 D237  00 00 00 00 00 00 00 00 00 00 00 00 00 00 00 00  |................|
 D247  00 00 00 00 00 00 00 00 00 00 00 00 00 00 00 00  |................|
 D257  00 00 00 00 00 00 00 00 00 00 00 00 00 00 00 00  |................|
 D267  00 00 00 00 00 00 00 00 00 00 00 00 00 00 00 00  |................|
 D277  00 00 00 00 00 00 00 00 00 00 00 00 00 00 00 00  |................|
 D287  00 00 00 00 00 00 00 00 00 00 00 00 00 00 00 00  |................|
 D297  00 00 00 00 00 00 00 00 00 00 00 00 00 00 00 00  |................|
 D2A7  00 00 00 00 00 00 00 00 00 00 00 00 00 00 00 00  |................|
 D2B7  00 00 00 00 00 00 00 00 00 00 00 00 00 00 00 00  |................|
 D2C7  00 00 00 00 00 00 00 00 00 00 00 00 00 00 00 00  |................|
 D2D7  00 00 00 00 00 00 00 00 00 00 00 00 00 00 00 00  |................|
 D2E7  00 00 00 00 00 00 00 00 00 00 00 00 00 00 00 00  |................|
 D2F7  00 00 00 00 00 00 00 00 00 00 00 00 00 00 00 00  |................|
 D307  00 00 00 00 00 00 00 00 00 00 00 00 00 00 00 00  |................|
 D317  00 00 00 00 00 00 00 00 00 00 00 00 00 00 00 00  |................|
 D327  00 00 00 00 00 00 00 00 00 00 00 00 00 00 00 00  |................|
 D337  00 00 00 00 00 00 00 00 00 00 00 00 00 00 00 00  |................|
 D347  00 00 00 00 00 00 00 00 00 00 00 00 00 00 00 00  |................|
 D357  00 00 00 00 00 00 00 00 00 00 00 00 00 00 00 00  |................|
 D367  00 00 00 00 00 00 00 00 00 00 00 00 00 00 00 00  |................|
 D377  00 00 00 00 00 00 00 00 00 00 00 00 00 00 00 00  |................|
 D387  00 00 00 00 00 00 00 00 00 00 00 00 00 00 00 00  |................|
 D397  00 00 00 00 00 00 00 00 00 00 00 00 00 00 00 00  |................|
 D3A7  00 00 00 00 00 00 00 00 00 00 00 00 00 00 00 00  |................|
 D3B7  00 00 00 00 00 00 00 00 00 00 00 00 00 00 00 00  |................|
 D3C7  00 00 00 00 00 00 00 00 00 00 00 00 00 00 00 00  |................|
 D3D7  00 00 00 00 00 00 00 00 00 00 00 00 00 00 00 00  |................|
 D3E7  00 00 00 00 00 00 00 00 00 00 00 00 00 00 00 00  |................|
 D3F7  00 00 00 00 00 00 00 00 00 00 00 00 00 00 00 00  |................|
 D407  00 00 00 00 00 00 00 00 00 00 00 00 00 00 00 00  |................|
 D417  00 00 00 00 00 00 00 00 00 00 00 00 00 00 00 00  |................|
 D427  00 00 00 00 00 00 00 00 00 00 00 00 00 00 00 00  |................|
 D437  00 00 00 00 00 00 00 00 00 00 00 00 00 00 00 00  |................|
 D447  00 00 00 00 00 00 00 00 00 00 00 00 00 00 00 00  |................|
 D457  00 00 00 00 00 00 00 00 00 00 00 00 00 00 00 00  |................|
 D467  00 00 00 00 00 00 00 00 00 00 00 00 00 00 00 00  |................|
 D477  00 00 00 00 00 00 00 00 00 00 00 00 00 00 00 00  |................|
 D487  00 00 00 00 00 00 00 00 00 00 00 00 00 00 00 00  |................|
 D497  00 00 00 00 00 00 00 00 00 00 00 00 00 00 00 00  |................|
 D4A7  00 00 00 00 00 00 00 00 00 00 00 00 00 00 00 00  |................|
 D4B7  00 00 00 00 00 00 00 00 00 00 00 00 00 00 00 00  |................|
 D4C7  00 00 00 00 00 00 00 00 00 00 00 00 00 00 00 00  |................|
 D4D7  00 00 00 00 00 00 00 00 00 00 00 00 00 00 00 00  |................|
 D4E7  00 00 00 00 00 00 00 00 00 00 00 00 00 00 00 00  |................|
 D4F7  00 00 00 00 00 00 00 00 00 00 00 00 00 00 00 00  |................|
 D507  00 00 00 00 00 00 00 00 00 00 00 00 00 00 00 00  |................|
 D517  00 00 00 00 00 00 00 00 00 00 00 00 00 00 00 00  |................|
 D527  00 00 00 00 00 00 00 00 00 00 00 00 00 00 00 00  |................|
 D537  00 00 00 00 00 00 00 00 00 00 00 00 00 00 00 00  |................|
 D547  00 00 00 00 00 00 00 00 00 00 00 00 00 00 00 00  |................|
 D557  00 00 00 00 00 00 00 00 00 00 00 00 00 00 00 00  |................|
 D567  00 00 00 00 00 00 00 00 00 00 00 00 00 00 00 00  |................|
 D577  00 00 00 00 00 00 00 00 00 00 00 00 00 00 00 00  |................|
 D587  00 00 00 00 00 00 00 00 00 00 00 00 00 00 00 00  |................|
 D597  00 00 00 00 00 00 00 00 00 00 00 00 00 00 00 00  |................|
 D5A7  00 00 00 00 00 00 00 00 00 00 00 00 00 00 00 00  |................|
 D5B7  00 00 00 00 00 00 00 00 00 00 00 00 00 00 00 00  |................|
 D5C7  00 00 00 00 00 00 00 00 00 00 00 00 00 00 00 00  |................|
 D5D7  00 00 00 00 00 00 00 00 00 00 00 00 00 00 00 00  |................|
 D5E7  00 00 00 00 00 00 00 00 00 00 00 00 00 00 00 00  |................|
 D5F7  00 00 00 00 00 00 00 00 00 00 00 00 00 00 00 00  |................|
 D607  00 00 00 00 00 00 00 00 00 00 00 00 00 00 00 00  |................|
 D617  00 00 00 00 00 00 00 00 00 00 00 00 00 00 00 00  |................|
 D627  00 00 00 00 00 00 00 00 00 00 00 00 00 00 00 00  |................|
 D637  00 00 00 00 00 00 00 00 00 00 00 00 00 00 00 00  |................|
 D647  00 00 00 00 00 00 00 00 00 00 00 00 00 00 00 00  |................|
 D657  00 00 00 00 00 00 00 00 00 00 00 00 00 00 00 00  |................|
 D667  00 00 00 00 00 00 00 00 00 00 00 00 00 00 00 00  |................|
 D677  00 00 00 00 00 00 00 00 00 00 00 00 00 00 00 00  |................|
 D687  00 00 00 00 00 00 00 00 00 00 00 00 00 00 00 00  |................|
 D697  00 00 00 00 00 00 00 00 00 00 00 00 00 00 00 00  |................|
 D6A7  00 00 00 00 00 00 00 00 00 00 00 00 00 00 00 00  |................|
 D6B7  00 00 00 00 00 00 00 00 00 00 00 00 00 00 00 00  |................|
 D6C7  00 00 00 00 00 00 00 00 00 00 00 00 00 00 00 00  |................|
 D6D7  00 00 00 00 00 00 00 00 00 00 00 00 00 00 00 00  |................|
 D6E7  00 00 00 00 00 00 00 00 00 00 00 00 00 00 00 00  |................|
 D6F7  00 00 00 00 00 00 00 00 00 00 00 00 00 00 00 00  |................|
 D707  00 00 00 00 00 00 00 00 00 00 00 00 00 00 00 00  |................|
 D717  00 00 00 00 00 00 00 00 00 00 00 00 00 00 00 00  |................|
 D727  00 00 00 00 00 00 00 00 00 00 00 00 00 00 00 00  |................|
 D737  00 00 00 00 00 00 00 00 00 00 00 00 00 00 00 00  |................|
 D747  00 00 00 00 00 00 00 00 00 00 00 00 00 00 00 00  |................|
 D757  00 00 00 00 00 00 00 00 00 00 00 00 00 00 00 00  |................|
 D767  00 00 00 00 00 00 00 00 00 00 00 00 00 00 00 00  |................|
 D777  00 00 00 00 00 00 00 00 00 00 00 00 00 00 00 00  |................|
 D787  00 00 00 00 00 00 00 00 00 00 00 00 00 00 00 00  |................|
 D797  00 00 00 00 00 00 00 00 00 00 00 00 00 00 00 00  |................|
 D7A7  00 00 00 00 00 00 00 00 00 00 00 00 00 00 00 00  |................|
 D7B7  00 00 00 00 00 00 00 00 00 00 00 00 00 00 00 00  |................|
 D7C7  00 00 00 00 00 00 00 00 00 00 00 00 00 00 00 00  |................|
 D7D7  00 00 00 00 00 00 00 00 00 00 00 00 00 00 00 00  |................|
 D7E7  00 00 00 00 00 00 00 00 00 00 00 00 00 00 00 00  |................|
 D7F7  00 00 00 00 00 00 00 00 00 00 00 00 00 00 00 00  |................|
 D807  00 00 00 00 00 00 00 00 00 00 00 00 00 00 00 00  |................|
 D817  00 00 00 00 00 00 00 00 00 00 00 00 00 00 00 00  |................|
 D827  00 00 00 00 00 00 00 00 00 00 00 00 00 00 00 00  |................|
 D837  00 00 00 00 00 00 00 00 00 00 00 00 00 00 00 00  |................|
 D847  00 00 00 00 00 00 00 00 00 00 00 00 00 00 00 00  |................|
 D857  00 00 00 00 00 00 00 00 00 00 00 00 00 00 00 00  |................|
 D867  00 00 00 00 00 00 00 00 00 00 00 00 00 00 00 00  |................|
 D877  00 00 00 00 00 00 00 00 00 00 00 00 00 00 00 00  |................|
 D887  00 00 00 00 00 00 00 00 00 00 00 00 00 00 00 00  |................|
 D897  00 00 00 00 00 00 00 00 00 00 00 00 00 00 00 00  |................|
 D8A7  00 00 00 00 00 00 00 00 00 00 00 00 00 00 00 00  |................|
 D8B7  00 00 00 00 00 00 00 00 00 00 00 00 00 00 00 00  |................|
 D8C7  00 00 00 00 00 00 00 00 00 00 00 00 00 00 00 00  |................|
 D8D7  00 00 00 00 00 00 00 00 00 00 00 00 00 00 00 00  |................|
 D8E7  00 00 00 00 00 00 00 00 00 00 00 00 00 00 00 00  |................|
 D8F7  00 00 00 00 00 00 00 00 00 00 00 00 00 00 00 00  |................|
 D907  00 00 00 00 00 00 00 00 00 00 00 00 00 00 00 00  |................|
 D917  00 00 00 00 00 00 00 00 00 00 00 00 00 00 00 00  |................|
 D927  00 00 00 00 00 00 00 00 00 00 00 00 00 00 00 00  |................|
 D937  00 00 00 00 00 00 00 00 00 00 00 00 00 00 00 00  |................|
 D947  00 00 00 00 00 00 00 00 00 00 00 00 00 00 00 00  |................|
 D957  00 00 00 00 00 00 00 00 00 00 00 00 00 00 00 00  |................|
 D967  00 00 00 00 00 00 00 00 00 00 00 00 00 00 00 00  |................|
 D977  00 00 00 00 00 00 00 00 00 00 00 00 00 00 00 00  |................|
 D987  00 00 00 00 00 00 00 00 00 00 00 00 00 00 00 00  |................|
 D997  00 00 00 00 00 00 00 00 00 00 00 00 00 00 00 00  |................|
 D9A7  00 00 00 00 00 00 00 00 00 00 00 00 00 00 00 00  |................|
 D9B7  00 00 00 00 00 00 00 00 00 00 00 00 00 00 00 00  |................|
 D9C7  00 00 00 00 00 00 00 00 00 00 00 00 00 00 00 00  |................|
 D9D7  00 00 00 00 00 00 00 00 00 00 00 00 00 00 00 00  |................|
 D9E7  00 00 00 00 00 00 00 00 00 00 00 00 00 00 00 00  |................|
 D9F7  00 00 00 00 00 00 00 00 00 00 00 00 00 00 00 00  |................|
 DA07  00 00 00 00 00 00 00 00 00 00 00 00 00 00 00 00  |................|
 DA17  00 00 00 00 00 00 00 00 00 00 00 00 00 00 00 00  |................|
 DA27  00 00 00 00 00 00 00 00 00 00 00 00 00 00 00 00  |................|
 DA37  00 00 00 00 00 00 00 00 00 00 00 00 00 00 00 00  |................|
 DA47  00 00 00 00 00 00 00 00 00 00 00 00 00 00 00 00  |................|
 DA57  00 00 00 00 00 00 00 00 00 00 00 00 00 00 00 00  |................|
 DA67  00 00 00 00 00 00 00 00 00 00 00 00 00 00 00 00  |................|
 DA77  00 00 00 00 00 00 00 00 00 00 00 00 00 00 00 00  |................|
 DA87  00 00 00 00 00 00 00 00 00 00 00 00 00 00 00 00  |................|
 DA97  00 00 00 00 00 00 00 00 00 00 00 00 00 00 00 00  |................|
 DAA7  00 00 00 00 00 00 00 00 00 00 00 00 00 00 00 00  |................|
 DAB7  00 00 00 00 00 00 00 00 00 00 00 00 00 00 00 00  |................|
 DAC7  00 00 00 00 00 00 00 00 00 00 00 00 00 00 00 00  |................|
 DAD7  00 00 00 00 00 00 00 00 00 00 00 00 00 00 00 00  |................|
 DAE7  00 00 00 00 00 00 00 00 00 00 00 00 00 00 00 00  |................|
 DAF7  00 00 00 00 00 00 00 00 00 00 00 00 00 00 00 00  |................|
 DB07  00 00 00 00 00 00 00 00 00 00 00 00 00 00 00 00  |................|
 DB17  00 00 00 00 00 00 00 00 00 00 00 00 00 00 00 00  |................|
 DB27  00 00 00 00 00 00 00 00 00 00 00 00 00 00 00 00  |................|
 DB37  00 00 00 00 00 00 00 00 00 00 00 00 00 00 00 00  |................|
 DB47  00 00 00 00 00 00 00 00 00 00 00 00 00 00 00 00  |................|
 DB57  00 00 00 00 00 00 00 00 00 00 00 00 00 00 00 00  |................|
 DB67  00 00 00 00 00 00 00 00 00 00 00 00 00 00 00 00  |................|
 DB77  00 00 00 00 00 00 00 00 00 00 00 00 00 00 00 00  |................|
 DB87  00 00 00 00 00 00 00 00 00 00 00 00 00 00 00 00  |................|
 DB97  00 00 00 00 00 00 00 00 00 00 00 00 00 00 00 00  |................|
 DBA7  00 00 00 00 00 00 00 00 00 00 00 00 00 00 00 00  |................|
 DBB7  00 00 00 00 00 00 00 00 00 00 00 00 00 00 00 00  |................|
 DBC7  00 00 00 00 00 00 00 00 00 00 00 00 00 00 00 00  |................|
 DBD7  00 00 00 00 00 00 00 00 00 00 00 00 00 00 00 00  |................|
 DBE7  00 00 00 00 00 00 00 00 00 00 00 00 00 00 00 00  |................|
 DBF7  00 00 00 00 00 00 00 00 00 00 00 00 00 00 00 00  |................|
 DC07  00 00 00 00 00 00 00 00 00 00 00 00 00 00 00 00  |................|
 DC17  00 00 00 00 00 00 00 00 00 00 00 00 00 00 00 00  |................|
 DC27  00 00 00 00 00 00 00 00 00 00 00 00 00 00 00 00  |................|
 DC37  00 00 00 00 00 00 00 00 00 00 00 00 00 00 00 00  |................|
 DC47  00 00 00 00 00 00 00 00 00 00 00 00 00 00 00 00  |................|
 DC57  00 00 00 00 00 00 00 00 00 00 00 00 00 00 00 00  |................|
 DC67  00 00 00 00 00 00 00 00 00 00 00 00 00 00 00 00  |................|
 DC77  00 00 00 00 00 00 00 00 00 00 00 00 00 00 00 00  |................|
 DC87  00 00 00 00 00 00 00 00 00 00 00 00 00 00 00 00  |................|
 DC97  00 00 00 00 00 00 00 00 00 00 00 00 00 00 00 00  |................|
 DCA7  00 00 00 00 00 00 00 00 00 00 00 00 00 00 00 00  |................|
 DCB7  00 00 00 00 00 00 00 00 00 00 00 00 00 00 00 00  |................|
 DCC7  00 00 00 00 00 00 00 00 00 00 00 00 00 00 00 00  |................|
 DCD7  00 00 00 00 00 00 00 00 00 00 00 00 00 00 00 00  |................|
 DCE7  00 00 00 00 00 00 00 00 00 00 00 00 00 00 00 00  |................|
 DCF7  00 00 00 00 00 00 00 00 00 00 00 00 00 00 00 00  |................|
 DD07  00 00 00 00 00 00 00 00 00 00 00 00 00 00 00 00  |................|
 DD17  00 00 00 00 00 00 00 00 00 00 00 00 00 00 00 00  |................|
 DD27  00 00 00 00 00 00 00 00 00 00 00 00 00 00 00 00  |................|
 DD37  00 00 00 00 00 00 00 00 00 00 00 00 00 00 00 00  |................|
 DD47  00 00 00 00 00 00 00 00 00 00 00 00 00 00 00 00  |................|
 DD57  00 00 00 00 00 00 00 00 00 00 00 00 00 00 00 00  |................|
 DD67  00 00 00 00 00 00 00 00 00 00 00 00 00 00 00 00  |................|
 DD77  00 00 00 00 00 00 00 00 00 00 00 00 00 00 00 00  |................|
 DD87  00 00 00 00 00 00 00 00 00 00 00 00 00 00 00 00  |................|
 DD97  00 00 00 00 00 00 00 00 00 00 00 00 00 00 00 00  |................|
 DDA7  00 00 00 00 00 00 00 00 00 00 00 00 00 00 00 00  |................|
 DDB7  00 00 00 00 00 00 00 00 00 00 00 00 00 00 00 00  |................|
 DDC7  00 00 00 00 00 00 00 00 00 00 00 00 00 00 00 00  |................|
 DDD7  00 00 00 00 00 00 00 00 00 00 00 00 00 00 00 00  |................|
 DDE7  00 00 00 00 00 00 00 00 00 00 00 00 00 00 00 00  |................|
 DDF7  00 00 00 00 00 00 00 00 00 00 00 00 00 00 00 00  |................|
 DE07  00 00 00 00 00 00 00 00 00 00 00 00 00 00 00 00  |................|
 DE17  00 00 00 00 00 00 00 00 00 00 00 00 00 00 00 00  |................|
 DE27  00 00 00 00 00 00 00 00 00 00 00 00 00 00 00 00  |................|
 DE37  00 00 00 00 00 00 00 00 00 00 00 00 00 00 00 00  |................|
 DE47  00 00 00 00 00 00 00 00 00 00 00 00 00 00 00 00  |................|
 DE57  00 00 00 00 00 00 00 00 00 00 00 00 00 00 00 00  |................|
 DE67  00 00 00 00 00 00 00 00 00 00 00 00 00 00 00 00  |................|
 DE77  00 00 00 00 00 00 00 00 00 00 00 00 00 00 00 00  |................|
 DE87  00 00 00 00 00 00 00 00 00 00 00 00 00 00 00 00  |................|
 DE97  00 00 00 00 00 00 00 00 00 00 00 00 00 00 00 00  |................|
 DEA7  00 00 00 00 00 00 00 00 00 00 00 00 00 00 00 00  |................|
 DEB7  00 00 00 00 00 00 00 00 00 00 00 00 00 00 00 00  |................|
 DEC7  00 00 00 00 00 00 00 00 00 00 00 00 00 00 00 00  |................|
 DED7  00 00 00 00 00 00 00 00 00 00 00 00 00 00 00 00  |................|
 DEE7  00 00 00 00 00 00 00 00 00 00 00 00 00 00 00 00  |................|
 DEF7  00 00 00 00 00 00 00 00 00 00 00 00 00 00 00 00  |................|
 DF07  00 00 00 00 00 00 00 00 00 00 00 00 00 00 00 00  |................|
 DF17  00 00 00 00 00 00 00 00 00 00 00 00 00 00 00 00  |................|
 DF27  00 00 00 00 00 00 00 00 00 00 00 00 00 00 00 00  |................|
 DF37  00 00 00 00 00 00 00 00 00 00 00 00 00 00 00 00  |................|
 DF47  00 00 00 00 00 00 00 00 00 00 00 00 00 00 00 00  |................|
 DF57  00 00 00 00 00 00 00 00 00 00 00 00 00 00 00 00  |................|
 DF67  00 00 00 00 00 00 00 00 00 00 00 00 00 00 00 00  |................|
 DF77  00 00 00 00 00 00 00 00 00 00 00 00 00 00 00 00  |................|
 DF87  00 00 00 00 00 00 00 00 00 00 00 00 00 00 00 00  |................|
 DF97  00 00 00 00 00 00 00 00 00 00 00 00 00 00 00 00  |................|
 DFA7  00 00 00 00 00 00 00 00 00 00 00 00 00 00 00 00  |................|
 DFB7  00 00 00 00 00 00 00 00 00 00 00 00 00 00 00 00  |................|
 DFC7  00 00 00 00 00 00 00 00 00 00 00 00 00 00 00 00  |................|
 DFD7  00 00 00 00 00 00 00 00 00 00 00 00 00 00 00 00  |................|
 DFE7  00 00 00 00 00 00 00 00 00 00 00 00 00 00 00 00  |................|
 DFF7  00 00 00 00 00 00 00 00 00                       |.........       |
 E000  00        BRK  
 E001  00 00 00 00 00 00 00 00 00 00 00 00 00 00 00 00  |................|
 E011  00 00 00 00 00 00 00 00 00 00 00 00 00 00 00 00  |................|
 E021  00 00 00 00 00 00 00 00 00 00 00 00 00 00 00 00  |................|
 E031  00 00 00 00 00 00 00 00 00 00 00 00 00 00 00 00  |................|
 E041  00 00 00 00 00 00 00 00 00 00 00 00 00 00 00 00  |................|
 E051  00 00 00 00 00 00 00 00 00 00 00 00 00 00 00 00  |................|
 E061  00 00 00 00 00 00 00 00 00 00 00 00 00 00 00 00  |................|
 E071  00 00 00 00 00 00 00 00 00 00 00 00 00 00 00 00  |................|
 E081  00 00 00 00 00 00 00 00 00 00 00 00 00 00 00 00  |................|
 E091  00 00 00 00 00 00 00 00 00 00 00 00 00 00 00 00  |................|
 E0A1  00 00 00 00 00 00 00 00 00 00 00 00 00 00 00 00  |................|
 E0B1  00 00 00 00 00 00 00 00 00 00 00 00 00 00 00 00  |................|
 E0C1  00 00 00 00 00 00 00 00 00 00 00 00 00 00 00 00  |................|
 E0D1  00 00 00 00 00 00 00 00 00 00 00 00 00 00 00 00  |................|
 E0E1  00 00 00 00 00 00 00 00 00 00 00 00 00 00 00 00  |................|
 E0F1  00 00 00 00 00 00 00 00 00 00 00 00 00 00 00 00  |................|
 E101  00 00 00 00 00 00 00 00 00 00 00 00 00 00 00 00  |................|
 E111  00 00 00 00 00 00 00 00 00 00 00 00 00 00 00 00  |................|
 E121  00 00 00 00 00 00 00 00 00 00 00 00 00 00 00 00  |................|
 E131  00 00 00 00 00 00 00 00 00 00 00 00 00 00 00 00  |................|
 E141  00 00 00 00 00 00 00 00 00 00 00 00 00 00 00 00  |................|
 E151  00 00 00 00 00 00 00 00 00 00 00 00 00 00 00 00  |................|
 E161  00 00 00 00 00 00 00 00 00 00 00 00 00 00 00 00  |................|
 E171  00 00 00 00 00 00 00 00 00 00 00 00 00 00 00 00  |................|
 E181  00 00 00 00 00 00 00 00 00 00 00 00 00 00 00 00  |................|
 E191  00 00 00 00 00 00 00 00 00 00 00 00 00 00 00 00  |................|
 E1A1  00 00 00 00 00 00 00 00 00 00 00 00 00 00 00 00  |................|
 E1B1  00 00 00 00 00 00 00 00 00 00 00 00 00 00 00 00  |................|
 E1C1  00 00 00 00 00 00 00 00 00 00 00 00 00 00 00 00  |................|
 E1D1  00 00 00 00 00 00 00 00 00 00 00 00 00 00 00 00  |................|
 E1E1  00 00 00 00 00 00 00 00 00 00 00 00 00 00 00 00  |................|
 E1F1  00 00 00 00 00 00 00 00 00 00 00 00 00 00 00 00  |................|
 E201  00 00 00 00 00 00 00 00 00 00 00 00 00 00 00 00  |................|
 E211  00 00 00 00 00 00 00 00 00 00 00 00 00 00 00 00  |................|
 E221  00 00 00 00 00 00 00 00 00 00 00 00 00 00 00 00  |................|
 E231  00 00 00 00 00 00 00 00 00 00 00 00 00 00 00 00  |................|
 E241  00 00 00 00 00 00 00 00 00 00 00 00 00 00 00 00  |................|
 E251  00 00 00 00 00 00 00 00 00 00 00 00 00 00 00 00  |................|
 E261  00 00 00 00 00 00 00 00 00 00 00 00 00 00 00 00  |................|
 E271  00 00 00 00 00 00 00 00 00 00 00 00 00 00 00 00  |................|
 E281  00 00 00 00 00 00 00 00 00 00 00 00 00 00 00 00  |................|
 E291  00 00 00 00 00 00 00 00 00 00 00 00 00 00 00 00  |................|
 E2A1  00 00 00 00 00 00 00 00 00 00 00 00 00 00 00 00  |................|
 E2B1  00 00 00 00 00 00 00 00 00 00 00 00 00 00 00 00  |................|
 E2C1  00 00 00 00 00 00 00 00 00 00 00 00 00 00 00 00  |................|
 E2D1  00 00 00 00 00 00 00 00 00 00 00 00 00 00 00 00  |................|
 E2E1  00 00 00 00 00 00 00 00 00 00 00 00 00 00 00 00  |................|
 E2F1  00 00 00 00 00 00 00 00 00 00 00 00 00 00 00 00  |................|
 E301  00 00 00 00 00 00 00 00 00 00 00 00 00 00 00 00  |................|
 E311  00 00 00 00 00 00 00 00 00 00 00 00 00 00 00 00  |................|
 E321  00 00 00 00 00 00 00 00 00 00 00 00 00 00 00 00  |................|
 E331  00 00 00 00 00 00 00 00 00 00 00 00 00 00 00 00  |................|
 E341  00 00 00 00 00 00 00 00 00 00 00 00 00 00 00 00  |................|
 E351  00 00 00 00 00 00 00 00 00 00 00 00 00 00 00 00  |................|
 E361  00 00 00 00 00 00 00 00 00 00 00 00 00 00 00 00  |................|
 E371  00 00 00 00 00 00 00 00 00 00 00 00 00 00 00 00  |................|
 E381  00 00 00 00 00 00 00 00 00 00 00 00 00 00 00 00  |................|
 E391  00 00 00 00 00 00 00 00 00 00 00 00 00 00 00 00  |................|
 E3A1  00 00 00 00 00 00 00 00 00 00 00 00 00 00 00 00  |................|
 E3B1  00 00 00 00 00 00 00 00 00 00 00 00 00 00 00 00  |................|
 E3C1  00 00 00 00 00 00 00 00 00 00 00 00 00 00 00 00  |................|
 E3D1  00 00 00 00 00 00 00 00 00 00 00 00 00 00 00 00  |................|
 E3E1  00 00 00 00 00 00 00 00 00 00 00 00 00 00 00 00  |................|
 E3F1  00 00 00 00 00 00 00 00 00 00 00 00 00 00 00 00  |................|
 E401  00 00 00 00 00 00 00 00 00 00 00 00 00 00 00 00  |................|
 E411  00 00 00 00 00 00 00 00 00 00 00 00 00 00 00 00  |................|
 E421  00 00 00 00 00 00 00 00 00 00 00 00 00 00 00 00  |................|
 E431  00 00 00 00 00 00 00 00 00 00 00 00 00 00 00 00  |................|
 E441  00 00 00 00 00 00 00 00 00 00 00 00 00 00 00 00  |................|
 E451  00 00 00 00 00 00 00 00 00 00 00 00 00 00 00 00  |................|
 E461  00 00 00 00 00 00 00 00 00 00 00 00 00 00 00 00  |................|
 E471  00 00 00 00 00 00 00 00 00 00 00 00 00 00 00 00  |................|
 E481  00 00 00 00 00 00 00 00 00 00 00 00 00 00 00 00  |................|
 E491  00 00 00 00 00 00 00 00 00 00 00 00 00 00 00 00  |................|
 E4A1  00 00 00 00 00 00 00 00 00 00 00 00 00 00 00 00  |................|
 E4B1  00 00 00 00 00 00 00 00 00 00 00 00 00 00 00 00  |................|
 E4C1  00 00 00 00 00 00 00 00 00 00 00 00 00 00 00 00  |................|
 E4D1  00 00 00 00 00 00 00 00 00 00 00 00 00 00 00 00  |................|
 E4E1  00 00 00 00 00 00 00 00 00 00 00 00 00 00 00 00  |................|
 E4F1  00 00 00 00 00 00 00 00 00 00 00 00 00 00 00 00  |................|
 E501  00 00 00 00 00 00 00 00 00 00 00 00 00 00 00 00  |................|
 E511  00 00 00 00 00 00 00 00 00 00 00 00 00 00 00 00  |................|
 E521  00 00 00 00 00 00 00 00 00 00 00 00 00 00 00 00  |................|
 E531  00 00 00 00 00 00 00 00 00 00 00 00 00 00 00 00  |................|
 E541  00 00 00 00 00 00 00 00 00 00 00 00 00 00 00 00  |................|
 E551  00 00 00 00 00 00 00 00 00 00 00 00 00 00 00 00  |................|
 E561  00 00 00 00 00 00 00 00 00 00 00 00 00 00 00 00  |................|
 E571  00 00 00 00 00 00 00 00 00 00 00 00 00 00 00 00  |................|
 E581  00 00 00 00 00 00 00 00 00 00 00 00 00 00 00 00  |................|
 E591  00 00 00 00 00 00 00 00 00 00 00 00 00 00 00 00  |................|
 E5A1  00 00 00 00 00 00 00 00 00 00 00 00 00 00 00 00  |................|
 E5B1  00 00 00 00 00 00 00 00 00 00 00 00 00 00 00 00  |................|
 E5C1  00 00 00 00 00 00 00 00 00 00 00 00 00 00 00 00  |................|
 E5D1  00 00 00 00 00 00 00 00 00 00 00 00 00 00 00 00  |................|
 E5E1  00 00 00 00 00 00 00 00 00 00 00 00 00 00 00 00  |................|
 E5F1  00 00 00 00 00 00 00 00 00 00 00 00 00 00 00 00  |................|
 E601  00 00 00 00 00 00 00 00 00 00 00 00 00 00 00 00  |................|
 E611  00 00 00 00 00 00 00 00 00 00 00 00 00 00 00 00  |................|
 E621  00 00 00 00 00 00 00 00 00 00 00 00 00 00 00 00  |................|
 E631  00 00 00 00 00 00 00 00 00 00 00 00 00 00 00 00  |................|
 E641  00 00 00 00 00 00 00 00 00 00 00 00 00 00 00 00  |................|
 E651  00 00 00 00 00 00 00 00 00 00 00 00 00 00 00 00  |................|
 E661  00 00 00 00 00 00 00 00 00 00 00 00 00 00 00 00  |................|
 E671  00 00 00 00 00 00 00 00 00 00 00 00 00 00 00 00  |................|
 E681  00 00 00 00 00 00 00 00 00 00 00 00 00 00 00 00  |................|
 E691  00 00 00 00 00 00 00 00 00 00 00 00 00 00 00 00  |................|
 E6A1  00 00 00 00 00 00 00 00 00 00 00 00 00 00 00 00  |................|
 E6B1  00 00 00 00 00 00 00 00 00 00 00 00 00 00 00 00  |................|
 E6C1  00 00 00 00 00 00 00 00 00 00 00 00 00 00 00 00  |................|
 E6D1  00 00 00 00 00 00 00 00 00 00 00 00 00 00 00 00  |................|
 E6E1  00 00 00 00 00 00 00 00 00 00 00 00 00 00 00 00  |................|
 E6F1  00 00 00 00 00 00 00 00 00 00 00 00 00 00 00 00  |................|
 E701  00 00 00 00 00 00 00 00 00 00 00 00 00 00 00 00  |................|
 E711  00 00 00 00 00 00 00 00 00 00 00 00 00 00 00 00  |................|
 E721  00 00 00 00 00 00 00 00 00 00 00 00 00 00 00 00  |................|
 E731  00 00 00 00 00 00 00 00 00 00 00 00 00 00 00 00  |................|
 E741  00 00 00 00 00 00 00 00 00 00 00 00 00 00 00 00  |................|
 E751  00 00 00 00 00 00 00 00 00 00 00 00 00 00 00 00  |................|
 E761  00 00 00 00 00 00 00 00 00 00 00 00 00 00 00 00  |................|
 E771  00 00 00 00 00 00 00 00 00 00 00 00 00 00 00 00  |................|
 E781  00 00 00 00 00 00 00 00 00 00 00 00 00 00 00 00  |................|
 E791  00 00 00 00 00 00 00 00 00 00 00 00 00 00 00 00  |................|
 E7A1  00 00 00 00 00 00 00 00 00 00 00 00 00 00 00 00  |................|
 E7B1  00 00 00 00 00 00 00 00 00 00 00 00 00 00 00 00  |................|
 E7C1  00 00 00 00 00 00 00 00 00 00 00 00 00 00 00 00  |................|
 E7D1  00 00 00 00 00 00 00 00 00 00 00 00 00 00 00 00  |................|
 E7E1  00 00 00 00 00 00 00 00 00 00 00 00 00 00 00 00  |................|
 E7F1  00 00 00 00 00 00 00 00 00 00 00 00 00 00 00 00  |................|
 E801  00 00 00 00 00 00 00 00 00 00 00 00 00 00 00 00  |................|
 E811  00 00 00 00 00 00 00 00 00 00 00 00 00 00 00 00  |................|
 E821  00 00 00 00 00 00 00 00 00 00 00 00 00 00 00 00  |................|
 E831  00 00 00 00 00 00 00 00 00 00 00 00 00 00 00 00  |................|
 E841  00 00 00 00 00 00 00 00 00 00 00 00 00 00 00 00  |................|
 E851  00 00 00 00 00 00 00 00 00 00 00 00 00 00 00 00  |................|
 E861  00 00 00 00 00 00 00 00 00 00 00 00 00 00 00 00  |................|
 E871  00 00 00 00 00 00 00 00 00 00 00 00 00 00 00 00  |................|
 E881  00 00 00 00 00 00 00 00 00 00 00 00 00 00 00 00  |................|
 E891  00 00 00 00 00 00 00 00 00 00 00 00 00 00 00 00  |................|
 E8A1  00 00 00 00 00 00 00 00 00 00 00 00 00 00 00 00  |................|
 E8B1  00 00 00 00 00 00 00 00 00 00 00 00 00 00 00 00  |................|
 E8C1  00 00 00 00 00 00 00 00 00 00 00 00 00 00 00 00  |................|
 E8D1  00 00 00 00 00 00 00 00 00 00 00 00 00 00 00 00  |................|
 E8E1  00 00 00 00 00 00 00 00 00 00 00 00 00 00 00 00  |................|
 E8F1  00 00 00 00 00 00 00 00 00 00 00 00 00 00 00 00  |................|
 E901  00 00 00 00 00 00 00 00 00 00 00 00 00 00 00 00  |................|
 E911  00 00 00 00 00 00 00 00 00 00 00 00 00 00 00 00  |................|
 E921  00 00 00 00 00 00 00 00 00 00 00 00 00 00 00 00  |................|
 E931  00 00 00 00 00 00 00 00 00 00 00 00 00 00 00 00  |................|
 E941  00 00 00 00 00 00 00 00 00 00 00 00 00 00 00 00  |................|
 E951  00 00 00 00 00 00 00 00 00 00 00 00 00 00 00 00  |................|
 E961  00 00 00 00 00 00 00 00 00 00 00 00 00 00 00 00  |................|
 E971  00 00 00 00 00 00 00 00 00 00 00 00 00 00 00 00  |................|
 E981  00 00 00 00 00 00 00 00 00 00 00 00 00 00 00 00  |................|
 E991  00 00 00 00 00 00 00 00 00 00 00 00 00 00 00 00  |................|
 E9A1  00 00 00 00 00 00 00 00 00 00 00 00 00 00 00 00  |................|
 E9B1  00 00 00 00 00 00 00 00 00 00 00 00 00 00 00 00  |................|
 E9C1  00 00 00 00 00 00 00 00 00 00 00 00 00 00 00 00  |................|
 E9D1  00 00 00 00 00 00 00 00 00 00 00 00 00 00 00 00  |................|
 E9E1  00 00 00 00 00 00 00 00 00 00 00 00 00 00 00 00  |................|
 E9F1  00 00 00 00 00 00 00 00 00 00 00 00 00 00 00 00  |................|
 EA01  00 00 00 00 00 00 00 00 00 00 00 00 00 00 00 00  |................|
 EA11  00 00 00 00 00 00 00 00 00 00 00 00 00 00 00 00  |................|
 EA21  00 00 00 00 00 00 00 00 00 00 00 00 00 00 00 00  |................|
 EA31  00 00 00 00 00 00 00 00 00 00 00 00 00 00 00 00  |................|
 EA41  00 00 00 00 00 00 00 00 00 00 00 00 00 00 00 00  |................|
 EA51  00 00 00 00 00 00 00 00 00 00 00 00 00 00 00 00  |................|
 EA61  00 00 00 00 00 00 00 00 00 00 00 00 00 00 00 00  |................|
 EA71  00 00 00 00 00 00 00 00 00 00 00 00 00 00 00 00  |................|
 EA81  00 00 00 00 00 00 00 00 00 00 00 00 00 00 00 00  |................|
 EA91  00 00 00 00 00 00 00 00 00 00 00 00 00 00 00 00  |................|
 EAA1  00 00 00 00 00 00 00 00 00 00 00 00 00 00 00 00  |................|
 EAB1  00 00 00 00 00 00 00 00 00 00 00 00 00 00 00 00  |................|
 EAC1  00 00 00 00 00 00 00 00 00 00 00 00 00 00 00 00  |................|
 EAD1  00 00 00 00 00 00 00 00 00 00 00 00 00 00 00 00  |................|
 EAE1  00 00 00 00 00 00 00 00 00 00 00 00 00 00 00 00  |................|
 EAF1  00 00 00 00 00 00 00 00 00 00 00 00 00 00 00 00  |................|
 EB01  00 00 00 00 00 00 00 00 00 00 00 00 00 00 00 00  |................|
 EB11  00 00 00 00 00 00 00 00 00 00 00 00 00 00 00 00  |................|
 EB21  00 00 00 00 00 00 00 00 00 00 00 00 00 00 00 00  |................|
 EB31  00 00 00 00 00 00 00 00 00 00 00 00 00 00 00 00  |................|
 EB41  00 00 00 00 00 00 00 00 00 00 00 00 00 00 00 00  |................|
 EB51  00 00 00 00 00 00 00 00 00 00 00 00 00 00 00 00  |................|
 EB61  00 00 00 00 00 00 00 00 00 00 00 00 00 00 00 00  |................|
 EB71  00 00 00 00 00 00 00 00 00 00 00 00 00 00 00 00  |................|
 EB81  00 00 00 00 00 00 00 00 00 00 00 00 00 00 00 00  |................|
 EB91  00 00 00 00 00 00 00 00 00 00 00 00 00 00 00 00  |................|
 EBA1  00 00 00 00 00 00 00 00 00 00 00 00 00 00 00 00  |................|
 EBB1  00 00 00 00 00 00 00 00 00 00 00 00 00 00 00 00  |................|
 EBC1  00 00 00 00 00 00 00 00 00 00 00 00 00 00 00 00  |................|
 EBD1  00 00 00 00 00 00 00 00 00 00 00 00 00 00 00 00  |................|
 EBE1  00 00 00 00 00 00 00 00 00 00 00 00 00 00 00 00  |................|
 EBF1  00 00 00 00 00 00 00 00 00 00 00 00 00 00 00 00  |................|
 EC01  00 00 00 00 00 00 00 00 00 00 00 00 00 00 00 00  |................|
 EC11  00 00 00 00 00 00 00 00 00 00 00 00 00 00 00 00  |................|
 EC21  00 00 00 00 00 00 00 00 00 00 00 00 00 00 00 00  |................|
 EC31  00 00 00 00 00 00 00 00 00 00 00 00 00 00 00 00  |................|
 EC41  00 00 00 00 00 00 00 00 00 00 00 00 00 00 00 00  |................|
 EC51  00 00 00 00 00 00 00 00 00 00 00 00 00 00 00 00  |................|
 EC61  00 00 00 00 00 00 00 00 00 00 00 00 00 00 00 00  |................|
 EC71  00 00 00 00 00 00 00 00 00 00 00 00 00 00 00 00  |................|
 EC81  00 00 00 00 00 00 00 00 00 00 00 00 00 00 00 00  |................|
 EC91  00 00 00 00 00 00 00 00 00 00 00 00 00 00 00 00  |................|
 ECA1  00 00 00 00 00 00 00 00 00 00 00 00 00 00 00 00  |................|
 ECB1  00 00 00 00 00 00 00 00 00 00 00 00 00 00 00 00  |................|
 ECC1  00 00 00 00 00 00 00 00 00 00 00 00 00 00 00 00  |................|
 ECD1  00 00 00 00 00 00 00 00 00 00 00 00 00 00 00 00  |................|
 ECE1  00 00 00 00 00 00 00 00 00 00 00 00 00 00 00 00  |................|
 ECF1  00 00 00 00 00 00 00 00 00 00 00 00 00 00 00 00  |................|
 ED01  00 00 00 00 00 00 00 00 00 00 00 00 00 00 00 00  |................|
 ED11  00 00 00 00 00 00 00 00 00 00 00 00 00 00 00 00  |................|
 ED21  00 00 00 00 00 00 00 00 00 00 00 00 00 00 00 00  |................|
 ED31  00 00 00 00 00 00 00 00 00 00 00 00 00 00 00 00  |................|
 ED41  00 00 00 00 00 00 00 00 00 00 00 00 00 00 00 00  |................|
 ED51  00 00 00 00 00 00 00 00 00 00 00 00 00 00 00 00  |................|
 ED61  00 00 00 00 00 00 00 00 00 00 00 00 00 00 00 00  |................|
 ED71  00 00 00 00 00 00 00 00 00 00 00 00 00 00 00 00  |................|
 ED81  00 00 00 00 00 00 00 00 00 00 00 00 00 00 00 00  |................|
 ED91  00 00 00 00 00 00 00 00 00 00 00 00 00 00 00 00  |................|
 EDA1  00 00 00 00 00 00 00 00 00 00 00 00 00 00 00 00  |................|
 EDB1  00 00 00 00 00 00 00 00 00 00 00 00 00 00 00 00  |................|
 EDC1  00 00 00 00 00 00 00 00 00 00 00 00 00 00 00 00  |................|
 EDD1  00 00 00 00 00 00 00 00 00 00 00 00 00 00 00 00  |................|
 EDE1  00 00 00 00 00 00 00 00 00 00 00 00 00 00 00 00  |................|
 EDF1  00 00 00 00 00 00 00 00 00 00 00 00 00 00 00 00  |................|
 EE01  00 00 00 00 00 00 00 00 00 00 00 00 00 00 00 00  |................|
 EE11  00 00 00 00 00 00 00 00 00 00 00 00 00 00 00 00  |................|
 EE21  00 00 00 00 00 00 00 00 00 00 00 00 00 00 00 00  |................|
 EE31  00 00 00 00 00 00 00 00 00 00 00 00 00 00 00 00  |................|
 EE41  00 00 00 00 00 00 00 00 00 00 00 00 00 00 00 00  |................|
 EE51  00 00 00 00 00 00 00 00 00 00 00 00 00 00 00 00  |................|
 EE61  00 00 00 00 00 00 00 00 00 00 00 00 00 00 00 00  |................|
 EE71  00 00 00 00 00 00 00 00 00 00 00 00 00 00 00 00  |................|
 EE81  00 00 00 00 00 00 00 00 00 00 00 00 00 00 00 00  |................|
 EE91  00 00 00 00 00 00 00 00 00 00 00 00 00 00 00 00  |................|
 EEA1  00 00 00 00 00 00 00 00 00 00 00 00 00 00 00 00  |................|
 EEB1  00 00 00 00 00 00 00 00 00 00 00 00 00 00 00 00  |................|
 EEC1  00 00 00 00 00 00 00 00 00 00 00 00 00 00 00 00  |................|
 EED1  00 00 00 00 00 00 00 00 00 00 00 00 00 00 00 00  |................|
 EEE1  00 00 00 00 00 00 00 00 00 00 00 00 00 00 00 00  |................|
 EEF1  00 00 00 00 00 00 00 00 00 00 00 00 00 00 00 00  |................|
 EF01  00 00 00 00 00 00 00 00 00 00 00 00 00 00 00 00  |................|
 EF11  00 00 00 00 00 00 00 00 00 00 00 00 00 00 00 00  |................|
 EF21  00 00 00 00 00 00 00 00 00 00 00 00 00 00 00 00  |................|
 EF31  00 00 00 00 00 00 00 00 00 00 00 00 00 00 00 00  |................|
 EF41  00 00 00 00 00 00 00 00 00 00 00 00 00 00 00 00  |................|
 EF51  00 00 00 00 00 00 00 00 00 00 00 00 00 00 00 00  |................|
 EF61  00 00 00 00 00 00 00 00 00 00 00 00 00 00 00 00  |................|
 EF71  00 00 00 00 00 00 00 00 00 00 00 00 00 00 00 00  |................|
 EF81  00 00 00 00 00 00 00 00 00 00 00 00 00 00 00 00  |................|
 EF91  00 00 00 00 00 00 00 00 00 00 00 00 00 00 00 00  |................|
 EFA1  00 00 00 00 00 00 00 00 00 00 00 00 00 00 00 00  |................|
 EFB1  00 00 00 00 00 00 00 00 00 00 00 00 00 00 00 00  |................|
 EFC1  00 00 00 00 00 00 00 00 00 00 00 00 00 00 00 00  |................|
 EFD1  00 00 00 00 00 00 00 00 00 00 00 00 00 00 00 00  |................|
 EFE1  00 00 00 00 00 00 00 00 00 00 00 00 00 00 00 00  |................|
 EFF1  00 00 00 00 00 00 00 00 00 00 00 00 00 00 00 00  |................|
 F001  00 00 00 00 00 00 00 00 00 00 00 00 00 00 00     |............... |
 F010  78        SEI  
 F011  A2 00     LDX  #$00
 F013  BD 2B F0  LDA  $F02B, X
 F016  F0 06     BEQ  $F01E
 F018  20 27 F0  JSR  $F027
 F01B  E8        INX  
 F01C  80 F5     BRA  $F013
 F01E  4C 00 80  JMP  $8000
 F021  AD 04 F0  LDA  $F004
 F024  F0 FB     BEQ  $F021
 F026  60        RTS  
 F027  8D 01 F0  STA  $F001
 F02A  60        RTS  
 F02B  54 61 6C 69 20 46 6F 72 74 68 20 32 20 64 65 66  |Tali Forth 2 def|
 F03B  61 75 6C 74 20 6B 65 72 6E 65 6C 20 66 6F 72 20  |ault kernel for |
 F04B  70 79 36 35 6D 6F 6E 20 28 31 38 2E 20 46 65 62  |py65mon (18. Feb|
 F05B  20 32 30 31 38 29 0A 00 00 00 00 00 00 00 00 00  | 2018)..........|
 F06B  00 00 00 00 00 00 00 00 00 00 00 00 00 00 00 00  |................|
 F07B  00 00 00 00 00 00 00 00 00 00 00 00 00 00 00 00  |................|
 F08B  00 00 00 00 00 00 00 00 00 00 00 00 00 00 00 00  |................|
 F09B  00 00 00 00 00 00 00 00 00 00 00 00 00 00 00 00  |................|
 F0AB  00 00 00 00 00 00 00 00 00 00 00 00 00 00 00 00  |................|
 F0BB  00 00 00 00 00 00 00 00 00 00 00 00 00 00 00 00  |................|
 F0CB  00 00 00 00 00 00 00 00 00 00 00 00 00 00 00 00  |................|
 F0DB  00 00 00 00 00 00 00 00 00 00 00 00 00 00 00 00  |................|
 F0EB  00 00 00 00 00 00 00 00 00 00 00 00 00 00 00 00  |................|
 F0FB  00 00 00 00 00 00 00 00 00 00 00 00 00 00 00 00  |................|
 F10B  00 00 00 00 00 00 00 00 00 00 00 00 00 00 00 00  |................|
 F11B  00 00 00 00 00 00 00 00 00 00 00 00 00 00 00 00  |................|
 F12B  00 00 00 00 00 00 00 00 00 00 00 00 00 00 00 00  |................|
 F13B  00 00 00 00 00 00 00 00 00 00 00 00 00 00 00 00  |................|
 F14B  00 00 00 00 00 00 00 00 00 00 00 00 00 00 00 00  |................|
 F15B  00 00 00 00 00 00 00 00 00 00 00 00 00 00 00 00  |................|
 F16B  00 00 00 00 00 00 00 00 00 00 00 00 00 00 00 00  |................|
 F17B  00 00 00 00 00 00 00 00 00 00 00 00 00 00 00 00  |................|
 F18B  00 00 00 00 00 00 00 00 00 00 00 00 00 00 00 00  |................|
 F19B  00 00 00 00 00 00 00 00 00 00 00 00 00 00 00 00  |................|
 F1AB  00 00 00 00 00 00 00 00 00 00 00 00 00 00 00 00  |................|
 F1BB  00 00 00 00 00 00 00 00 00 00 00 00 00 00 00 00  |................|
 F1CB  00 00 00 00 00 00 00 00 00 00 00 00 00 00 00 00  |................|
 F1DB  00 00 00 00 00 00 00 00 00 00 00 00 00 00 00 00  |................|
 F1EB  00 00 00 00 00 00 00 00 00 00 00 00 00 00 00 00  |................|
 F1FB  00 00 00 00 00 00 00 00 00 00 00 00 00 00 00 00  |................|
 F20B  00 00 00 00 00 00 00 00 00 00 00 00 00 00 00 00  |................|
 F21B  00 00 00 00 00 00 00 00 00 00 00 00 00 00 00 00  |................|
 F22B  00 00 00 00 00 00 00 00 00 00 00 00 00 00 00 00  |................|
 F23B  00 00 00 00 00 00 00 00 00 00 00 00 00 00 00 00  |................|
 F24B  00 00 00 00 00 00 00 00 00 00 00 00 00 00 00 00  |................|
 F25B  00 00 00 00 00 00 00 00 00 00 00 00 00 00 00 00  |................|
 F26B  00 00 00 00 00 00 00 00 00 00 00 00 00 00 00 00  |................|
 F27B  00 00 00 00 00 00 00 00 00 00 00 00 00 00 00 00  |................|
 F28B  00 00 00 00 00 00 00 00 00 00 00 00 00 00 00 00  |................|
 F29B  00 00 00 00 00 00 00 00 00 00 00 00 00 00 00 00  |................|
 F2AB  00 00 00 00 00 00 00 00 00 00 00 00 00 00 00 00  |................|
 F2BB  00 00 00 00 00 00 00 00 00 00 00 00 00 00 00 00  |................|
 F2CB  00 00 00 00 00 00 00 00 00 00 00 00 00 00 00 00  |................|
 F2DB  00 00 00 00 00 00 00 00 00 00 00 00 00 00 00 00  |................|
 F2EB  00 00 00 00 00 00 00 00 00 00 00 00 00 00 00 00  |................|
 F2FB  00 00 00 00 00 00 00 00 00 00 00 00 00 00 00 00  |................|
 F30B  00 00 00 00 00 00 00 00 00 00 00 00 00 00 00 00  |................|
 F31B  00 00 00 00 00 00 00 00 00 00 00 00 00 00 00 00  |................|
 F32B  00 00 00 00 00 00 00 00 00 00 00 00 00 00 00 00  |................|
 F33B  00 00 00 00 00 00 00 00 00 00 00 00 00 00 00 00  |................|
 F34B  00 00 00 00 00 00 00 00 00 00 00 00 00 00 00 00  |................|
 F35B  00 00 00 00 00 00 00 00 00 00 00 00 00 00 00 00  |................|
 F36B  00 00 00 00 00 00 00 00 00 00 00 00 00 00 00 00  |................|
 F37B  00 00 00 00 00 00 00 00 00 00 00 00 00 00 00 00  |................|
 F38B  00 00 00 00 00 00 00 00 00 00 00 00 00 00 00 00  |................|
 F39B  00 00 00 00 00 00 00 00 00 00 00 00 00 00 00 00  |................|
 F3AB  00 00 00 00 00 00 00 00 00 00 00 00 00 00 00 00  |................|
 F3BB  00 00 00 00 00 00 00 00 00 00 00 00 00 00 00 00  |................|
 F3CB  00 00 00 00 00 00 00 00 00 00 00 00 00 00 00 00  |................|
 F3DB  00 00 00 00 00 00 00 00 00 00 00 00 00 00 00 00  |................|
 F3EB  00 00 00 00 00 00 00 00 00 00 00 00 00 00 00 00  |................|
 F3FB  00 00 00 00 00 00 00 00 00 00 00 00 00 00 00 00  |................|
 F40B  00 00 00 00 00 00 00 00 00 00 00 00 00 00 00 00  |................|
 F41B  00 00 00 00 00 00 00 00 00 00 00 00 00 00 00 00  |................|
 F42B  00 00 00 00 00 00 00 00 00 00 00 00 00 00 00 00  |................|
 F43B  00 00 00 00 00 00 00 00 00 00 00 00 00 00 00 00  |................|
 F44B  00 00 00 00 00 00 00 00 00 00 00 00 00 00 00 00  |................|
 F45B  00 00 00 00 00 00 00 00 00 00 00 00 00 00 00 00  |................|
 F46B  00 00 00 00 00 00 00 00 00 00 00 00 00 00 00 00  |................|
 F47B  00 00 00 00 00 00 00 00 00 00 00 00 00 00 00 00  |................|
 F48B  00 00 00 00 00 00 00 00 00 00 00 00 00 00 00 00  |................|
 F49B  00 00 00 00 00 00 00 00 00 00 00 00 00 00 00 00  |................|
 F4AB  00 00 00 00 00 00 00 00 00 00 00 00 00 00 00 00  |................|
 F4BB  00 00 00 00 00 00 00 00 00 00 00 00 00 00 00 00  |................|
 F4CB  00 00 00 00 00 00 00 00 00 00 00 00 00 00 00 00  |................|
 F4DB  00 00 00 00 00 00 00 00 00 00 00 00 00 00 00 00  |................|
 F4EB  00 00 00 00 00 00 00 00 00 00 00 00 00 00 00 00  |................|
 F4FB  00 00 00 00 00 00 00 00 00 00 00 00 00 00 00 00  |................|
 F50B  00 00 00 00 00 00 00 00 00 00 00 00 00 00 00 00  |................|
 F51B  00 00 00 00 00 00 00 00 00 00 00 00 00 00 00 00  |................|
 F52B  00 00 00 00 00 00 00 00 00 00 00 00 00 00 00 00  |................|
 F53B  00 00 00 00 00 00 00 00 00 00 00 00 00 00 00 00  |................|
 F54B  00 00 00 00 00 00 00 00 00 00 00 00 00 00 00 00  |................|
 F55B  00 00 00 00 00 00 00 00 00 00 00 00 00 00 00 00  |................|
 F56B  00 00 00 00 00 00 00 00 00 00 00 00 00 00 00 00  |................|
 F57B  00 00 00 00 00 00 00 00 00 00 00 00 00 00 00 00  |................|
 F58B  00 00 00 00 00 00 00 00 00 00 00 00 00 00 00 00  |................|
 F59B  00 00 00 00 00 00 00 00 00 00 00 00 00 00 00 00  |................|
 F5AB  00 00 00 00 00 00 00 00 00 00 00 00 00 00 00 00  |................|
 F5BB  00 00 00 00 00 00 00 00 00 00 00 00 00 00 00 00  |................|
 F5CB  00 00 00 00 00 00 00 00 00 00 00 00 00 00 00 00  |................|
 F5DB  00 00 00 00 00 00 00 00 00 00 00 00 00 00 00 00  |................|
 F5EB  00 00 00 00 00 00 00 00 00 00 00 00 00 00 00 00  |................|
 F5FB  00 00 00 00 00 00 00 00 00 00 00 00 00 00 00 00  |................|
 F60B  00 00 00 00 00 00 00 00 00 00 00 00 00 00 00 00  |................|
 F61B  00 00 00 00 00 00 00 00 00 00 00 00 00 00 00 00  |................|
 F62B  00 00 00 00 00 00 00 00 00 00 00 00 00 00 00 00  |................|
 F63B  00 00 00 00 00 00 00 00 00 00 00 00 00 00 00 00  |................|
 F64B  00 00 00 00 00 00 00 00 00 00 00 00 00 00 00 00  |................|
 F65B  00 00 00 00 00 00 00 00 00 00 00 00 00 00 00 00  |................|
 F66B  00 00 00 00 00 00 00 00 00 00 00 00 00 00 00 00  |................|
 F67B  00 00 00 00 00 00 00 00 00 00 00 00 00 00 00 00  |................|
 F68B  00 00 00 00 00 00 00 00 00 00 00 00 00 00 00 00  |................|
 F69B  00 00 00 00 00 00 00 00 00 00 00 00 00 00 00 00  |................|
 F6AB  00 00 00 00 00 00 00 00 00 00 00 00 00 00 00 00  |................|
 F6BB  00 00 00 00 00 00 00 00 00 00 00 00 00 00 00 00  |................|
 F6CB  00 00 00 00 00 00 00 00 00 00 00 00 00 00 00 00  |................|
 F6DB  00 00 00 00 00 00 00 00 00 00 00 00 00 00 00 00  |................|
 F6EB  00 00 00 00 00 00 00 00 00 00 00 00 00 00 00 00  |................|
 F6FB  00 00 00 00 00 00 00 00 00 00 00 00 00 00 00 00  |................|
 F70B  00 00 00 00 00 00 00 00 00 00 00 00 00 00 00 00  |................|
 F71B  00 00 00 00 00 00 00 00 00 00 00 00 00 00 00 00  |................|
 F72B  00 00 00 00 00 00 00 00 00 00 00 00 00 00 00 00  |................|
 F73B  00 00 00 00 00 00 00 00 00 00 00 00 00 00 00 00  |................|
 F74B  00 00 00 00 00 00 00 00 00 00 00 00 00 00 00 00  |................|
 F75B  00 00 00 00 00 00 00 00 00 00 00 00 00 00 00 00  |................|
 F76B  00 00 00 00 00 00 00 00 00 00 00 00 00 00 00 00  |................|
 F77B  00 00 00 00 00 00 00 00 00 00 00 00 00 00 00 00  |................|
 F78B  00 00 00 00 00 00 00 00 00 00 00 00 00 00 00 00  |................|
 F79B  00 00 00 00 00 00 00 00 00 00 00 00 00 00 00 00  |................|
 F7AB  00 00 00 00 00 00 00 00 00 00 00 00 00 00 00 00  |................|
 F7BB  00 00 00 00 00 00 00 00 00 00 00 00 00 00 00 00  |................|
 F7CB  00 00 00 00 00 00 00 00 00 00 00 00 00 00 00 00  |................|
 F7DB  00 00 00 00 00 00 00 00 00 00 00 00 00 00 00 00  |................|
 F7EB  00 00 00 00 00 00 00 00 00 00 00 00 00 00 00 00  |................|
 F7FB  00 00 00 00 00 00 00 00 00 00 00 00 00 00 00 00  |................|
 F80B  00 00 00 00 00 00 00 00 00 00 00 00 00 00 00 00  |................|
 F81B  00 00 00 00 00 00 00 00 00 00 00 00 00 00 00 00  |................|
 F82B  00 00 00 00 00 00 00 00 00 00 00 00 00 00 00 00  |................|
 F83B  00 00 00 00 00 00 00 00 00 00 00 00 00 00 00 00  |................|
 F84B  00 00 00 00 00 00 00 00 00 00 00 00 00 00 00 00  |................|
 F85B  00 00 00 00 00 00 00 00 00 00 00 00 00 00 00 00  |................|
 F86B  00 00 00 00 00 00 00 00 00 00 00 00 00 00 00 00  |................|
 F87B  00 00 00 00 00 00 00 00 00 00 00 00 00 00 00 00  |................|
 F88B  00 00 00 00 00 00 00 00 00 00 00 00 00 00 00 00  |................|
 F89B  00 00 00 00 00 00 00 00 00 00 00 00 00 00 00 00  |................|
 F8AB  00 00 00 00 00 00 00 00 00 00 00 00 00 00 00 00  |................|
 F8BB  00 00 00 00 00 00 00 00 00 00 00 00 00 00 00 00  |................|
 F8CB  00 00 00 00 00 00 00 00 00 00 00 00 00 00 00 00  |................|
 F8DB  00 00 00 00 00 00 00 00 00 00 00 00 00 00 00 00  |................|
 F8EB  00 00 00 00 00 00 00 00 00 00 00 00 00 00 00 00  |................|
 F8FB  00 00 00 00 00 00 00 00 00 00 00 00 00 00 00 00  |................|
 F90B  00 00 00 00 00 00 00 00 00 00 00 00 00 00 00 00  |................|
 F91B  00 00 00 00 00 00 00 00 00 00 00 00 00 00 00 00  |................|
 F92B  00 00 00 00 00 00 00 00 00 00 00 00 00 00 00 00  |................|
 F93B  00 00 00 00 00 00 00 00 00 00 00 00 00 00 00 00  |................|
 F94B  00 00 00 00 00 00 00 00 00 00 00 00 00 00 00 00  |................|
 F95B  00 00 00 00 00 00 00 00 00 00 00 00 00 00 00 00  |................|
 F96B  00 00 00 00 00 00 00 00 00 00 00 00 00 00 00 00  |................|
 F97B  00 00 00 00 00 00 00 00 00 00 00 00 00 00 00 00  |................|
 F98B  00 00 00 00 00 00 00 00 00 00 00 00 00 00 00 00  |................|
 F99B  00 00 00 00 00 00 00 00 00 00 00 00 00 00 00 00  |................|
 F9AB  00 00 00 00 00 00 00 00 00 00 00 00 00 00 00 00  |................|
 F9BB  00 00 00 00 00 00 00 00 00 00 00 00 00 00 00 00  |................|
 F9CB  00 00 00 00 00 00 00 00 00 00 00 00 00 00 00 00  |................|
 F9DB  00 00 00 00 00 00 00 00 00 00 00 00 00 00 00 00  |................|
 F9EB  00 00 00 00 00 00 00 00 00 00 00 00 00 00 00 00  |................|
 F9FB  00 00 00 00 00 00 00 00 00 00 00 00 00 00 00 00  |................|
 FA0B  00 00 00 00 00 00 00 00 00 00 00 00 00 00 00 00  |................|
 FA1B  00 00 00 00 00 00 00 00 00 00 00 00 00 00 00 00  |................|
 FA2B  00 00 00 00 00 00 00 00 00 00 00 00 00 00 00 00  |................|
 FA3B  00 00 00 00 00 00 00 00 00 00 00 00 00 00 00 00  |................|
 FA4B  00 00 00 00 00 00 00 00 00 00 00 00 00 00 00 00  |................|
 FA5B  00 00 00 00 00 00 00 00 00 00 00 00 00 00 00 00  |................|
 FA6B  00 00 00 00 00 00 00 00 00 00 00 00 00 00 00 00  |................|
 FA7B  00 00 00 00 00 00 00 00 00 00 00 00 00 00 00 00  |................|
 FA8B  00 00 00 00 00 00 00 00 00 00 00 00 00 00 00 00  |................|
 FA9B  00 00 00 00 00 00 00 00 00 00 00 00 00 00 00 00  |................|
 FAAB  00 00 00 00 00 00 00 00 00 00 00 00 00 00 00 00  |................|
 FABB  00 00 00 00 00 00 00 00 00 00 00 00 00 00 00 00  |................|
 FACB  00 00 00 00 00 00 00 00 00 00 00 00 00 00 00 00  |................|
 FADB  00 00 00 00 00 00 00 00 00 00 00 00 00 00 00 00  |................|
 FAEB  00 00 00 00 00 00 00 00 00 00 00 00 00 00 00 00  |................|
 FAFB  00 00 00 00 00 00 00 00 00 00 00 00 00 00 00 00  |................|
 FB0B  00 00 00 00 00 00 00 00 00 00 00 00 00 00 00 00  |................|
 FB1B  00 00 00 00 00 00 00 00 00 00 00 00 00 00 00 00  |................|
 FB2B  00 00 00 00 00 00 00 00 00 00 00 00 00 00 00 00  |................|
 FB3B  00 00 00 00 00 00 00 00 00 00 00 00 00 00 00 00  |................|
 FB4B  00 00 00 00 00 00 00 00 00 00 00 00 00 00 00 00  |................|
 FB5B  00 00 00 00 00 00 00 00 00 00 00 00 00 00 00 00  |................|
 FB6B  00 00 00 00 00 00 00 00 00 00 00 00 00 00 00 00  |................|
 FB7B  00 00 00 00 00 00 00 00 00 00 00 00 00 00 00 00  |................|
 FB8B  00 00 00 00 00 00 00 00 00 00 00 00 00 00 00 00  |................|
 FB9B  00 00 00 00 00 00 00 00 00 00 00 00 00 00 00 00  |................|
 FBAB  00 00 00 00 00 00 00 00 00 00 00 00 00 00 00 00  |................|
 FBBB  00 00 00 00 00 00 00 00 00 00 00 00 00 00 00 00  |................|
 FBCB  00 00 00 00 00 00 00 00 00 00 00 00 00 00 00 00  |................|
 FBDB  00 00 00 00 00 00 00 00 00 00 00 00 00 00 00 00  |................|
 FBEB  00 00 00 00 00 00 00 00 00 00 00 00 00 00 00 00  |................|
 FBFB  00 00 00 00 00 00 00 00 00 00 00 00 00 00 00 00  |................|
 FC0B  00 00 00 00 00 00 00 00 00 00 00 00 00 00 00 00  |................|
 FC1B  00 00 00 00 00 00 00 00 00 00 00 00 00 00 00 00  |................|
 FC2B  00 00 00 00 00 00 00 00 00 00 00 00 00 00 00 00  |................|
 FC3B  00 00 00 00 00 00 00 00 00 00 00 00 00 00 00 00  |................|
 FC4B  00 00 00 00 00 00 00 00 00 00 00 00 00 00 00 00  |................|
 FC5B  00 00 00 00 00 00 00 00 00 00 00 00 00 00 00 00  |................|
 FC6B  00 00 00 00 00 00 00 00 00 00 00 00 00 00 00 00  |................|
 FC7B  00 00 00 00 00 00 00 00 00 00 00 00 00 00 00 00  |................|
 FC8B  00 00 00 00 00 00 00 00 00 00 00 00 00 00 00 00  |................|
 FC9B  00 00 00 00 00 00 00 00 00 00 00 00 00 00 00 00  |................|
 FCAB  00 00 00 00 00 00 00 00 00 00 00 00 00 00 00 00  |................|
 FCBB  00 00 00 00 00 00 00 00 00 00 00 00 00 00 00 00  |................|
 FCCB  00 00 00 00 00 00 00 00 00 00 00 00 00 00 00 00  |................|
 FCDB  00 00 00 00 00 00 00 00 00 00 00 00 00 00 00 00  |................|
 FCEB  00 00 00 00 00 00 00 00 00 00 00 00 00 00 00 00  |................|
 FCFB  00 00 00 00 00 00 00 00 00 00 00 00 00 00 00 00  |................|
 FD0B  00 00 00 00 00 00 00 00 00 00 00 00 00 00 00 00  |................|
 FD1B  00 00 00 00 00 00 00 00 00 00 00 00 00 00 00 00  |................|
 FD2B  00 00 00 00 00 00 00 00 00 00 00 00 00 00 00 00  |................|
 FD3B  00 00 00 00 00 00 00 00 00 00 00 00 00 00 00 00  |................|
 FD4B  00 00 00 00 00 00 00 00 00 00 00 00 00 00 00 00  |................|
 FD5B  00 00 00 00 00 00 00 00 00 00 00 00 00 00 00 00  |................|
 FD6B  00 00 00 00 00 00 00 00 00 00 00 00 00 00 00 00  |................|
 FD7B  00 00 00 00 00 00 00 00 00 00 00 00 00 00 00 00  |................|
 FD8B  00 00 00 00 00 00 00 00 00 00 00 00 00 00 00 00  |................|
 FD9B  00 00 00 00 00 00 00 00 00 00 00 00 00 00 00 00  |................|
 FDAB  00 00 00 00 00 00 00 00 00 00 00 00 00 00 00 00  |................|
 FDBB  00 00 00 00 00 00 00 00 00 00 00 00 00 00 00 00  |................|
 FDCB  00 00 00 00 00 00 00 00 00 00 00 00 00 00 00 00  |................|
 FDDB  00 00 00 00 00 00 00 00 00 00 00 00 00 00 00 00  |................|
 FDEB  00 00 00 00 00 00 00 00 00 00 00 00 00 00 00 00  |................|
 FDFB  00 00 00 00 00 00 00 00 00 00 00 00 00 00 00 00  |................|
 FE0B  00 00 00 00 00 00 00 00 00 00 00 00 00 00 00 00  |................|
 FE1B  00 00 00 00 00 00 00 00 00 00 00 00 00 00 00 00  |................|
 FE2B  00 00 00 00 00 00 00 00 00 00 00 00 00 00 00 00  |................|
 FE3B  00 00 00 00 00 00 00 00 00 00 00 00 00 00 00 00  |................|
 FE4B  00 00 00 00 00 00 00 00 00 00 00 00 00 00 00 00  |................|
 FE5B  00 00 00 00 00 00 00 00 00 00 00 00 00 00 00 00  |................|
 FE6B  00 00 00 00 00 00 00 00 00 00 00 00 00 00 00 00  |................|
 FE7B  00 00 00 00 00 00 00 00 00 00 00 00 00 00 00 00  |................|
 FE8B  00 00 00 00 00 00 00 00 00 00 00 00 00 00 00 00  |................|
 FE9B  00 00 00 00 00 00 00 00 00 00 00 00 00 00 00 00  |................|
 FEAB  00 00 00 00 00 00 00 00 00 00 00 00 00 00 00 00  |................|
 FEBB  00 00 00 00 00 00 00 00 00 00 00 00 00 00 00 00  |................|
 FECB  00 00 00 00 00 00 00 00 00 00 00 00 00 00 00 00  |................|
 FEDB  00 00 00 00 00 00 00 00 00 00 00 00 00 00 00 00  |................|
 FEEB  00 00 00 00 00 00 00 00 00 00 00 00 00 00 00 00  |................|
 FEFB  00 00 00 00 00 00 00 00 00 00 00 00 00 00 00 00  |................|
 FF0B  00 00 00 00 00 00 00 00 00 00 00 00 00 00 00 00  |................|
 FF1B  00 00 00 00 00 00 00 00 00 00 00 00 00 00 00 00  |................|
 FF2B  00 00 00 00 00 00 00 00 00 00 00 00 00 00 00 00  |................|
 FF3B  00 00 00 00 00 00 00 00 00 00 00 00 00 00 00 00  |................|
 FF4B  00 00 00 00 00 00 00 00 00 00 00 00 00 00 00 00  |................|
 FF5B  00 00 00 00 00 00 00 00 00 00 00 00 00 00 00 00  |................|
 FF6B  00 00 00 00 00 00 00 00 00 00 00 00 00 00 00 00  |................|
 FF7B  00 00 00 00 00 00 00 00 00 00 00 00 00 00 00 00  |................|
 FF8B  00 00 00 00 00 00 00 00 00 00 00 00 00 00 00 00  |................|
 FF9B  00 00 00 00 00 00 00 00 00 00 00 00 00 00 00 00  |................|
 FFAB  00 00 00 00 00 00 00 00 00 00 00 00 00 00 00 00  |................|
 FFBB  00 00 00 00 00 00 00 00 00 00 00 00 00 00 00 00  |................|
 FFCB  00 00 00 00 00 00 00 00 00 00 00 00 00 00 00 00  |................|
 FFDB  00 00 00 00 00 00 00 00 00 00 00 00 00 00 00 00  |................|
 FFEB  00 00 00 00 00 00 00 00 00 00 00 00 00 00 00 10  |................|
 FFFB  F0 10 F0 10 F0                                   |.....           |
