 8000  D8        CLD  
 8001  A9 27     LDA  #$27
 8003  85 10     STA  $10
 8005  A9 F0     LDA  #$F0
 8007  85 11     STA  $11
 8009  A2 21     LDX  #$21
 800B  BD C5 80  LDA  $80C5, X
 800E  95 00     STA  $00, X
 8010  CA        DEX  
 8011  D0 F8     BNE  $800B
 8013  AD C5 80  LDA  $80C5
 8016  85 00     STA  $00
 8018  A2 FF     LDX  #$FF
 801A  9A        TXS  
 801B  A2 78     LDX  #$78
 801D  A0 31     LDY  #$31
 801F  A9 00     LDA  #$00
 8021  B9 E7 80  LDA  $80E7, Y
 8024  91 1E     STA  ($1E), Y
 8026  88        DEY  
 8027  D0 F8     BNE  $8021
 8029  AD E7 80  LDA  $80E7
 802C  92 1E     STA  ($1E)
 802E  20 53 89  JSR  $8953
 8031  CA        DEX  
 8032  CA        DEX  
 8033  CA        DEX  
 8034  CA        DEX  
 8035  A9 8D     LDA  #$8D
 8037  95 02     STA  $02, X
 8039  A9 A8     LDA  #$A8
 803B  95 03     STA  $03, X
 803D  A9 51     LDA  #$51
 803F  38        SEC  
 8040  E9 8D     SBC  #$8D
 8042  95 00     STA  $00, X
 8044  A9 A9     LDA  #$A9
 8046  E9 A8     SBC  #$A8
 8048  95 01     STA  $01, X
 804A  20 BA 90  JSR  $90BA
 804D  CA        DEX  
 804E  CA        DEX  
 804F  CA        DEX  
 8050  CA        DEX  
 8051  A9 51     LDA  #$51
 8053  95 02     STA  $02, X
 8055  A9 A9     LDA  #$A9
 8057  95 03     STA  $03, X
 8059  A9 53     LDA  #$53
 805B  38        SEC  
 805C  E9 51     SBC  #$51
 805E  95 00     STA  $00, X
 8060  A9 A9     LDA  #$A9
 8062  E9 A9     SBC  #$A9
 8064  95 01     STA  $01, X
 8066  20 BA 90  JSR  $90BA
 8069  9C 00 7C  STZ  $7C00
 806C  9C 80 7C  STZ  $7C80
 806F  9C 00 7D  STZ  $7D00
 8072  9C 80 7D  STZ  $7D80
 8075  9C 00 7E  STZ  $7E00
 8078  9C 80 7E  STZ  $7E80
 807B  9C 00 7F  STZ  $7F00
 807E  9C 80 7F  STZ  $7F80
 8081  A2 78     LDX  #$78
 8083  8A        TXA  
 8084  A2 FF     LDX  #$FF
 8086  9A        TXS  
 8087  AA        TAX  
 8088  64 0E     STZ  $0E
 808A  64 0F     STZ  $0F
 808C  64 06     STZ  $06
 808E  64 07     STZ  $07
 8090  64 16     STZ  $16
 8092  64 17     STZ  $17
 8094  A9 00     LDA  #$00
 8096  85 08     STA  $08
 8098  A9 02     LDA  #$02
 809A  85 09     STA  $09
 809C  64 0A     STZ  $0A
 809E  64 0B     STZ  $0B
 80A0  20 6F 9A  JSR  $9A6F
 80A3  B5 00     LDA  $00, X
 80A5  D0 05     BNE  $80AC
 80A7  A9 06     LDA  #$06
 80A9  4C C7 BA  JMP  $BAC7
 80AC  E8        INX  
 80AD  E8        INX  
 80AE  20 19 BA  JSR  $BA19
 80B1  E0 78     CPX  #$78
 80B3  F0 05     BEQ  $80BA
 80B5  90 03     BCC  $80BA
 80B7  4C C5 BA  JMP  $BAC5
 80BA  A5 16     LDA  $16
 80BC  F0 02     BEQ  $80C0
 80BE  A9 01     LDA  #$01
 80C0  20 F7 BA  JSR  $BAF7
 80C3  80 CF     BRA  $8094
 80C5  00 08 08 B6 00 00 00 00 00 02 00 00 00 00 00 00  |................|
 80D5  27 F0 21 F0 00 00 00 00 0A 00 14 00 00 00 00 03  |'.!.............|
 80E5  00 00 00 00 00 00 00 04 08 B6 68 B6 71 B6 14 B6  |..........h.q...|
 80F5  00 00 00 00 00 00 00 00 00 00 00 00 00 00 00 00  |................|
 8105  01 00 00 00 00 00 00 00 00 00 00 04 00 00 00 00  |................|
 8115  4B 85 4B 85                                      |K.K.            |
 8119  20 C6 9C  JSR  $9CC6
 811C  A0 81     LDY  #$81
 811E  A9 24     LDA  #$24
 8120  20 54 B9  JSR  $B954
 8123  60        RTS  
 8124  B5 04     LDA  $04, X
 8126  15 05     ORA  $05, X
 8128  F0 09     BEQ  $8133
 812A  20 70 A4  JSR  $A470
 812D  20 53 89  JSR  $8953
 8130  4C 81 80  JMP  $8081
 8133  8A        TXA  
 8134  18        CLC  
 8135  69 06     ADC  #$06
 8137  AA        TAX  
 8138  60        RTS  
 8139  20 B1 BA  JSR  $BAB1
 813C  B5 01     LDA  $01, X
 813E  10 0D     BPL  $814D
 8140  38        SEC  
 8141  A9 00     LDA  #$00
 8143  F5 00     SBC  $00, X
 8145  95 00     STA  $00, X
 8147  A9 00     LDA  #$00
 8149  F5 01     SBC  $01, X
 814B  95 01     STA  $01, X
 814D  60        RTS  
 814E  20 B6 BA  JSR  $BAB6
 8151  B5 00     LDA  $00, X
 8153  15 01     ORA  $01, X
 8155  D0 09     BNE  $8160
 8157  E8        INX  
 8158  E8        INX  
 8159  74 00     STZ  $00, X
 815B  74 01     STZ  $01, X
 815D  4C 2C 82  JMP  $822C
 8160  B5 00     LDA  $00, X
 8162  85 26     STA  $26
 8164  64 27     STZ  $27
 8166  B5 02     LDA  $02, X
 8168  85 24     STA  $24
 816A  B5 03     LDA  $03, X
 816C  85 25     STA  $25
 816E  E8        INX  
 816F  E8        INX  
 8170  A0 00     LDY  #$00
 8172  A5 20     LDA  $20
 8174  29 F7     AND  #$F7
 8176  1A        INC  
 8177  09 08     ORA  #$08
 8179  85 20     STA  $20
 817B  20 1D 93  JSR  $931D
 817E  C9 0A     CMP  #$0A
 8180  F0 20     BEQ  $81A2
 8182  C9 0D     CMP  #$0D
 8184  F0 1C     BEQ  $81A2
 8186  C9 08     CMP  #$08
 8188  F0 22     BEQ  $81AC
 818A  C9 7F     CMP  #$7F
 818C  F0 1E     BEQ  $81AC
 818E  C9 10     CMP  #$10
 8190  F0 36     BEQ  $81C8
 8192  C9 0E     CMP  #$0E
 8194  F0 44     BEQ  $81DA
 8196  91 24     STA  ($24), Y
 8198  C8        INY  
 8199  20 DB 8D  JSR  $8DDB
 819C  C4 26     CPY  $26
 819E  D0 DB     BNE  $817B
 81A0  80 03     BRA  $81A5
 81A2  20 95 A0  JSR  $A095
 81A5  94 00     STY  $00, X
 81A7  74 01     STZ  $01, X
 81A9  4C 2C 82  JMP  $822C
 81AC  C0 00     CPY  #$00
 81AE  D0 06     BNE  $81B6
 81B0  A9 07     LDA  #$07
 81B2  20 DB 8D  JSR  $8DDB
 81B5  C8        INY  
 81B6  88        DEY  
 81B7  A9 08     LDA  #$08
 81B9  20 DB 8D  JSR  $8DDB
 81BC  A9 20     LDA  #$20
 81BE  20 DB 8D  JSR  $8DDB
 81C1  A9 08     LDA  #$08
 81C3  20 DB 8D  JSR  $8DDB
 81C6  80 B3     BRA  $817B
 81C8  A5 20     LDA  $20
 81CA  29 07     AND  #$07
 81CC  D0 08     BNE  $81D6
 81CE  A5 20     LDA  $20
 81D0  09 07     ORA  #$07
 81D2  85 20     STA  $20
 81D4  80 11     BRA  $81E7
 81D6  C6 20     DEC  $20
 81D8  80 0D     BRA  $81E7
 81DA  A9 08     LDA  #$08
 81DC  24 20     BIT  $20
 81DE  D0 07     BNE  $81E7
 81E0  A5 20     LDA  $20
 81E2  29 F7     AND  #$F7
 81E4  1A        INC  
 81E5  85 20     STA  $20
 81E7  A9 08     LDA  #$08
 81E9  14 20     TRB  $20
 81EB  20 47 82  JSR  $8247
 81EE  A9 0D     LDA  #$0D
 81F0  20 DB 8D  JSR  $8DDB
 81F3  C0 00     CPY  #$00
 81F5  F0 08     BEQ  $81FF
 81F7  A9 20     LDA  #$20
 81F9  20 DB 8D  JSR  $8DDB
 81FC  88        DEY  
 81FD  80 F4     BRA  $81F3
 81FF  A9 0D     LDA  #$0D
 8201  20 DB 8D  JSR  $8DDB
 8204  B1 28     LDA  ($28), Y
 8206  85 21     STA  $21
 8208  E6 28     INC  $28
 820A  D0 02     BNE  $820E
 820C  E6 29     INC  $29
 820E  A9 0D     LDA  #$0D
 8210  20 DB 8D  JSR  $8DDB
 8213  C4 21     CPY  $21
 8215  D0 03     BNE  $821A
 8217  4C 7B 81  JMP  $817B
 821A  C4 26     CPY  $26
 821C  F0 0A     BEQ  $8228
 821E  B1 28     LDA  ($28), Y
 8220  91 24     STA  ($24), Y
 8222  20 DB 8D  JSR  $8DDB
 8225  C8        INY  
 8226  80 EB     BRA  $8213
 8228  88        DEY  
 8229  4C 7B 81  JMP  $817B
 822C  20 47 82  JSR  $8247
 822F  85 21     STA  $21
 8231  A0 00     LDY  #$00
 8233  91 28     STA  ($28), Y
 8235  E6 28     INC  $28
 8237  D0 02     BNE  $823B
 8239  E6 29     INC  $29
 823B  C4 21     CPY  $21
 823D  F0 07     BEQ  $8246
 823F  B1 24     LDA  ($24), Y
 8241  91 28     STA  ($28), Y
 8243  C8        INY  
 8244  80 F5     BRA  $823B
 8246  60        RTS  
 8247  A9 00     LDA  #$00
 8249  85 28     STA  $28
 824B  A9 7C     LDA  #$7C
 824D  85 29     STA  $29
 824F  A5 20     LDA  $20
 8251  6A        ROR  
 8252  29 03     AND  #$03
 8254  18        CLC  
 8255  65 29     ADC  $29
 8257  85 29     STA  $29
 8259  A5 20     LDA  $20
 825B  6A        ROR  
 825C  6A        ROR  
 825D  29 80     AND  #$80
 825F  18        CLC  
 8260  65 28     ADC  $28
 8262  85 28     STA  $28
 8264  90 02     BCC  $8268
 8266  E6 29     INC  $29
 8268  98        TYA  
 8269  C9 80     CMP  #$80
 826B  90 02     BCC  $826F
 826D  A9 7F     LDA  #$7F
 826F  60        RTS  
 8270  A5 16     LDA  $16
 8272  05 17     ORA  $17
 8274  F0 0C     BEQ  $8282
 8276  20 8E 85  JSR  $858E
 8279  A0 8A     LDY  #$8A
 827B  A9 CF     LDA  #$CF
 827D  20 54 B9  JSR  $B954
 8280  80 06     BRA  $8288
 8282  20 7E A1  JSR  $A17E
 8285  20 CF 8A  JSR  $8ACF
 8288  60        RTS  
 8289  20 B1 BA  JSR  $BAB1
 828C  A0 00     LDY  #$00
 828E  A9 4C     LDA  #$4C
 8290  91 00     STA  ($00), Y
 8292  C8        INY  
 8293  B5 00     LDA  $00, X
 8295  91 00     STA  ($00), Y
 8297  C8        INY  
 8298  B5 01     LDA  $01, X
 829A  91 00     STA  ($00), Y
 829C  C8        INY  
 829D  98        TYA  
 829E  18        CLC  
 829F  65 00     ADC  $00
 82A1  85 00     STA  $00
 82A3  90 02     BCC  $82A7
 82A5  E6 01     INC  $01
 82A7  E8        INX  
 82A8  E8        INX  
 82A9  60        RTS  
 82AA  60        RTS  
 82AB  20 B1 BA  JSR  $BAB1
 82AE  B5 01     LDA  $01, X
 82B0  30 22     BMI  $82D4
 82B2  18        CLC  
 82B3  A5 00     LDA  $00
 82B5  75 00     ADC  $00, X
 82B7  85 00     STA  $00
 82B9  A5 01     LDA  $01
 82BB  75 01     ADC  $01, X
 82BD  85 01     STA  $01
 82BF  A0 00     LDY  #$00
 82C1  C4 00     CPY  $00
 82C3  A9 7C     LDA  #$7C
 82C5  E5 01     SBC  $01
 82C7  B0 48     BCS  $8311
 82C9  84 00     STY  $00
 82CB  A9 7C     LDA  #$7C
 82CD  85 01     STA  $01
 82CF  A9 00     LDA  #$00
 82D1  4C C7 BA  JMP  $BAC7
 82D4  CA        DEX  
 82D5  CA        DEX  
 82D6  A5 00     LDA  $00
 82D8  95 00     STA  $00, X
 82DA  A5 01     LDA  $01
 82DC  95 01     STA  $01, X
 82DE  20 5A 99  JSR  $995A
 82E1  CA        DEX  
 82E2  CA        DEX  
 82E3  A9 00     LDA  #$00
 82E5  95 00     STA  $00, X
 82E7  A9 03     LDA  #$03
 82E9  95 01     STA  $01, X
 82EB  20 D8 B9  JSR  $B9D8
 82EE  F0 17     BEQ  $8307
 82F0  30 15     BMI  $8307
 82F2  A9 00     LDA  #$00
 82F4  85 00     STA  $00
 82F6  A9 03     LDA  #$03
 82F8  85 01     STA  $01
 82FA  A9 08     LDA  #$08
 82FC  85 02     STA  $02
 82FE  A9 B6     LDA  #$B6
 8300  85 03     STA  $03
 8302  A9 0A     LDA  #$0A
 8304  4C C7 BA  JMP  $BAC7
 8307  B5 02     LDA  $02, X
 8309  85 00     STA  $00
 830B  B5 03     LDA  $03, X
 830D  85 01     STA  $01
 830F  E8        INX  
 8310  E8        INX  
 8311  E8        INX  
 8312  E8        INX  
 8313  60        RTS  
 8314  20 F3 B9  JSR  $B9F3
 8317  A0 01     LDY  #$01
 8319  B1 02     LDA  ($02), Y
 831B  29 F5     AND  #$F5
 831D  91 02     STA  ($02), Y
 831F  60        RTS  
 8320  20 19 91  JSR  $9119
 8323  20 0A 98  JSR  $980A
 8326  20 1B A1  JSR  $A11B
 8329  20 94 97  JSR  $9794
 832C  20 92 9C  JSR  $9C92
 832F  60        RTS  
 8330  20 F3 B9  JSR  $B9F3
 8333  A0 01     LDY  #$01
 8335  B1 02     LDA  ($02), Y
 8337  09 02     ORA  #$02
 8339  29 F7     AND  #$F7
 833B  91 02     STA  ($02), Y
 833D  60        RTS  
 833E  20 B6 BA  JSR  $BAB6
 8341  B5 00     LDA  $00, X
 8343  35 02     AND  $02, X
 8345  95 02     STA  $02, X
 8347  B5 01     LDA  $01, X
 8349  35 03     AND  $03, X
 834B  95 03     STA  $03, X
 834D  E8        INX  
 834E  E8        INX  
 834F  60        RTS  
 8350  20 B6 BA  JSR  $BAB6
 8353  A9 1B     LDA  #$1B
 8355  20 DB 8D  JSR  $8DDB
 8358  A9 5B     LDA  #$5B
 835A  20 DB 8D  JSR  $8DDB
 835D  20 FD BA  JSR  $BAFD
 8360  A9 3B     LDA  #$3B
 8362  20 DB 8D  JSR  $8DDB
 8365  20 FD BA  JSR  $BAFD
 8368  A9 48     LDA  #$48
 836A  20 DB 8D  JSR  $8DDB
 836D  60        RTS  
 836E  A5 0A     LDA  $0A
 8370  85 0C     STA  $0C
 8372  A5 0B     LDA  $0B
 8374  85 0D     STA  $0D
 8376  60        RTS  
 8377  CA        DEX  
 8378  CA        DEX  
 8379  A9 18     LDA  #$18
 837B  95 00     STA  $00, X
 837D  74 01     STZ  $01, X
 837F  60        RTS  
 8380  20 57 91  JSR  $9157
 8383  60        RTS  
 8384  A9 07     LDA  #$07
 8386  20 DB 8D  JSR  $8DDB
 8389  60        RTS  
 838A  CA        DEX  
 838B  CA        DEX  
 838C  A9 20     LDA  #$20
 838E  95 00     STA  $00, X
 8390  74 01     STZ  $01, X
 8392  60        RTS  
 8393  CA        DEX  
 8394  CA        DEX  
 8395  18        CLC  
 8396  A5 1E     LDA  $1E
 8398  69 00     ADC  #$00
 839A  95 00     STA  $00, X
 839C  A5 1F     LDA  $1F
 839E  69 00     ADC  #$00
 83A0  95 01     STA  $01, X
 83A2  60        RTS  
 83A3  CA        DEX  
 83A4  CA        DEX  
 83A5  A0 28     LDY  #$28
 83A7  B1 1E     LDA  ($1E), Y
 83A9  95 00     STA  $00, X
 83AB  C8        INY  
 83AC  B1 1E     LDA  ($1E), Y
 83AE  95 01     STA  $01, X
 83B0  60        RTS  
 83B1  A0 2A     LDY  #$2A
 83B3  B1 1E     LDA  ($1E), Y
 83B5  D5 00     CMP  $00, X
 83B7  D0 0F     BNE  $83C8
 83B9  C8        INY  
 83BA  B1 1E     LDA  ($1E), Y
 83BC  D5 01     CMP  $01, X
 83BE  D0 08     BNE  $83C8
 83C0  A0 2C     LDY  #$2C
 83C2  B1 1E     LDA  ($1E), Y
 83C4  29 01     AND  #$01
 83C6  D0 30     BNE  $83F8
 83C8  A0 2C     LDY  #$2C
 83CA  B1 1E     LDA  ($1E), Y
 83CC  C9 03     CMP  #$03
 83CE  D0 0C     BNE  $83DC
 83D0  20 A3 83  JSR  $83A3
 83D3  20 95 85  JSR  $8595
 83D6  20 65 8F  JSR  $8F65
 83D9  20 50 85  JSR  $8550
 83DC  A0 2A     LDY  #$2A
 83DE  B5 00     LDA  $00, X
 83E0  91 1E     STA  ($1E), Y
 83E2  C8        INY  
 83E3  B5 01     LDA  $01, X
 83E5  91 1E     STA  ($1E), Y
 83E7  20 A3 83  JSR  $83A3
 83EA  20 1B A1  JSR  $A11B
 83ED  20 2D 85  JSR  $852D
 83F0  A9 01     LDA  #$01
 83F2  A0 2C     LDY  #$2C
 83F4  91 1E     STA  ($1E), Y
 83F6  CA        DEX  
 83F7  CA        DEX  
 83F8  A0 28     LDY  #$28
 83FA  B1 1E     LDA  ($1E), Y
 83FC  95 00     STA  $00, X
 83FE  C8        INY  
 83FF  B1 1E     LDA  ($1E), Y
 8401  95 01     STA  $01, X
 8403  60        RTS  
 8404  20 B1 BA  JSR  $BAB1
 8407  4C 22 85  JMP  $8522
 840A  62 61 73 65 20 40 20 73 77 61 70 20 64 65 63 69  |base @ swap deci|
 841A  6D 61 6C 20 31 30 32 34 20 2A 20 64 75 70 20 62  |mal 1024 * dup b|
 842A  75 66 66 65 72 3A 20 72 61 6D 64 72 69 76 65 20  |uffer: ramdrive |
 843A  3A 20 62 6C 6F 63 6B 2D 72 65 61 64 2D 72 61 6D  |: block-read-ram|
 844A  64 72 69 76 65 20 72 61 6D 64 72 69 76 65 20 73  |drive ramdrive s|
 845A  77 61 70 20 31 30 32 34 20 2A 20 2B 20 73 77 61  |wap 1024 * + swa|
 846A  70 20 31 30 32 34 20 6D 6F 76 65 20 3B 20 3A 20  |p 1024 move ; : |
 847A  62 6C 6F 63 6B 2D 77 72 69 74 65 2D 72 61 6D 64  |block-write-ramd|
 848A  72 69 76 65 20 72 61 6D 64 72 69 76 65 20 73 77  |rive ramdrive sw|
 849A  61 70 20 31 30 32 34 20 2A 20 2B 20 31 30 32 34  |ap 1024 * + 1024|
 84AA  20 6D 6F 76 65 20 3B 20 27 20 62 6C 6F 63 6B 2D  | move ; ' block-|
 84BA  72 65 61 64 2D 72 61 6D 64 72 69 76 65 20 62 6C  |read-ramdrive bl|
 84CA  6F 63 6B 2D 72 65 61 64 2D 76 65 63 74 6F 72 20  |ock-read-vector |
 84DA  21 20 27 20 62 6C 6F 63 6B 2D 77 72 69 74 65 2D  |! ' block-write-|
 84EA  72 61 6D 64 72 69 76 65 20 62 6C 6F 63 6B 2D 77  |ramdrive block-w|
 84FA  72 69 74 65 2D 76 65 63 74 6F 72 20 21 20 72 61  |rite-vector ! ra|
 850A  6D 64 72 69 76 65 20 73 77 61 70 20 62 6C 61 6E  |mdrive swap blan|
 851A  6B 20 62 61 73 65 20 21                          |k base !        |
 8522  20 20 A0  JSR  $A020
 8525  0A 84 18 01                                      |....            |
 8529  20 BA 90  JSR  $90BA
 852C  60        RTS  
 852D  A0 2E     LDY  #$2E
 852F  B1 1E     LDA  ($1E), Y
 8531  85 24     STA  $24
 8533  C8        INY  
 8534  B1 1E     LDA  ($1E), Y
 8536  85 25     STA  $25
 8538  6C 24 00  JMP  ($0024)
 853B  CA        DEX  
 853C  CA        DEX  
 853D  18        CLC  
 853E  A5 1E     LDA  $1E
 8540  69 2E     ADC  #$2E
 8542  95 00     STA  $00, X
 8544  A5 1F     LDA  $1F
 8546  69 00     ADC  #$00
 8548  95 01     STA  $01, X
 854A  60        RTS  
 854B  A9 0C     LDA  #$0C
 854D  4C C7 BA  JMP  $BAC7
 8550  A0 30     LDY  #$30
 8552  B1 1E     LDA  ($1E), Y
 8554  85 24     STA  $24
 8556  C8        INY  
 8557  B1 1E     LDA  ($1E), Y
 8559  85 25     STA  $25
 855B  6C 24 00  JMP  ($0024)
 855E  CA        DEX  
 855F  CA        DEX  
 8560  18        CLC  
 8561  A5 1E     LDA  $1E
 8563  69 30     ADC  #$30
 8565  95 00     STA  $00, X
 8567  A5 1F     LDA  $1F
 8569  69 00     ADC  #$00
 856B  95 01     STA  $01, X
 856D  60        RTS  
 856E  20 B6 BA  JSR  $BAB6
 8571  18        CLC  
 8572  B5 00     LDA  $00, X
 8574  B4 02     LDY  $02, X
 8576  75 02     ADC  $02, X
 8578  95 02     STA  $02, X
 857A  94 00     STY  $00, X
 857C  B5 01     LDA  $01, X
 857E  B4 03     LDY  $03, X
 8580  75 03     ADC  $03, X
 8582  95 03     STA  $03, X
 8584  94 01     STY  $01, X
 8586  60        RTS  
 8587  20 21 86  JSR  $8621
 858A  20 6F 93  JSR  $936F
 858D  60        RTS  
 858E  20 7E A1  JSR  $A17E
 8591  20 6F 93  JSR  $936F
 8594  60        RTS  
 8595  CA        DEX  
 8596  CA        DEX  
 8597  18        CLC  
 8598  A5 1E     LDA  $1E
 859A  69 2A     ADC  #$2A
 859C  95 00     STA  $00, X
 859E  A5 1F     LDA  $1F
 85A0  69 00     ADC  #$00
 85A2  95 01     STA  $01, X
 85A4  60        RTS  
 85A5  A0 2C     LDY  #$2C
 85A7  B1 1E     LDA  ($1E), Y
 85A9  C9 03     CMP  #$03
 85AB  D0 0C     BNE  $85B9
 85AD  20 A3 83  JSR  $83A3
 85B0  20 95 85  JSR  $8595
 85B3  20 65 8F  JSR  $8F65
 85B6  20 50 85  JSR  $8550
 85B9  A0 2A     LDY  #$2A
 85BB  B5 00     LDA  $00, X
 85BD  91 1E     STA  ($1E), Y
 85BF  C8        INY  
 85C0  B5 01     LDA  $01, X
 85C2  91 1E     STA  ($1E), Y
 85C4  A9 01     LDA  #$01
 85C6  A0 2C     LDY  #$2C
 85C8  91 1E     STA  ($1E), Y
 85CA  A0 28     LDY  #$28
 85CC  B1 1E     LDA  ($1E), Y
 85CE  95 00     STA  $00, X
 85D0  C8        INY  
 85D1  B1 1E     LDA  ($1E), Y
 85D3  95 01     STA  $01, X
 85D5  60        RTS  
 85D6  20 59 89  JSR  $8959
 85D9  20 AB 82  JSR  $82AB
 85DC  60        RTS  
 85DD  CA        DEX  
 85DE  CA        DEX  
 85DF  18        CLC  
 85E0  A5 1E     LDA  $1E
 85E2  69 2C     ADC  #$2C
 85E4  95 00     STA  $00, X
 85E6  A5 1F     LDA  $1F
 85E8  69 00     ADC  #$00
 85EA  95 01     STA  $01, X
 85EC  60        RTS  
 85ED  4C 00 E0  JMP  $E000
 85F0  20 B1 BA  JSR  $BAB1
 85F3  B5 00     LDA  $00, X
 85F5  20 64 B9  JSR  $B964
 85F8  E8        INX  
 85F9  E8        INX  
 85FA  60        RTS  
 85FB  20 B1 BA  JSR  $BAB1
 85FE  A1 00     LDA  ($00, X)
 8600  95 00     STA  $00, X
 8602  74 01     STZ  $01, X
 8604  60        RTS  
 8605  20 B6 BA  JSR  $BAB6
 8608  B5 02     LDA  $02, X
 860A  81 00     STA  ($00, X)
 860C  E8        INX  
 860D  E8        INX  
 860E  E8        INX  
 860F  E8        INX  
 8610  60        RTS  
 8611  20 B1 BA  JSR  $BAB1
 8614  F6 00     INC  $00, X
 8616  D0 02     BNE  $861A
 8618  F6 01     INC  $01, X
 861A  F6 00     INC  $00, X
 861C  D0 02     BNE  $8620
 861E  F6 01     INC  $01, X
 8620  60        RTS  
 8621  20 56 98  JSR  $9856
 8624  B5 00     LDA  $00, X
 8626  15 01     ORA  $01, X
 8628  D0 05     BNE  $862F
 862A  A9 05     LDA  #$05
 862C  4C C7 BA  JMP  $BAC7
 862F  E8        INX  
 8630  E8        INX  
 8631  A1 00     LDA  ($00, X)
 8633  95 00     STA  $00, X
 8635  74 01     STZ  $01, X
 8637  60        RTS  
 8638  20 B1 BA  JSR  $BAB1
 863B  60        RTS  
 863C  20 B6 BA  JSR  $BAB6
 863F  20 48 95  JSR  $9548
 8642  20 47 92  JSR  $9247
 8645  B5 00     LDA  $00, X
 8647  85 0A     STA  $0A
 8649  B5 01     LDA  $01, X
 864B  85 0B     STA  $0B
 864D  B5 02     LDA  $02, X
 864F  85 08     STA  $08
 8651  B5 03     LDA  $03, X
 8653  85 09     STA  $09
 8655  64 0C     STZ  $0C
 8657  64 0D     STZ  $0D
 8659  20 56 98  JSR  $9856
 865C  B5 00     LDA  $00, X
 865E  15 01     ORA  $01, X
 8660  F0 23     BEQ  $8685
 8662  B5 04     LDA  $04, X
 8664  38        SEC  
 8665  F5 00     SBC  $00, X
 8667  95 04     STA  $04, X
 8669  B5 05     LDA  $05, X
 866B  F5 01     SBC  $01, X
 866D  95 05     STA  $05, X
 866F  B5 06     LDA  $06, X
 8671  18        CLC  
 8672  75 00     ADC  $00, X
 8674  95 06     STA  $06, X
 8676  B5 07     LDA  $07, X
 8678  75 01     ADC  $01, X
 867A  95 07     STA  $07, X
 867C  20 EB A3  JSR  $A3EB
 867F  20 48 95  JSR  $9548
 8682  20 EB A3  JSR  $A3EB
 8685  20 1A 9A  JSR  $9A1A
 8688  60        RTS  
 8689  20 BB BA  JSR  $BABB
 868C  B5 02     LDA  $02, X
 868E  85 26     STA  $26
 8690  B5 03     LDA  $03, X
 8692  85 27     STA  $27
 8694  B5 04     LDA  $04, X
 8696  85 24     STA  $24
 8698  B5 05     LDA  $05, X
 869A  85 25     STA  $25
 869C  A0 00     LDY  #$00
 869E  B5 01     LDA  $01, X
 86A0  F0 0F     BEQ  $86B1
 86A2  B1 24     LDA  ($24), Y
 86A4  91 26     STA  ($26), Y
 86A6  C8        INY  
 86A7  D0 F9     BNE  $86A2
 86A9  E6 25     INC  $25
 86AB  E6 27     INC  $27
 86AD  D6 01     DEC  $01, X
 86AF  D0 F1     BNE  $86A2
 86B1  B5 00     LDA  $00, X
 86B3  F0 09     BEQ  $86BE
 86B5  B1 24     LDA  ($24), Y
 86B7  91 26     STA  ($26), Y
 86B9  C8        INY  
 86BA  D6 00     DEC  $00, X
 86BC  D0 F7     BNE  $86B5
 86BE  8A        TXA  
 86BF  18        CLC  
 86C0  69 06     ADC  #$06
 86C2  AA        TAX  
 86C3  60        RTS  
 86C4  20 BB BA  JSR  $BABB
 86C7  B5 02     LDA  $02, X
 86C9  85 26     STA  $26
 86CB  B5 03     LDA  $03, X
 86CD  18        CLC  
 86CE  75 01     ADC  $01, X
 86D0  85 27     STA  $27
 86D2  B5 04     LDA  $04, X
 86D4  85 24     STA  $24
 86D6  B5 05     LDA  $05, X
 86D8  18        CLC  
 86D9  75 01     ADC  $01, X
 86DB  85 25     STA  $25
 86DD  F6 01     INC  $01, X
 86DF  B4 00     LDY  $00, X
 86E1  F0 0E     BEQ  $86F1
 86E3  88        DEY  
 86E4  F0 07     BEQ  $86ED
 86E6  B1 24     LDA  ($24), Y
 86E8  91 26     STA  ($26), Y
 86EA  88        DEY  
 86EB  D0 F9     BNE  $86E6
 86ED  B2 24     LDA  ($24)
 86EF  92 26     STA  ($26)
 86F1  C6 25     DEC  $25
 86F3  C6 27     DEC  $27
 86F5  D6 01     DEC  $01, X
 86F7  D0 EA     BNE  $86E3
 86F9  8A        TXA  
 86FA  18        CLC  
 86FB  69 06     ADC  #$06
 86FD  AA        TAX  
 86FE  60        RTS  
 86FF  A5 16     LDA  $16
 8701  05 17     ORA  $17
 8703  F0 05     BEQ  $870A
 8705  A9 07     LDA  #$07
 8707  4C C7 BA  JMP  $BAC7
 870A  C6 16     DEC  $16
 870C  C6 17     DEC  $17
 870E  A9 40     LDA  #$40
 8710  04 20     TSB  $20
 8712  20 F3 B9  JSR  $B9F3
 8715  A5 03     LDA  $03
 8717  48        PHA  
 8718  A5 02     LDA  $02
 871A  48        PHA  
 871B  A9 80     LDA  #$80
 871D  04 20     TSB  $20
 871F  20 59 89  JSR  $8959
 8722  20 F3 B9  JSR  $B9F3
 8725  A5 02     LDA  $02
 8727  85 04     STA  $04
 8729  A5 03     LDA  $03
 872B  85 05     STA  $05
 872D  68        PLA  
 872E  85 02     STA  $02
 8730  68        PLA  
 8731  85 03     STA  $03
 8733  20 06 BA  JSR  $BA06
 8736  A5 00     LDA  $00
 8738  38        SEC  
 8739  E9 03     SBC  #$03
 873B  85 00     STA  $00
 873D  B0 02     BCS  $8741
 873F  C6 01     DEC  $01
 8741  60        RTS  
 8742  A5 16     LDA  $16
 8744  05 17     ORA  $17
 8746  F0 05     BEQ  $874D
 8748  A9 07     LDA  #$07
 874A  4C C7 BA  JMP  $BAC7
 874D  C6 16     DEC  $16
 874F  C6 17     DEC  $17
 8751  A9 40     LDA  #$40
 8753  14 20     TRB  $20
 8755  A5 00     LDA  $00
 8757  85 04     STA  $04
 8759  A5 01     LDA  $01
 875B  85 05     STA  $05
 875D  60        RTS  
 875E  20 B1 BA  JSR  $BAB1
 8761  B5 00     LDA  $00, X
 8763  92 00     STA  ($00)
 8765  E6 00     INC  $00
 8767  D0 02     BNE  $876B
 8769  E6 01     INC  $01
 876B  B5 01     LDA  $01, X
 876D  92 00     STA  ($00)
 876F  E6 00     INC  $00
 8771  D0 02     BNE  $8775
 8773  E6 01     INC  $01
 8775  E8        INX  
 8776  E8        INX  
 8777  60        RTS  
 8778  20 C0 BA  JSR  $BAC0
 877B  B5 02     LDA  $02, X
 877D  85 26     STA  $26
 877F  B5 03     LDA  $03, X
 8781  85 27     STA  $27
 8783  B5 06     LDA  $06, X
 8785  85 24     STA  $24
 8787  B5 07     LDA  $07, X
 8789  85 25     STA  $25
 878B  B5 04     LDA  $04, X
 878D  15 05     ORA  $05, X
 878F  F0 2C     BEQ  $87BD
 8791  B5 00     LDA  $00, X
 8793  15 01     ORA  $01, X
 8795  F0 3A     BEQ  $87D1
 8797  B2 24     LDA  ($24)
 8799  D2 26     CMP  ($26)
 879B  90 26     BCC  $87C3
 879D  D0 32     BNE  $87D1
 879F  E6 24     INC  $24
 87A1  D0 02     BNE  $87A5
 87A3  E6 25     INC  $25
 87A5  E6 26     INC  $26
 87A7  D0 02     BNE  $87AB
 87A9  E6 27     INC  $27
 87AB  B5 04     LDA  $04, X
 87AD  D0 02     BNE  $87B1
 87AF  D6 05     DEC  $05, X
 87B1  D6 04     DEC  $04, X
 87B3  B5 00     LDA  $00, X
 87B5  D0 02     BNE  $87B9
 87B7  D6 01     DEC  $01, X
 87B9  D6 00     DEC  $00, X
 87BB  80 CE     BRA  $878B
 87BD  B5 00     LDA  $00, X
 87BF  15 01     ORA  $01, X
 87C1  F0 08     BEQ  $87CB
 87C3  A9 FF     LDA  #$FF
 87C5  95 06     STA  $06, X
 87C7  95 07     STA  $07, X
 87C9  80 0C     BRA  $87D7
 87CB  74 06     STZ  $06, X
 87CD  74 07     STZ  $07, X
 87CF  80 06     BRA  $87D7
 87D1  A9 01     LDA  #$01
 87D3  95 06     STA  $06, X
 87D5  74 07     STZ  $07, X
 87D7  8A        TXA  
 87D8  18        CLC  
 87D9  69 06     ADC  #$06
 87DB  AA        TAX  
 87DC  60        RTS  
 87DD  20 B1 BA  JSR  $BAB1
 87E0  B5 01     LDA  $01, X
 87E2  48        PHA  
 87E3  B5 00     LDA  $00, X
 87E5  48        PHA  
 87E6  20 5D 92  JSR  $925D
 87E9  B5 00     LDA  $00, X
 87EB  15 01     ORA  $01, X
 87ED  D0 03     BNE  $87F2
 87EF  4C DA 88  JMP  $88DA
 87F2  B5 00     LDA  $00, X
 87F4  85 2C     STA  $2C
 87F6  B5 01     LDA  $01, X
 87F8  85 2D     STA  $2D
 87FA  F6 00     INC  $00, X
 87FC  D0 02     BNE  $8800
 87FE  F6 01     INC  $01, X
 8800  A1 00     LDA  ($00, X)
 8802  85 28     STA  $28
 8804  29 02     AND  #$02
 8806  F0 0D     BEQ  $8815
 8808  A5 2C     LDA  $2C
 880A  95 00     STA  $00, X
 880C  A5 2D     LDA  $2D
 880E  95 01     STA  $01, X
 8810  20 E1 A6  JSR  $A6E1
 8813  80 27     BRA  $883C
 8815  A5 28     LDA  $28
 8817  29 08     AND  #$08
 8819  F0 03     BEQ  $881E
 881B  4C DA 88  JMP  $88DA
 881E  A5 2C     LDA  $2C
 8820  95 00     STA  $00, X
 8822  A5 2D     LDA  $2D
 8824  95 01     STA  $01, X
 8826  20 E1 A6  JSR  $A6E1
 8829  B5 01     LDA  $01, X
 882B  C5 1B     CMP  $1B
 882D  90 0D     BCC  $883C
 882F  D0 08     BNE  $8839
 8831  B5 00     LDA  $00, X
 8833  C5 1A     CMP  $1A
 8835  90 05     BCC  $883C
 8837  F0 03     BEQ  $883C
 8839  4C DA 88  JMP  $88DA
 883C  CA        DEX  
 883D  CA        DEX  
 883E  CA        DEX  
 883F  CA        DEX  
 8840  B5 04     LDA  $04, X
 8842  95 00     STA  $00, X
 8844  B5 05     LDA  $05, X
 8846  95 01     STA  $01, X
 8848  68        PLA  
 8849  95 04     STA  $04, X
 884B  68        PLA  
 884C  95 05     STA  $05, X
 884E  A5 00     LDA  $00
 8850  95 02     STA  $02, X
 8852  A5 01     LDA  $01
 8854  95 03     STA  $03, X
 8856  A0 00     LDY  #$00
 8858  B9 C8 88  LDA  $88C8, Y
 885B  D5 04     CMP  $04, X
 885D  D0 07     BNE  $8866
 885F  B9 C9 88  LDA  $88C9, Y
 8862  D5 05     CMP  $05, X
 8864  F0 0C     BEQ  $8872
 8866  B9 C8 88  LDA  $88C8, Y
 8869  19 C9 88  ORA  $88C9, Y
 886C  F0 22     BEQ  $8890
 886E  C8        INY  
 886F  C8        INY  
 8870  80 E6     BRA  $8858
 8872  98        TYA  
 8873  4A        LSR  
 8874  A8        TAY  
 8875  B9 D4 88  LDA  $88D4, Y
 8878  85 2C     STA  $2C
 887A  18        CLC  
 887B  75 04     ADC  $04, X
 887D  95 04     STA  $04, X
 887F  90 02     BCC  $8883
 8881  F6 05     INC  $05, X
 8883  06 2C     ASL  $2C
 8885  38        SEC  
 8886  B5 00     LDA  $00, X
 8888  E5 2C     SBC  $2C
 888A  95 00     STA  $00, X
 888C  B0 02     BCS  $8890
 888E  D6 01     DEC  $01, X
 8890  A5 1C     LDA  $1C
 8892  05 1D     ORA  $1D
 8894  F0 1C     BEQ  $88B2
 8896  A5 28     LDA  $28
 8898  29 10     AND  #$10
 889A  F0 16     BEQ  $88B2
 889C  18        CLC  
 889D  B5 04     LDA  $04, X
 889F  69 03     ADC  #$03
 88A1  95 04     STA  $04, X
 88A3  90 02     BCC  $88A7
 88A5  F6 05     INC  $05, X
 88A7  38        SEC  
 88A8  B5 00     LDA  $00, X
 88AA  E9 03     SBC  #$03
 88AC  95 00     STA  $00, X
 88AE  B0 02     BCS  $88B2
 88B0  D6 01     DEC  $01, X
 88B2  B5 01     LDA  $01, X
 88B4  48        PHA  
 88B5  B5 00     LDA  $00, X
 88B7  48        PHA  
 88B8  20 A7 95  JSR  $95A7
 88BB  18        CLC  
 88BC  68        PLA  
 88BD  65 00     ADC  $00
 88BF  85 00     STA  $00
 88C1  68        PLA  
 88C2  65 01     ADC  $01
 88C4  85 01     STA  $01
 88C6  80 2C     BRA  $88F4
 88C8  09 9A F4 99 DD A2 0F A4 95 A3 00 00 04 04 04 06  |................|
 88D8  06 00                                            |..              |
 88DA  A9 20     LDA  #$20
 88DC  92 00     STA  ($00)
 88DE  A0 01     LDY  #$01
 88E0  68        PLA  
 88E1  91 00     STA  ($00), Y
 88E3  C8        INY  
 88E4  68        PLA  
 88E5  91 00     STA  ($00), Y
 88E7  A9 03     LDA  #$03
 88E9  18        CLC  
 88EA  65 00     ADC  $00
 88EC  85 00     STA  $00
 88EE  90 02     BCC  $88F2
 88F0  E6 01     INC  $01
 88F2  E8        INX  
 88F3  E8        INX  
 88F4  60        RTS  
 88F5  20 F3 B9  JSR  $B9F3
 88F8  A0 01     LDY  #$01
 88FA  B1 02     LDA  ($02), Y
 88FC  09 01     ORA  #$01
 88FE  91 02     STA  ($02), Y
 8900  60        RTS  
 8901  20 B1 BA  JSR  $BAB1
 8904  20 59 89  JSR  $8959
 8907  38        SEC  
 8908  A5 00     LDA  $00
 890A  E9 02     SBC  #$02
 890C  85 24     STA  $24
 890E  A5 01     LDA  $01
 8910  E9 00     SBC  #$00
 8912  85 25     STA  $25
 8914  A9 6D     LDA  #$6D
 8916  92 24     STA  ($24)
 8918  A0 01     LDY  #$01
 891A  A9 B9     LDA  #$B9
 891C  91 24     STA  ($24), Y
 891E  20 5E 87  JSR  $875E
 8921  20 20 93  JSR  $9320
 8924  B5 00     LDA  $00, X
 8926  85 24     STA  $24
 8928  B5 01     LDA  $01, X
 892A  85 25     STA  $25
 892C  A0 06     LDY  #$06
 892E  B1 24     LDA  ($24), Y
 8930  18        CLC  
 8931  69 02     ADC  #$02
 8933  91 24     STA  ($24), Y
 8935  C8        INY  
 8936  B1 24     LDA  ($24), Y
 8938  69 00     ADC  #$00
 893A  91 24     STA  ($24), Y
 893C  E8        INX  
 893D  E8        INX  
 893E  60        RTS  
 893F  20 B1 BA  JSR  $BAB1
 8942  A1 00     LDA  ($00, X)
 8944  A8        TAY  
 8945  F6 00     INC  $00, X
 8947  D0 02     BNE  $894B
 8949  F6 01     INC  $01, X
 894B  98        TYA  
 894C  CA        DEX  
 894D  CA        DEX  
 894E  95 00     STA  $00, X
 8950  74 01     STZ  $01, X
 8952  60        RTS  
 8953  A9 0A     LDA  #$0A
 8955  20 DB 8D  JSR  $8DDB
 8958  60        RTS  
 8959  20 56 98  JSR  $9856
 895C  B5 00     LDA  $00, X
 895E  15 01     ORA  $01, X
 8960  D0 05     BNE  $8967
 8962  A9 05     LDA  #$05
 8964  4C C7 BA  JMP  $BAC7
 8967  74 01     STZ  $01, X
 8969  20 25 A3  JSR  $A325
 896C  20 C0 8F  JSR  $8FC0
 896F  B5 00     LDA  $00, X
 8971  15 01     ORA  $01, X
 8973  F0 1E     BEQ  $8993
 8975  E8        INX  
 8976  E8        INX  
 8977  24 20     BIT  $20
 8979  10 08     BPL  $8983
 897B  A9 80     LDA  #$80
 897D  05 20     ORA  $20
 897F  85 20     STA  $20
 8981  80 18     BRA  $899B
 8983  A9 02     LDA  #$02
 8985  20 DD BA  JSR  $BADD
 8988  20 25 A3  JSR  $A325
 898B  20 70 A4  JSR  $A470
 898E  20 95 A0  JSR  $A095
 8991  80 08     BRA  $899B
 8993  E8        INX  
 8994  E8        INX  
 8995  A9 7F     LDA  #$7F
 8997  25 20     AND  $20
 8999  85 20     STA  $20
 899B  B5 00     LDA  $00, X
 899D  85 26     STA  $26
 899F  A5 00     LDA  $00
 89A1  85 24     STA  $24
 89A3  A5 01     LDA  $01
 89A5  85 25     STA  $25
 89A7  B5 00     LDA  $00, X
 89A9  18        CLC  
 89AA  69 08     ADC  #$08
 89AC  85 28     STA  $28
 89AE  18        CLC  
 89AF  69 03     ADC  #$03
 89B1  95 00     STA  $00, X
 89B3  74 01     STZ  $01, X
 89B5  20 AB 82  JSR  $82AB
 89B8  20 F3 B9  JSR  $B9F3
 89BB  A0 00     LDY  #$00
 89BD  A5 26     LDA  $26
 89BF  91 24     STA  ($24), Y
 89C1  A9 08     LDA  #$08
 89C3  09 20     ORA  #$20
 89C5  C8        INY  
 89C6  91 24     STA  ($24), Y
 89C8  C8        INY  
 89C9  A5 02     LDA  $02
 89CB  91 24     STA  ($24), Y
 89CD  C8        INY  
 89CE  A5 03     LDA  $03
 89D0  91 24     STA  ($24), Y
 89D2  C8        INY  
 89D3  A5 25     LDA  $25
 89D5  85 03     STA  $03
 89D7  A5 24     LDA  $24
 89D9  85 02     STA  $02
 89DB  18        CLC  
 89DC  65 28     ADC  $28
 89DE  91 24     STA  ($24), Y
 89E0  48        PHA  
 89E1  C8        INY  
 89E2  A5 25     LDA  $25
 89E4  69 00     ADC  #$00
 89E6  91 24     STA  ($24), Y
 89E8  C8        INY  
 89E9  68        PLA  
 89EA  18        CLC  
 89EB  69 03     ADC  #$03
 89ED  91 24     STA  ($24), Y
 89EF  88        DEY  
 89F0  B1 24     LDA  ($24), Y
 89F2  69 00     ADC  #$00
 89F4  C8        INY  
 89F5  C8        INY  
 89F6  91 24     STA  ($24), Y
 89F8  C8        INY  
 89F9  B5 00     LDA  $00, X
 89FB  38        SEC  
 89FC  E9 08     SBC  #$08
 89FE  85 2C     STA  $2C
 8A00  B5 01     LDA  $01, X
 8A02  E9 00     SBC  #$00
 8A04  85 2D     STA  $2D
 8A06  B1 2C     LDA  ($2C), Y
 8A08  C9 5B     CMP  #$5B
 8A0A  B0 07     BCS  $8A13
 8A0C  C9 41     CMP  #$41
 8A0E  90 03     BCC  $8A13
 8A10  18        CLC  
 8A11  69 20     ADC  #$20
 8A13  91 24     STA  ($24), Y
 8A15  C8        INY  
 8A16  C6 26     DEC  $26
 8A18  D0 EC     BNE  $8A06
 8A1A  A9 20     LDA  #$20
 8A1C  91 24     STA  ($24), Y
 8A1E  C8        INY  
 8A1F  A9 B3     LDA  #$B3
 8A21  91 24     STA  ($24), Y
 8A23  C8        INY  
 8A24  A9 B9     LDA  #$B9
 8A26  91 24     STA  ($24), Y
 8A28  20 06 BA  JSR  $BA06
 8A2B  E8        INX  
 8A2C  E8        INX  
 8A2D  60        RTS  
 8A2E  20 C0 BA  JSR  $BAC0
 8A31  38        SEC  
 8A32  B5 06     LDA  $06, X
 8A34  F5 02     SBC  $02, X
 8A36  95 06     STA  $06, X
 8A38  B5 07     LDA  $07, X
 8A3A  F5 03     SBC  $03, X
 8A3C  95 07     STA  $07, X
 8A3E  B5 04     LDA  $04, X
 8A40  F5 00     SBC  $00, X
 8A42  95 04     STA  $04, X
 8A44  B5 05     LDA  $05, X
 8A46  F5 01     SBC  $01, X
 8A48  95 05     STA  $05, X
 8A4A  E8        INX  
 8A4B  E8        INX  
 8A4C  E8        INX  
 8A4D  E8        INX  
 8A4E  60        RTS  
 8A4F  20 C0 BA  JSR  $BAC0
 8A52  18        CLC  
 8A53  B5 02     LDA  $02, X
 8A55  75 06     ADC  $06, X
 8A57  95 06     STA  $06, X
 8A59  B5 03     LDA  $03, X
 8A5B  75 07     ADC  $07, X
 8A5D  95 07     STA  $07, X
 8A5F  B5 00     LDA  $00, X
 8A61  75 04     ADC  $04, X
 8A63  95 04     STA  $04, X
 8A65  B5 01     LDA  $01, X
 8A67  75 05     ADC  $05, X
 8A69  95 05     STA  $05, X
 8A6B  E8        INX  
 8A6C  E8        INX  
 8A6D  E8        INX  
 8A6E  E8        INX  
 8A6F  60        RTS  
 8A70  20 B6 BA  JSR  $BAB6
 8A73  E8        INX  
 8A74  E8        INX  
 8A75  60        RTS  
 8A76  20 B6 BA  JSR  $BAB6
 8A79  B5 01     LDA  $01, X
 8A7B  10 17     BPL  $8A94
 8A7D  A0 00     LDY  #$00
 8A7F  38        SEC  
 8A80  98        TYA  
 8A81  F5 02     SBC  $02, X
 8A83  95 02     STA  $02, X
 8A85  98        TYA  
 8A86  F5 03     SBC  $03, X
 8A88  95 03     STA  $03, X
 8A8A  98        TYA  
 8A8B  F5 00     SBC  $00, X
 8A8D  95 00     STA  $00, X
 8A8F  98        TYA  
 8A90  F5 01     SBC  $01, X
 8A92  95 01     STA  $01, X
 8A94  60        RTS  
 8A95  A9 0A     LDA  #$0A
 8A97  85 18     STA  $18
 8A99  64 19     STZ  $19
 8A9B  60        RTS  
 8A9C  20 59 89  JSR  $8959
 8A9F  A5 00     LDA  $00
 8AA1  38        SEC  
 8AA2  E9 02     SBC  #$02
 8AA4  85 24     STA  $24
 8AA6  A5 01     LDA  $01
 8AA8  E9 00     SBC  #$00
 8AAA  85 25     STA  $25
 8AAC  A0 00     LDY  #$00
 8AAE  A9 81     LDA  #$81
 8AB0  91 24     STA  ($24), Y
 8AB2  C8        INY  
 8AB3  A9 B9     LDA  #$B9
 8AB5  91 24     STA  ($24), Y
 8AB7  A9 95     LDA  #$95
 8AB9  92 00     STA  ($00)
 8ABB  E6 00     INC  $00
 8ABD  D0 02     BNE  $8AC1
 8ABF  E6 01     INC  $01
 8AC1  A9 B9     LDA  #$B9
 8AC3  92 00     STA  ($00)
 8AC5  E6 00     INC  $00
 8AC7  D0 02     BNE  $8ACB
 8AC9  E6 01     INC  $01
 8ACB  20 21 89  JSR  $8921
 8ACE  60        RTS  
 8ACF  20 FA A1  JSR  $A1FA
 8AD2  20 65 8F  JSR  $8F65
 8AD5  60        RTS  
 8AD6  20 FA A1  JSR  $A1FA
 8AD9  20 FA A0  JSR  $A0FA
 8ADC  60        RTS  
 8ADD  A0 1F     LDY  #$1F
 8ADF  B1 1E     LDA  ($1E), Y
 8AE1  A0 04     LDY  #$04
 8AE3  91 1E     STA  ($1E), Y
 8AE5  60        RTS  
 8AE6  A9 78     LDA  #$78
 8AE8  86 2A     STX  $2A
 8AEA  38        SEC  
 8AEB  E5 2A     SBC  $2A
 8AED  4A        LSR  
 8AEE  CA        DEX  
 8AEF  CA        DEX  
 8AF0  95 00     STA  $00, X
 8AF2  74 01     STZ  $01, X
 8AF4  60        RTS  
 8AF5  20 B1 BA  JSR  $BAB1
 8AF8  CA        DEX  
 8AF9  CA        DEX  
 8AFA  74 00     STZ  $00, X
 8AFC  74 01     STZ  $01, X
 8AFE  74 03     STZ  $03, X
 8B00  B5 02     LDA  $02, X
 8B02  C9 30     CMP  #$30
 8B04  90 23     BCC  $8B29
 8B06  C9 3A     CMP  #$3A
 8B08  90 12     BCC  $8B1C
 8B0A  C9 41     CMP  #$41
 8B0C  90 1B     BCC  $8B29
 8B0E  C9 61     CMP  #$61
 8B10  90 07     BCC  $8B19
 8B12  C9 7B     CMP  #$7B
 8B14  B0 03     BCS  $8B19
 8B16  18        CLC  
 8B17  69 E0     ADC  #$E0
 8B19  38        SEC  
 8B1A  E9 07     SBC  #$07
 8B1C  38        SEC  
 8B1D  E9 30     SBC  #$30
 8B1F  C5 18     CMP  $18
 8B21  B0 06     BCS  $8B29
 8B23  95 02     STA  $02, X
 8B25  D6 00     DEC  $00, X
 8B27  D6 01     DEC  $01, X
 8B29  60        RTS  
 8B2A  20 B6 BA  JSR  $BAB6
 8B2D  A0 00     LDY  #$00
 8B2F  38        SEC  
 8B30  98        TYA  
 8B31  F5 02     SBC  $02, X
 8B33  95 02     STA  $02, X
 8B35  98        TYA  
 8B36  F5 03     SBC  $03, X
 8B38  95 03     STA  $03, X
 8B3A  98        TYA  
 8B3B  F5 00     SBC  $00, X
 8B3D  95 00     STA  $00, X
 8B3F  98        TYA  
 8B40  F5 01     SBC  $01, X
 8B42  95 01     STA  $01, X
 8B44  60        RTS  
 8B45  A9 FF     LDA  #$FF
 8B47  85 24     STA  $24
 8B49  80 02     BRA  $8B4D
 8B4B  64 24     STZ  $24
 8B4D  CA        DEX  
 8B4E  CA        DEX  
 8B4F  A5 00     LDA  $00
 8B51  95 00     STA  $00, X
 8B53  A5 01     LDA  $01
 8B55  95 01     STA  $01, X
 8B57  A9 05     LDA  #$05
 8B59  A8        TAY  
 8B5A  91 00     STA  ($00), Y
 8B5C  88        DEY  
 8B5D  10 FB     BPL  $8B5A
 8B5F  1A        INC  
 8B60  18        CLC  
 8B61  65 00     ADC  $00
 8B63  85 00     STA  $00
 8B65  90 02     BCC  $8B69
 8B67  E6 01     INC  $01
 8B69  A5 24     LDA  $24
 8B6B  F0 17     BEQ  $8B84
 8B6D  A0 14     LDY  #$14
 8B6F  5A        PHY  
 8B70  B9 CA 8B  LDA  $8BCA, Y
 8B73  91 00     STA  ($00), Y
 8B75  88        DEY  
 8B76  10 F8     BPL  $8B70
 8B78  68        PLA  
 8B79  18        CLC  
 8B7A  65 00     ADC  $00
 8B7C  85 00     STA  $00
 8B7E  A5 01     LDA  $01
 8B80  69 00     ADC  #$00
 8B82  85 01     STA  $01
 8B84  A0 24     LDY  #$24
 8B86  5A        PHY  
 8B87  B9 A6 8B  LDA  $8BA6, Y
 8B8A  91 00     STA  ($00), Y
 8B8C  88        DEY  
 8B8D  10 F8     BPL  $8B87
 8B8F  68        PLA  
 8B90  18        CLC  
 8B91  65 00     ADC  $00
 8B93  85 00     STA  $00
 8B95  A5 01     LDA  $01
 8B97  69 00     ADC  #$00
 8B99  85 01     STA  $01
 8B9B  CA        DEX  
 8B9C  CA        DEX  
 8B9D  A5 00     LDA  $00
 8B9F  95 00     STA  $00, X
 8BA1  A5 01     LDA  $01
 8BA3  95 01     STA  $01, X
 8BA5  60        RTS  
 8BA6  38        SEC  
 8BA7  A9 00     LDA  #$00
 8BA9  F5 02     SBC  $02, X
 8BAB  95 02     STA  $02, X
 8BAD  A9 80     LDA  #$80
 8BAF  F5 03     SBC  $03, X
 8BB1  95 03     STA  $03, X
 8BB3  48        PHA  
 8BB4  B5 02     LDA  $02, X
 8BB6  48        PHA  
 8BB7  18        CLC  
 8BB8  B5 00     LDA  $00, X
 8BBA  75 02     ADC  $02, X
 8BBC  95 00     STA  $00, X
 8BBE  B5 01     LDA  $01, X
 8BC0  75 03     ADC  $03, X
 8BC2  48        PHA  
 8BC3  B5 00     LDA  $00, X
 8BC5  48        PHA  
 8BC6  E8        INX  
 8BC7  E8        INX  
 8BC8  E8        INX  
 8BC9  E8        INX  
 8BCA  20 25 A3  JSR  $A325
 8BCD  20 B3 8E  JSR  $8EB3
 8BD0  B5 00     LDA  $00, X
 8BD2  15 01     ORA  $01, X
 8BD4  F0 06     BEQ  $8BDC
 8BD6  8A        TXA  
 8BD7  18        CLC  
 8BD8  69 06     ADC  #$06
 8BDA  AA        TAX  
 8BDB  60        RTS  
 8BDC  E8        INX  
 8BDD  E8        INX  
 8BDE  A0 8B     LDY  #$8B
 8BE0  A9 ED     LDA  #$ED
 8BE2  20 54 B9  JSR  $B954
 8BE5  A0 B9     LDY  #$B9
 8BE7  A9 9A     LDA  #$9A
 8BE9  20 54 B9  JSR  $B954
 8BEC  60        RTS  
 8BED  7A        PLY  
 8BEE  68        PLA  
 8BEF  C8        INY  
 8BF0  D0 01     BNE  $8BF3
 8BF2  1A        INC  
 8BF3  84 24     STY  $24
 8BF5  85 25     STA  $25
 8BF7  20 F3 B9  JSR  $B9F3
 8BFA  A5 02     LDA  $02
 8BFC  18        CLC  
 8BFD  69 04     ADC  #$04
 8BFF  85 26     STA  $26
 8C01  A5 03     LDA  $03
 8C03  69 00     ADC  #$00
 8C05  85 27     STA  $27
 8C07  B2 26     LDA  ($26)
 8C09  18        CLC  
 8C0A  69 01     ADC  #$01
 8C0C  85 28     STA  $28
 8C0E  A0 01     LDY  #$01
 8C10  B1 26     LDA  ($26), Y
 8C12  69 00     ADC  #$00
 8C14  85 29     STA  $29
 8C16  A5 24     LDA  $24
 8C18  92 28     STA  ($28)
 8C1A  A5 25     LDA  $25
 8C1C  91 28     STA  ($28), Y
 8C1E  60        RTS  
 8C1F  20 B1 BA  JSR  $BAB1
 8C22  20 98 8D  JSR  $8D98
 8C25  20 39 81  JSR  $8139
 8C28  20 14 A7  JSR  $A714
 8C2B  20 3F 93  JSR  $933F
 8C2E  20 55 97  JSR  $9755
 8C31  20 CE 9A  JSR  $9ACE
 8C34  20 5E 9F  JSR  $9F5E
 8C37  20 33 97  JSR  $9733
 8C3A  20 70 A4  JSR  $A470
 8C3D  20 95 A0  JSR  $A095
 8C40  60        RTS  
 8C41  CA        DEX  
 8C42  CA        DEX  
 8C43  A9 29     LDA  #$29
 8C45  95 00     STA  $00, X
 8C47  74 01     STZ  $01, X
 8C49  20 B1 98  JSR  $98B1
 8C4C  20 70 A4  JSR  $A470
 8C4F  60        RTS  
 8C50  20 C6 9C  JSR  $9CC6
 8C53  A0 A4     LDY  #$A4
 8C55  A9 70     LDA  #$70
 8C57  20 54 B9  JSR  $B954
 8C5A  60        RTS  
 8C5B  20 B6 BA  JSR  $BAB6
 8C5E  20 DD A2  JSR  $A2DD
 8C61  20 98 8D  JSR  $8D98
 8C64  20 39 81  JSR  $8139
 8C67  20 14 A7  JSR  $A714
 8C6A  20 3F 93  JSR  $933F
 8C6D  20 55 97  JSR  $9755
 8C70  20 CE 9A  JSR  $9ACE
 8C73  20 5E 9F  JSR  $9F5E
 8C76  20 33 97  JSR  $9733
 8C79  20 09 9A  JSR  $9A09
 8C7C  20 0A 98  JSR  $980A
 8C7F  20 35 95  JSR  $9535
 8C82  20 9B A0  JSR  $A09B
 8C85  20 70 A4  JSR  $A470
 8C88  60        RTS  
 8C89  20 E6 8A  JSR  $8AE6
 8C8C  A9 3C     LDA  #$3C
 8C8E  20 DB 8D  JSR  $8DDB
 8C91  B5 00     LDA  $00, X
 8C93  48        PHA  
 8C94  CA        DEX  
 8C95  CA        DEX  
 8C96  95 00     STA  $00, X
 8C98  74 01     STZ  $01, X
 8C9A  20 FD BA  JSR  $BAFD
 8C9D  A9 3E     LDA  #$3E
 8C9F  20 DB 8D  JSR  $8DDB
 8CA2  A9 20     LDA  #$20
 8CA4  20 DB 8D  JSR  $8DDB
 8CA7  E8        INX  
 8CA8  E8        INX  
 8CA9  E0 78     CPX  #$78
 8CAB  F0 1E     BEQ  $8CCB
 8CAD  7A        PLY  
 8CAE  A9 77     LDA  #$77
 8CB0  85 28     STA  $28
 8CB2  64 29     STZ  $29
 8CB4  CA        DEX  
 8CB5  CA        DEX  
 8CB6  B2 28     LDA  ($28)
 8CB8  95 01     STA  $01, X
 8CBA  C6 28     DEC  $28
 8CBC  B2 28     LDA  ($28)
 8CBE  95 00     STA  $00, X
 8CC0  C6 28     DEC  $28
 8CC2  5A        PHY  
 8CC3  20 1F 8C  JSR  $8C1F
 8CC6  7A        PLY  
 8CC7  88        DEY  
 8CC8  D0 EA     BNE  $8CB4
 8CCA  48        PHA  
 8CCB  68        PLA  
 8CCC  60        RTS  
 8CCD  20 B6 BA  JSR  $BAB6
 8CD0  20 FA A2  JSR  $A2FA
 8CD3  20 76 8A  JSR  $8A76
 8CD6  20 3F 93  JSR  $933F
 8CD9  20 55 97  JSR  $9755
 8CDC  20 CE 9A  JSR  $9ACE
 8CDF  20 5E 9F  JSR  $9F5E
 8CE2  20 33 97  JSR  $9733
 8CE5  20 70 A4  JSR  $A470
 8CE8  20 95 A0  JSR  $A095
 8CEB  60        RTS  
 8CEC  20 BB BA  JSR  $BABB
 8CEF  20 DD A2  JSR  $A2DD
 8CF2  20 FA A2  JSR  $A2FA
 8CF5  20 76 8A  JSR  $8A76
 8CF8  20 3F 93  JSR  $933F
 8CFB  20 55 97  JSR  $9755
 8CFE  20 CE 9A  JSR  $9ACE
 8D01  20 5E 9F  JSR  $9F5E
 8D04  20 33 97  JSR  $9733
 8D07  20 09 9A  JSR  $9A09
 8D0A  20 0A 98  JSR  $980A
 8D0D  20 35 95  JSR  $9535
 8D10  20 9B A0  JSR  $A09B
 8D13  20 70 A4  JSR  $A470
 8D16  60        RTS  
 8D17  20 B1 BA  JSR  $BAB1
 8D1A  E8        INX  
 8D1B  E8        INX  
 8D1C  60        RTS  
 8D1D  20 B6 BA  JSR  $BAB6
 8D20  A0 10     LDY  #$10
 8D22  64 26     STZ  $26
 8D24  20 53 89  JSR  $8953
 8D27  B5 03     LDA  $03, X
 8D29  20 C1 B9  JSR  $B9C1
 8D2C  B5 02     LDA  $02, X
 8D2E  20 C1 B9  JSR  $B9C1
 8D31  20 95 A0  JSR  $A095
 8D34  20 95 A0  JSR  $A095
 8D37  B5 00     LDA  $00, X
 8D39  15 01     ORA  $01, X
 8D3B  F0 39     BEQ  $8D76
 8D3D  A1 02     LDA  ($02, X)
 8D3F  48        PHA  
 8D40  20 C1 B9  JSR  $B9C1
 8D43  20 95 A0  JSR  $A095
 8D46  68        PLA  
 8D47  20 97 BA  JSR  $BA97
 8D4A  B0 02     BCS  $8D4E
 8D4C  A9 2E     LDA  #$2E
 8D4E  5A        PHY  
 8D4F  A4 26     LDY  $26
 8D51  91 00     STA  ($00), Y
 8D53  E6 26     INC  $26
 8D55  7A        PLY  
 8D56  C0 09     CPY  #$09
 8D58  D0 03     BNE  $8D5D
 8D5A  20 95 A0  JSR  $A095
 8D5D  F6 02     INC  $02, X
 8D5F  D0 02     BNE  $8D63
 8D61  F6 03     INC  $03, X
 8D63  B5 00     LDA  $00, X
 8D65  D0 02     BNE  $8D69
 8D67  D6 01     DEC  $01, X
 8D69  D6 00     DEC  $00, X
 8D6B  88        DEY  
 8D6C  D0 C9     BNE  $8D37
 8D6E  20 95 A0  JSR  $A095
 8D71  20 84 8D  JSR  $8D84
 8D74  80 AA     BRA  $8D20
 8D76  A5 26     LDA  $26
 8D78  F0 06     BEQ  $8D80
 8D7A  20 95 A0  JSR  $A095
 8D7D  20 84 8D  JSR  $8D84
 8D80  20 1D A3  JSR  $A31D
 8D83  60        RTS  
 8D84  A0 00     LDY  #$00
 8D86  B1 00     LDA  ($00), Y
 8D88  20 DB 8D  JSR  $8DDB
 8D8B  C8        INY  
 8D8C  C0 08     CPY  #$08
 8D8E  D0 03     BNE  $8D93
 8D90  20 95 A0  JSR  $A095
 8D93  C6 26     DEC  $26
 8D95  D0 EF     BNE  $8D86
 8D97  60        RTS  
 8D98  20 B1 BA  JSR  $BAB1
 8D9B  CA        DEX  
 8D9C  CA        DEX  
 8D9D  B5 02     LDA  $02, X
 8D9F  95 00     STA  $00, X
 8DA1  B5 03     LDA  $03, X
 8DA3  95 01     STA  $01, X
 8DA5  60        RTS  
 8DA6  A0 8D     LDY  #$8D
 8DA8  A9 C0     LDA  #$C0
 8DAA  20 54 B9  JSR  $B954
 8DAD  20 57 91  JSR  $9157
 8DB0  20 14 A7  JSR  $A714
 8DB3  20 5E 87  JSR  $875E
 8DB6  20 57 91  JSR  $9157
 8DB9  20 CE 9A  JSR  $9ACE
 8DBC  20 FA A0  JSR  $A0FA
 8DBF  60        RTS  
 8DC0  68        PLA  
 8DC1  85 22     STA  $22
 8DC3  68        PLA  
 8DC4  85 23     STA  $23
 8DC6  A0 01     LDY  #$01
 8DC8  B1 22     LDA  ($22), Y
 8DCA  85 24     STA  $24
 8DCC  C8        INY  
 8DCD  B1 22     LDA  ($22), Y
 8DCF  85 25     STA  $25
 8DD1  6C 24 00  JMP  ($0024)
 8DD4  20 B1 BA  JSR  $BAB1
 8DD7  B5 00     LDA  $00, X
 8DD9  E8        INX  
 8DDA  E8        INX  
 8DDB  6C 10 00  JMP  ($0010)
 8DDE  A0 2C     LDY  #$2C
 8DE0  A9 00     LDA  #$00
 8DE2  91 1E     STA  ($1E), Y
 8DE4  60        RTS  
 8DE5  A0 8D     LDY  #$8D
 8DE7  A9 17     LDA  #$17
 8DE9  20 54 B9  JSR  $B954
 8DEC  B5 00     LDA  $00, X
 8DEE  15 01     ORA  $01, X
 8DF0  F0 05     BEQ  $8DF7
 8DF2  20 2F A1  JSR  $A12F
 8DF5  80 F5     BRA  $8DEC
 8DF7  E8        INX  
 8DF8  E8        INX  
 8DF9  60        RTS  
 8DFA  20 B1 BA  JSR  $BAB1
 8DFD  A0 00     LDY  #$00
 8DFF  5A        PHY  
 8E00  20 25 A3  JSR  $A325
 8E03  CA        DEX  
 8E04  CA        DEX  
 8E05  B9 77 8E  LDA  $8E77, Y
 8E08  95 00     STA  $00, X
 8E0A  C8        INY  
 8E0B  B9 77 8E  LDA  $8E77, Y
 8E0E  95 01     STA  $01, X
 8E10  C8        INY  
 8E11  15 00     ORA  $00, X
 8E13  F0 4D     BEQ  $8E62
 8E15  5A        PHY  
 8E16  20 3F 89  JSR  $893F
 8E19  20 78 87  JSR  $8778
 8E1C  7A        PLY  
 8E1D  B5 00     LDA  $00, X
 8E1F  15 01     ORA  $01, X
 8E21  F0 04     BEQ  $8E27
 8E23  E8        INX  
 8E24  E8        INX  
 8E25  80 D9     BRA  $8E00
 8E27  E8        INX  
 8E28  E8        INX  
 8E29  88        DEY  
 8E2A  88        DEY  
 8E2B  68        PLA  
 8E2C  D0 0D     BNE  $8E3B
 8E2E  B9 95 8E  LDA  $8E95, Y
 8E31  95 02     STA  $02, X
 8E33  C8        INY  
 8E34  B9 95 8E  LDA  $8E95, Y
 8E37  95 03     STA  $03, X
 8E39  80 1F     BRA  $8E5A
 8E3B  CA        DEX  
 8E3C  CA        DEX  
 8E3D  98        TYA  
 8E3E  38        SEC  
 8E3F  E9 18     SBC  #$18
 8E41  0A        ASL  
 8E42  A8        TAY  
 8E43  B9 AB 8E  LDA  $8EAB, Y
 8E46  95 02     STA  $02, X
 8E48  C8        INY  
 8E49  B9 AB 8E  LDA  $8EAB, Y
 8E4C  95 03     STA  $03, X
 8E4E  C8        INY  
 8E4F  B9 AB 8E  LDA  $8EAB, Y
 8E52  95 04     STA  $04, X
 8E54  C8        INY  
 8E55  B9 AB 8E  LDA  $8EAB, Y
 8E58  95 05     STA  $05, X
 8E5A  A9 FF     LDA  #$FF
 8E5C  95 00     STA  $00, X
 8E5E  95 01     STA  $01, X
 8E60  80 14     BRA  $8E76
 8E62  68        PLA  
 8E63  D0 09     BNE  $8E6E
 8E65  1A        INC  
 8E66  48        PHA  
 8E67  8A        TXA  
 8E68  18        CLC  
 8E69  69 06     ADC  #$06
 8E6B  AA        TAX  
 8E6C  80 92     BRA  $8E00
 8E6E  8A        TXA  
 8E6F  18        CLC  
 8E70  69 0A     ADC  #$0A
 8E72  AA        TAX  
 8E73  20 5E 8F  JSR  $8F5E
 8E76  60        RTS  
 8E77  D4 B8 E4 B8 EA B8 EF B8 01 B9 09 B9 12 B9 18 B9  |................|
 8E87  1E B9 31 B9 3D B9 00 00 47 B9 4D B9 00 00 FF 7F  |..1.=...G.M.....|
 8E97  FF 00 54 00 08 00 00 00 FF 00 FF 7F FF FF 80 00  |..T.............|
 8EA7  20 00 09 00 FF 7F FF FF FF FF FF FF              | ...........    |
 8EB3  20 B6 BA  JSR  $BAB6
 8EB6  B5 00     LDA  $00, X
 8EB8  D5 02     CMP  $02, X
 8EBA  D0 0A     BNE  $8EC6
 8EBC  B5 01     LDA  $01, X
 8EBE  D5 03     CMP  $03, X
 8EC0  D0 04     BNE  $8EC6
 8EC2  A9 FF     LDA  #$FF
 8EC4  80 02     BRA  $8EC8
 8EC6  A9 00     LDA  #$00
 8EC8  95 02     STA  $02, X
 8ECA  95 03     STA  $03, X
 8ECC  E8        INX  
 8ECD  E8        INX  
 8ECE  60        RTS  
 8ECF  CA        DEX  
 8ED0  CA        DEX  
 8ED1  A9 20     LDA  #$20
 8ED3  95 00     STA  $00, X
 8ED5  74 01     STZ  $01, X
 8ED7  80 06     BRA  $8EDF
 8ED9  CA        DEX  
 8EDA  CA        DEX  
 8EDB  74 00     STZ  $00, X
 8EDD  74 01     STZ  $01, X
 8EDF  20 BB BA  JSR  $BABB
 8EE2  B5 04     LDA  $04, X
 8EE4  85 24     STA  $24
 8EE6  B5 05     LDA  $05, X
 8EE8  85 25     STA  $25
 8EEA  B5 02     LDA  $02, X
 8EEC  85 26     STA  $26
 8EEE  B5 03     LDA  $03, X
 8EF0  85 27     STA  $27
 8EF2  B5 00     LDA  $00, X
 8EF4  A8        TAY  
 8EF5  A9 7F     LDA  #$7F
 8EF7  C5 25     CMP  $25
 8EF9  90 21     BCC  $8F1C
 8EFB  D0 06     BNE  $8F03
 8EFD  A9 FF     LDA  #$FF
 8EFF  C5 24     CMP  $24
 8F01  90 19     BCC  $8F1C
 8F03  A5 26     LDA  $26
 8F05  05 27     ORA  $27
 8F07  F0 13     BEQ  $8F1C
 8F09  98        TYA  
 8F0A  92 24     STA  ($24)
 8F0C  A5 26     LDA  $26
 8F0E  D0 02     BNE  $8F12
 8F10  C6 27     DEC  $27
 8F12  C6 26     DEC  $26
 8F14  E6 24     INC  $24
 8F16  D0 DD     BNE  $8EF5
 8F18  E6 25     INC  $25
 8F1A  80 D9     BRA  $8EF5
 8F1C  8A        TXA  
 8F1D  18        CLC  
 8F1E  69 06     ADC  #$06
 8F20  AA        TAX  
 8F21  60        RTS  
 8F22  20 B1 BA  JSR  $BAB1
 8F25  20 29 8F  JSR  $8F29
 8F28  60        RTS  
 8F29  B5 00     LDA  $00, X
 8F2B  85 0E     STA  $0E
 8F2D  B5 01     LDA  $01, X
 8F2F  85 0F     STA  $0F
 8F31  E8        INX  
 8F32  E8        INX  
 8F33  6C 0E 00  JMP  ($000E)
 8F36  20 BB BA  JSR  $BABB
 8F39  20 47 92  JSR  $9247
 8F3C  20 53 96  JSR  $9653
 8F3F  B5 00     LDA  $00, X
 8F41  85 0A     STA  $0A
 8F43  B5 01     LDA  $01, X
 8F45  85 0B     STA  $0B
 8F47  B5 02     LDA  $02, X
 8F49  85 08     STA  $08
 8F4B  B5 03     LDA  $03, X
 8F4D  85 09     STA  $09
 8F4F  64 0C     STZ  $0C
 8F51  64 0D     STZ  $0D
 8F53  20 1D A3  JSR  $A31D
 8F56  20 22 8F  JSR  $8F22
 8F59  20 1A 9A  JSR  $9A1A
 8F5C  60        RTS  
 8F5D  60        RTS  
 8F5E  CA        DEX  
 8F5F  CA        DEX  
 8F60  74 00     STZ  $00, X
 8F62  74 01     STZ  $01, X
 8F64  60        RTS  
 8F65  20 B1 BA  JSR  $BAB1
 8F68  A1 00     LDA  ($00, X)
 8F6A  A8        TAY  
 8F6B  F6 00     INC  $00, X
 8F6D  D0 02     BNE  $8F71
 8F6F  F6 01     INC  $01, X
 8F71  A1 00     LDA  ($00, X)
 8F73  95 01     STA  $01, X
 8F75  94 00     STY  $00, X
 8F77  60        RTS  
 8F78  20 B1 BA  JSR  $BAB1
 8F7B  B5 01     LDA  $01, X
 8F7D  48        PHA  
 8F7E  B5 00     LDA  $00, X
 8F80  48        PHA  
 8F81  20 3F 89  JSR  $893F
 8F84  20 C0 8F  JSR  $8FC0
 8F87  B5 00     LDA  $00, X
 8F89  15 01     ORA  $01, X
 8F8B  D0 0B     BNE  $8F98
 8F8D  20 5E 8F  JSR  $8F5E
 8F90  68        PLA  
 8F91  95 02     STA  $02, X
 8F93  68        PLA  
 8F94  95 03     STA  $03, X
 8F96  80 27     BRA  $8FBF
 8F98  68        PLA  
 8F99  68        PLA  
 8F9A  20 98 8D  JSR  $8D98
 8F9D  20 C6 95  JSR  $95C6
 8FA0  20 1B A1  JSR  $A11B
 8FA3  A0 00     LDY  #$00
 8FA5  F6 00     INC  $00, X
 8FA7  D0 02     BNE  $8FAB
 8FA9  F6 01     INC  $01, X
 8FAB  A1 00     LDA  ($00, X)
 8FAD  29 04     AND  #$04
 8FAF  D0 08     BNE  $8FB9
 8FB1  A9 FF     LDA  #$FF
 8FB3  95 00     STA  $00, X
 8FB5  95 01     STA  $01, X
 8FB7  80 06     BRA  $8FBF
 8FB9  A9 01     LDA  #$01
 8FBB  95 00     STA  $00, X
 8FBD  74 01     STZ  $01, X
 8FBF  60        RTS  
 8FC0  20 B6 BA  JSR  $BAB6
 8FC3  B5 00     LDA  $00, X
 8FC5  15 01     ORA  $01, X
 8FC7  D0 03     BNE  $8FCC
 8FC9  4C 65 90  JMP  $9065
 8FCC  64 28     STZ  $28
 8FCE  A0 1E     LDY  #$1E
 8FD0  A5 28     LDA  $28
 8FD2  D1 1E     CMP  ($1E), Y
 8FD4  D0 03     BNE  $8FD9
 8FD6  4C 65 90  JMP  $9065
 8FD9  18        CLC  
 8FDA  69 1F     ADC  #$1F
 8FDC  A8        TAY  
 8FDD  B1 1E     LDA  ($1E), Y
 8FDF  0A        ASL  
 8FE0  18        CLC  
 8FE1  69 06     ADC  #$06
 8FE3  A8        TAY  
 8FE4  B1 1E     LDA  ($1E), Y
 8FE6  85 24     STA  $24
 8FE8  C8        INY  
 8FE9  B1 1E     LDA  ($1E), Y
 8FEB  85 25     STA  $25
 8FED  B5 02     LDA  $02, X
 8FEF  85 26     STA  $26
 8FF1  B5 03     LDA  $03, X
 8FF3  85 27     STA  $27
 8FF5  B2 24     LDA  ($24)
 8FF7  D5 00     CMP  $00, X
 8FF9  D0 54     BNE  $904F
 8FFB  B2 26     LDA  ($26)
 8FFD  C9 5B     CMP  #$5B
 8FFF  B0 07     BCS  $9008
 9001  C9 41     CMP  #$41
 9003  90 03     BCC  $9008
 9005  18        CLC  
 9006  69 20     ADC  #$20
 9008  A0 08     LDY  #$08
 900A  D1 24     CMP  ($24), Y
 900C  D0 41     BNE  $904F
 900E  B5 00     LDA  $00, X
 9010  3A        DEC  
 9011  F0 2C     BEQ  $903F
 9013  A5 24     LDA  $24
 9015  48        PHA  
 9016  18        CLC  
 9017  69 08     ADC  #$08
 9019  85 24     STA  $24
 901B  A5 25     LDA  $25
 901D  48        PHA  
 901E  69 00     ADC  #$00
 9020  85 25     STA  $25
 9022  B4 00     LDY  $00, X
 9024  88        DEY  
 9025  B1 26     LDA  ($26), Y
 9027  C9 5B     CMP  #$5B
 9029  B0 07     BCS  $9032
 902B  C9 41     CMP  #$41
 902D  90 03     BCC  $9032
 902F  18        CLC  
 9030  69 20     ADC  #$20
 9032  D1 24     CMP  ($24), Y
 9034  D0 13     BNE  $9049
 9036  88        DEY  
 9037  D0 EC     BNE  $9025
 9039  68        PLA  
 903A  85 25     STA  $25
 903C  68        PLA  
 903D  85 24     STA  $24
 903F  A5 24     LDA  $24
 9041  95 02     STA  $02, X
 9043  A5 25     LDA  $25
 9045  95 03     STA  $03, X
 9047  80 20     BRA  $9069
 9049  68        PLA  
 904A  85 25     STA  $25
 904C  68        PLA  
 904D  85 24     STA  $24
 904F  A0 02     LDY  #$02
 9051  B1 24     LDA  ($24), Y
 9053  48        PHA  
 9054  C8        INY  
 9055  B1 24     LDA  ($24), Y
 9057  85 25     STA  $25
 9059  68        PLA  
 905A  85 24     STA  $24
 905C  05 25     ORA  $25
 905E  D0 95     BNE  $8FF5
 9060  E6 28     INC  $28
 9062  4C CE 8F  JMP  $8FCE
 9065  74 02     STZ  $02, X
 9067  74 03     STZ  $03, X
 9069  E8        INX  
 906A  E8        INX  
 906B  60        RTS  
 906C  20 35 9E  JSR  $9E35
 906F  A0 2C     LDY  #$2C
 9071  A9 00     LDA  #$00
 9073  91 1E     STA  ($1E), Y
 9075  60        RTS  
 9076  20 BB BA  JSR  $BABB
 9079  64 26     STZ  $26
 907B  B5 01     LDA  $01, X
 907D  10 0E     BPL  $908D
 907F  E6 26     INC  $26
 9081  20 08 96  JSR  $9608
 9084  20 DD A2  JSR  $A2DD
 9087  20 2A 8B  JSR  $8B2A
 908A  20 09 9A  JSR  $9A09
 908D  B5 03     LDA  $03, X
 908F  10 0D     BPL  $909E
 9091  18        CLC  
 9092  B5 00     LDA  $00, X
 9094  75 02     ADC  $02, X
 9096  95 02     STA  $02, X
 9098  B5 01     LDA  $01, X
 909A  75 03     ADC  $03, X
 909C  95 03     STA  $03, X
 909E  20 27 A5  JSR  $A527
 90A1  A5 26     LDA  $26
 90A3  F0 07     BEQ  $90AC
 90A5  E8        INX  
 90A6  E8        INX  
 90A7  20 08 96  JSR  $9608
 90AA  CA        DEX  
 90AB  CA        DEX  
 90AC  60        RTS  
 90AD  A0 1F     LDY  #$1F
 90AF  A9 00     LDA  #$00
 90B1  91 1E     STA  ($1E), Y
 90B3  60        RTS  
 90B4  A9 FF     LDA  #$FF
 90B6  85 24     STA  $24
 90B8  80 11     BRA  $90CB
 90BA  20 B6 BA  JSR  $BAB6
 90BD  64 24     STZ  $24
 90BF  B5 00     LDA  $00, X
 90C1  15 01     ORA  $01, X
 90C3  D0 06     BNE  $90CB
 90C5  E8        INX  
 90C6  E8        INX  
 90C7  E8        INX  
 90C8  E8        INX  
 90C9  80 42     BRA  $910D
 90CB  A0 01     LDY  #$01
 90CD  B1 1E     LDA  ($1E), Y
 90CF  48        PHA  
 90D0  88        DEY  
 90D1  B1 1E     LDA  ($1E), Y
 90D3  48        PHA  
 90D4  A5 24     LDA  $24
 90D6  D0 05     BNE  $90DD
 90D8  91 1E     STA  ($1E), Y
 90DA  C8        INY  
 90DB  91 1E     STA  ($1E), Y
 90DD  20 47 92  JSR  $9247
 90E0  A9 FF     LDA  #$FF
 90E2  85 06     STA  $06
 90E4  85 07     STA  $07
 90E6  64 0C     STZ  $0C
 90E8  64 0D     STZ  $0D
 90EA  B5 00     LDA  $00, X
 90EC  85 0A     STA  $0A
 90EE  B5 01     LDA  $01, X
 90F0  85 0B     STA  $0B
 90F2  B5 02     LDA  $02, X
 90F4  85 08     STA  $08
 90F6  B5 03     LDA  $03, X
 90F8  85 09     STA  $09
 90FA  E8        INX  
 90FB  E8        INX  
 90FC  E8        INX  
 90FD  E8        INX  
 90FE  20 19 BA  JSR  $BA19
 9101  20 1A 9A  JSR  $9A1A
 9104  A0 00     LDY  #$00
 9106  68        PLA  
 9107  91 1E     STA  ($1E), Y
 9109  C8        INY  
 910A  68        PLA  
 910B  91 1E     STA  ($1E), Y
 910D  60        RTS  
 910E  CA        DEX  
 910F  CA        DEX  
 9110  A0 04     LDY  #$04
 9112  B1 1E     LDA  ($1E), Y
 9114  95 00     STA  $00, X
 9116  74 01     STZ  $01, X
 9118  60        RTS  
 9119  A0 1E     LDY  #$1E
 911B  B1 1E     LDA  ($1E), Y
 911D  85 24     STA  $24
 911F  F0 16     BEQ  $9137
 9121  C6 24     DEC  $24
 9123  A9 1F     LDA  #$1F
 9125  18        CLC  
 9126  65 24     ADC  $24
 9128  A8        TAY  
 9129  CA        DEX  
 912A  CA        DEX  
 912B  B1 1E     LDA  ($1E), Y
 912D  95 00     STA  $00, X
 912F  74 01     STZ  $01, X
 9131  A9 00     LDA  #$00
 9133  C5 24     CMP  $24
 9135  D0 EA     BNE  $9121
 9137  CA        DEX  
 9138  CA        DEX  
 9139  A0 1E     LDY  #$1E
 913B  B1 1E     LDA  ($1E), Y
 913D  95 00     STA  $00, X
 913F  74 01     STZ  $01, X
 9141  60        RTS  
 9142  20 B6 BA  JSR  $BAB6
 9145  A0 00     LDY  #$00
 9147  20 D8 B9  JSR  $B9D8
 914A  F0 03     BEQ  $914F
 914C  10 01     BPL  $914F
 914E  88        DEY  
 914F  98        TYA  
 9150  E8        INX  
 9151  E8        INX  
 9152  95 00     STA  $00, X
 9154  95 01     STA  $01, X
 9156  60        RTS  
 9157  CA        DEX  
 9158  CA        DEX  
 9159  A5 00     LDA  $00
 915B  95 00     STA  $00, X
 915D  A5 01     LDA  $01
 915F  95 01     STA  $01, X
 9161  60        RTS  
 9162  A9 10     LDA  #$10
 9164  85 18     STA  $18
 9166  64 19     STZ  $19
 9168  60        RTS  
 9169  20 BB BA  JSR  $BABB
 916C  20 98 8D  JSR  $8D98
 916F  20 0F A4  JSR  $A40F
 9172  B5 00     LDA  $00, X
 9174  15 01     ORA  $01, X
 9176  F0 36     BEQ  $91AE
 9178  20 3C 86  JSR  $863C
 917B  20 0F A4  JSR  $A40F
 917E  20 14 A7  JSR  $A714
 9181  20 14 A7  JSR  $A714
 9184  20 95 A3  JSR  $A395
 9187  20 2A A2  JSR  $A22A
 918A  B5 00     LDA  $00, X
 918C  15 01     ORA  $01, X
 918E  D0 17     BNE  $91A7
 9190  20 1D A3  JSR  $A31D
 9193  20 70 8A  JSR  $8A70
 9196  20 F4 99  JSR  $99F4
 9199  20 05 86  JSR  $8605
 919C  20 09 9A  JSR  $9A09
 919F  20 94 97  JSR  $9794
 91A2  20 DD A2  JSR  $A2DD
 91A5  80 CB     BRA  $9172
 91A7  8A        TXA  
 91A8  18        CLC  
 91A9  69 08     ADC  #$08
 91AB  AA        TAX  
 91AC  80 C4     BRA  $9172
 91AE  E8        INX  
 91AF  E8        INX  
 91B0  E8        INX  
 91B1  E8        INX  
 91B2  20 95 A3  JSR  $A395
 91B5  20 1B A1  JSR  $A11B
 91B8  20 35 95  JSR  $9535
 91BB  60        RTS  
 91BC  20 B1 BA  JSR  $BAB1
 91BF  A5 34     LDA  $34
 91C1  D0 02     BNE  $91C5
 91C3  C6 35     DEC  $35
 91C5  C6 34     DEC  $34
 91C7  B5 00     LDA  $00, X
 91C9  92 34     STA  ($34)
 91CB  E8        INX  
 91CC  E8        INX  
 91CD  60        RTS  
 91CE  CA        DEX  
 91CF  CA        DEX  
 91D0  86 2A     STX  $2A
 91D2  BA        TSX  
 91D3  38        SEC  
 91D4  BD 01 01  LDA  $0101, X
 91D7  FD 03 01  SBC  $0103, X
 91DA  A8        TAY  
 91DB  BD 02 01  LDA  $0102, X
 91DE  FD 04 01  SBC  $0104, X
 91E1  A6 2A     LDX  $2A
 91E3  95 01     STA  $01, X
 91E5  94 00     STY  $00, X
 91E7  60        RTS  
 91E8  A0 91     LDY  #$91
 91EA  A9 F9     LDA  #$F9
 91EC  20 54 B9  JSR  $B954
 91EF  20 57 91  JSR  $9157
 91F2  20 14 A7  JSR  $A714
 91F5  20 5E 87  JSR  $875E
 91F8  60        RTS  
 91F9  68        PLA  
 91FA  85 22     STA  $22
 91FC  68        PLA  
 91FD  85 23     STA  $23
 91FF  B5 00     LDA  $00, X
 9201  15 01     ORA  $01, X
 9203  F0 0F     BEQ  $9214
 9205  A5 22     LDA  $22
 9207  18        CLC  
 9208  69 02     ADC  #$02
 920A  85 24     STA  $24
 920C  A5 23     LDA  $23
 920E  69 00     ADC  #$00
 9210  85 25     STA  $25
 9212  80 13     BRA  $9227
 9214  A0 01     LDY  #$01
 9216  B1 22     LDA  ($22), Y
 9218  85 24     STA  $24
 921A  C8        INY  
 921B  B1 22     LDA  ($22), Y
 921D  85 25     STA  $25
 921F  A5 24     LDA  $24
 9221  D0 02     BNE  $9225
 9223  C6 25     DEC  $25
 9225  C6 24     DEC  $24
 9227  A5 25     LDA  $25
 9229  48        PHA  
 922A  A5 24     LDA  $24
 922C  48        PHA  
 922D  E8        INX  
 922E  E8        INX  
 922F  60        RTS  
 9230  20 F3 B9  JSR  $B9F3
 9233  A0 01     LDY  #$01
 9235  B1 02     LDA  ($02), Y
 9237  09 04     ORA  #$04
 9239  91 02     STA  ($02), Y
 923B  60        RTS  
 923C  CA        DEX  
 923D  CA        DEX  
 923E  A9 12     LDA  #$12
 9240  95 00     STA  $00, X
 9242  A9 00     LDA  #$00
 9244  95 01     STA  $01, X
 9246  60        RTS  
 9247  68        PLA  
 9248  85 24     STA  $24
 924A  68        PLA  
 924B  85 25     STA  $25
 924D  A0 07     LDY  #$07
 924F  B9 06 00  LDA  $0006, Y
 9252  48        PHA  
 9253  88        DEY  
 9254  10 F9     BPL  $924F
 9256  A5 25     LDA  $25
 9258  48        PHA  
 9259  A5 24     LDA  $24
 925B  48        PHA  
 925C  60        RTS  
 925D  20 B1 BA  JSR  $BAB1
 9260  CA        DEX  
 9261  CA        DEX  
 9262  74 00     STZ  $00, X
 9264  74 01     STZ  $01, X
 9266  B5 00     LDA  $00, X
 9268  0A        ASL  
 9269  18        CLC  
 926A  69 06     ADC  #$06
 926C  A8        TAY  
 926D  B1 1E     LDA  ($1E), Y
 926F  85 26     STA  $26
 9271  C8        INY  
 9272  B1 1E     LDA  ($1E), Y
 9274  85 27     STA  $27
 9276  A5 26     LDA  $26
 9278  05 27     ORA  $27
 927A  F0 38     BEQ  $92B4
 927C  B5 02     LDA  $02, X
 927E  85 28     STA  $28
 9280  B5 03     LDA  $03, X
 9282  85 29     STA  $29
 9284  A0 04     LDY  #$04
 9286  B1 26     LDA  ($26), Y
 9288  C5 28     CMP  $28
 928A  D0 07     BNE  $9293
 928C  C8        INY  
 928D  B1 26     LDA  ($26), Y
 928F  C5 29     CMP  $29
 9291  F0 32     BEQ  $92C5
 9293  18        CLC  
 9294  A5 26     LDA  $26
 9296  69 02     ADC  #$02
 9298  85 26     STA  $26
 929A  A5 27     LDA  $27
 929C  69 00     ADC  #$00
 929E  85 27     STA  $27
 92A0  A0 00     LDY  #$00
 92A2  B1 26     LDA  ($26), Y
 92A4  48        PHA  
 92A5  C8        INY  
 92A6  11 26     ORA  ($26), Y
 92A8  F0 09     BEQ  $92B3
 92AA  B1 26     LDA  ($26), Y
 92AC  85 27     STA  $27
 92AE  68        PLA  
 92AF  85 26     STA  $26
 92B1  80 D1     BRA  $9284
 92B3  68        PLA  
 92B4  B5 00     LDA  $00, X
 92B6  1A        INC  
 92B7  95 00     STA  $00, X
 92B9  C9 0C     CMP  #$0C
 92BB  D0 A9     BNE  $9266
 92BD  E8        INX  
 92BE  E8        INX  
 92BF  74 00     STZ  $00, X
 92C1  74 01     STZ  $01, X
 92C3  80 0A     BRA  $92CF
 92C5  E8        INX  
 92C6  E8        INX  
 92C7  A5 26     LDA  $26
 92C9  95 00     STA  $00, X
 92CB  A5 27     LDA  $27
 92CD  95 01     STA  $01, X
 92CF  60        RTS  
 92D0  20 B1 BA  JSR  $BAB1
 92D3  A9 FF     LDA  #$FF
 92D5  55 00     EOR  $00, X
 92D7  95 00     STA  $00, X
 92D9  A9 FF     LDA  #$FF
 92DB  55 01     EOR  $01, X
 92DD  95 01     STA  $01, X
 92DF  60        RTS  
 92E0  A5 16     LDA  $16
 92E2  05 17     ORA  $17
 92E4  F0 0C     BEQ  $92F2
 92E6  20 8E 85  JSR  $858E
 92E9  A0 8A     LDY  #$8A
 92EB  A9 D6     LDA  #$D6
 92ED  20 54 B9  JSR  $B954
 92F0  80 06     BRA  $92F8
 92F2  20 7E A1  JSR  $A17E
 92F5  20 D6 8A  JSR  $8AD6
 92F8  60        RTS  
 92F9  CA        DEX  
 92FA  CA        DEX  
 92FB  86 2A     STX  $2A
 92FD  BA        TSX  
 92FE  38        SEC  
 92FF  BD 07 01  LDA  $0107, X
 9302  FD 09 01  SBC  $0109, X
 9305  A8        TAY  
 9306  BD 08 01  LDA  $0108, X
 9309  FD 0A 01  SBC  $010A, X
 930C  A6 2A     LDX  $2A
 930E  95 01     STA  $01, X
 9310  94 00     STY  $00, X
 9312  60        RTS  
 9313  20 1D 93  JSR  $931D
 9316  CA        DEX  
 9317  CA        DEX  
 9318  95 00     STA  $00, X
 931A  74 01     STZ  $01, X
 931C  60        RTS  
 931D  6C 12 00  JMP  ($0012)
 9320  CA        DEX  
 9321  CA        DEX  
 9322  20 F3 B9  JSR  $B9F3
 9325  A5 02     LDA  $02
 9327  95 00     STA  $00, X
 9329  A5 03     LDA  $03
 932B  95 01     STA  $01, X
 932D  60        RTS  
 932E  20 20 93  JSR  $9320
 9331  20 C6 95  JSR  $95C6
 9334  60        RTS  
 9335  68        PLA  
 9336  68        PLA  
 9337  68        PLA  
 9338  68        PLA  
 9339  60        RTS  
 933A  64 16     STZ  $16
 933C  64 17     STZ  $17
 933E  60        RTS  
 933F  20 18 98  JSR  $9818
 9342  B5 00     LDA  $00, X
 9344  85 34     STA  $34
 9346  B5 01     LDA  $01, X
 9348  85 35     STA  $35
 934A  E8        INX  
 934B  E8        INX  
 934C  60        RTS  
 934D  20 B6 BA  JSR  $BAB6
 9350  A0 00     LDY  #$00
 9352  20 D8 B9  JSR  $B9D8
 9355  F0 03     BEQ  $935A
 9357  30 01     BMI  $935A
 9359  88        DEY  
 935A  98        TYA  
 935B  E8        INX  
 935C  E8        INX  
 935D  95 00     STA  $00, X
 935F  95 01     STA  $01, X
 9361  60        RTS  
 9362  20 B1 BA  JSR  $BAB1
 9365  20 50 9E  JSR  $9E50
 9368  20 FA A0  JSR  $A0FA
 936B  20 B2 A7  JSR  $A7B2
 936E  60        RTS  
 936F  20 B1 BA  JSR  $BAB1
 9372  A0 93     LDY  #$93
 9374  A9 7D     LDA  #$7D
 9376  20 54 B9  JSR  $B954
 9379  20 5E 87  JSR  $875E
 937C  60        RTS  
 937D  CA        DEX  
 937E  CA        DEX  
 937F  68        PLA  
 9380  85 24     STA  $24
 9382  68        PLA  
 9383  85 25     STA  $25
 9385  A0 01     LDY  #$01
 9387  B1 24     LDA  ($24), Y
 9389  95 00     STA  $00, X
 938B  C8        INY  
 938C  B1 24     LDA  ($24), Y
 938E  95 01     STA  $01, X
 9390  98        TYA  
 9391  18        CLC  
 9392  65 24     ADC  $24
 9394  A8        TAY  
 9395  A5 25     LDA  $25
 9397  69 00     ADC  #$00
 9399  48        PHA  
 939A  5A        PHY  
 939B  60        RTS  
 939C  20 B1 BA  JSR  $BAB1
 939F  A0 01     LDY  #$01
 93A1  B1 1E     LDA  ($1E), Y
 93A3  48        PHA  
 93A4  88        DEY  
 93A5  B1 1E     LDA  ($1E), Y
 93A7  48        PHA  
 93A8  B5 00     LDA  $00, X
 93AA  91 1E     STA  ($1E), Y
 93AC  C8        INY  
 93AD  B5 01     LDA  $01, X
 93AF  91 1E     STA  ($1E), Y
 93B1  20 B1 83  JSR  $83B1
 93B4  CA        DEX  
 93B5  CA        DEX  
 93B6  A9 04     LDA  #$04
 93B8  95 01     STA  $01, X
 93BA  74 00     STZ  $00, X
 93BC  20 B4 90  JSR  $90B4
 93BF  A0 00     LDY  #$00
 93C1  68        PLA  
 93C2  91 1E     STA  ($1E), Y
 93C4  C8        INY  
 93C5  68        PLA  
 93C6  91 1E     STA  ($1E), Y
 93C8  88        DEY  
 93C9  11 1E     ORA  ($1E), Y
 93CB  F0 12     BEQ  $93DF
 93CD  CA        DEX  
 93CE  CA        DEX  
 93CF  A0 00     LDY  #$00
 93D1  B1 1E     LDA  ($1E), Y
 93D3  95 00     STA  $00, X
 93D5  C8        INY  
 93D6  B1 1E     LDA  ($1E), Y
 93D8  95 01     STA  $01, X
 93DA  20 B1 83  JSR  $83B1
 93DD  E8        INX  
 93DE  E8        INX  
 93DF  60        RTS  
 93E0  A0 97     LDY  #$97
 93E2  A9 7F     LDA  #$7F
 93E4  20 54 B9  JSR  $B954
 93E7  A0 11     LDY  #$11
 93E9  5A        PHY  
 93EA  B9 4E 94  LDA  $944E, Y
 93ED  91 00     STA  ($00), Y
 93EF  88        DEY  
 93F0  10 F8     BPL  $93EA
 93F2  68        PLA  
 93F3  18        CLC  
 93F4  65 00     ADC  $00
 93F6  85 00     STA  $00
 93F8  A5 01     LDA  $01
 93FA  69 00     ADC  #$00
 93FC  85 01     STA  $01
 93FE  20 5E 87  JSR  $875E
 9401  A9 68     LDA  #$68
 9403  A0 06     LDY  #$06
 9405  91 00     STA  ($00), Y
 9407  88        DEY  
 9408  10 FB     BPL  $9405
 940A  A9 06     LDA  #$06
 940C  18        CLC  
 940D  65 00     ADC  $00
 940F  85 00     STA  $00
 9411  A5 01     LDA  $01
 9413  69 00     ADC  #$00
 9415  85 01     STA  $01
 9417  B5 00     LDA  $00, X
 9419  85 24     STA  $24
 941B  B5 01     LDA  $01, X
 941D  85 25     STA  $25
 941F  E8        INX  
 9420  E8        INX  
 9421  A5 00     LDA  $00
 9423  38        SEC  
 9424  E9 01     SBC  #$01
 9426  85 26     STA  $26
 9428  A5 01     LDA  $01
 942A  E9 00     SBC  #$00
 942C  85 27     STA  $27
 942E  A0 00     LDY  #$00
 9430  A9 A9     LDA  #$A9
 9432  91 24     STA  ($24), Y
 9434  C8        INY  
 9435  A5 27     LDA  $27
 9437  91 24     STA  ($24), Y
 9439  C8        INY  
 943A  A9 48     LDA  #$48
 943C  91 24     STA  ($24), Y
 943E  C8        INY  
 943F  A9 A9     LDA  #$A9
 9441  91 24     STA  ($24), Y
 9443  C8        INY  
 9444  A5 26     LDA  $26
 9446  91 24     STA  ($24), Y
 9448  C8        INY  
 9449  A9 48     LDA  #$48
 944B  91 24     STA  ($24), Y
 944D  60        RTS  
 944E  18        CLC  
 944F  68        PLA  
 9450  75 00     ADC  $00, X
 9452  A8        TAY  
 9453  B8        CLV  
 9454  68        PLA  
 9455  75 01     ADC  $01, X
 9457  48        PHA  
 9458  98        TYA  
 9459  48        PHA  
 945A  E8        INX  
 945B  E8        INX  
 945C  70 03     BVS  $9461
 945E  4C                                               |L               |
 945F  20 B6 BA  JSR  $BAB6
 9462  B5 00     LDA  $00, X
 9464  29 0F     AND  #$0F
 9466  F0 08     BEQ  $9470
 9468  A8        TAY  
 9469  16 02     ASL  $02, X
 946B  36 03     ROL  $03, X
 946D  88        DEY  
 946E  D0 F9     BNE  $9469
 9470  E8        INX  
 9471  E8        INX  
 9472  60        RTS  
 9473  20 B6 BA  JSR  $BAB6
 9476  B5 01     LDA  $01, X
 9478  55 03     EOR  $03, X
 947A  48        PHA  
 947B  20 39 81  JSR  $8139
 947E  20 1B A1  JSR  $A11B
 9481  20 39 81  JSR  $8139
 9484  20 69 A5  JSR  $A569
 9487  68        PLA  
 9488  10 03     BPL  $948D
 948A  20 2A 8B  JSR  $8B2A
 948D  60        RTS  
 948E  20 F3 B9  JSR  $B9F3
 9491  A5 02     LDA  $02
 9493  48        PHA  
 9494  A5 03     LDA  $03
 9496  48        PHA  
 9497  A5 00     LDA  $00
 9499  48        PHA  
 949A  A5 01     LDA  $01
 949C  48        PHA  
 949D  20 59 89  JSR  $8959
 94A0  A5 00     LDA  $00
 94A2  38        SEC  
 94A3  E9 02     SBC  #$02
 94A5  85 00     STA  $00
 94A7  A5 01     LDA  $01
 94A9  E9 00     SBC  #$00
 94AB  85 01     STA  $01
 94AD  A0 94     LDY  #$94
 94AF  A9 CC     LDA  #$CC
 94B1  20 60 B9  JSR  $B960
 94B4  7A        PLY  
 94B5  68        PLA  
 94B6  20 60 B9  JSR  $B960
 94B9  7A        PLY  
 94BA  68        PLA  
 94BB  20 60 B9  JSR  $B960
 94BE  A0 04     LDY  #$04
 94C0  B1 1E     LDA  ($1E), Y
 94C2  20 64 B9  JSR  $B964
 94C5  C8        INY  
 94C6  98        TYA  
 94C7  C9 28     CMP  #$28
 94C9  D0 F5     BNE  $94C0
 94CB  60        RTS  
 94CC  68        PLA  
 94CD  85 24     STA  $24
 94CF  68        PLA  
 94D0  85 25     STA  $25
 94D2  E6 24     INC  $24
 94D4  D0 02     BNE  $94D8
 94D6  E6 25     INC  $25
 94D8  A0 00     LDY  #$00
 94DA  B1 24     LDA  ($24), Y
 94DC  85 00     STA  $00
 94DE  C8        INY  
 94DF  B1 24     LDA  ($24), Y
 94E1  85 01     STA  $01
 94E3  C8        INY  
 94E4  B1 24     LDA  ($24), Y
 94E6  85 02     STA  $02
 94E8  C8        INY  
 94E9  B1 24     LDA  ($24), Y
 94EB  85 03     STA  $03
 94ED  A0 04     LDY  #$04
 94EF  B1 24     LDA  ($24), Y
 94F1  91 1E     STA  ($1E), Y
 94F3  C8        INY  
 94F4  98        TYA  
 94F5  C9 28     CMP  #$28
 94F7  D0 F6     BNE  $94EF
 94F9  20 06 BA  JSR  $BA06
 94FC  60        RTS  
 94FD  20 B6 BA  JSR  $BAB6
 9500  B5 00     LDA  $00, X
 9502  D5 02     CMP  $02, X
 9504  B5 01     LDA  $01, X
 9506  F5 03     SBC  $03, X
 9508  50 02     BVC  $950C
 950A  49 80     EOR  #$80
 950C  30 08     BMI  $9516
 950E  B5 00     LDA  $00, X
 9510  95 02     STA  $02, X
 9512  B5 01     LDA  $01, X
 9514  95 03     STA  $03, X
 9516  E8        INX  
 9517  E8        INX  
 9518  60        RTS  
 9519  20 B6 BA  JSR  $BAB6
 951C  B5 00     LDA  $00, X
 951E  D5 02     CMP  $02, X
 9520  B5 01     LDA  $01, X
 9522  F5 03     SBC  $03, X
 9524  50 02     BVC  $9528
 9526  49 80     EOR  #$80
 9528  10 08     BPL  $9532
 952A  B5 00     LDA  $00, X
 952C  95 02     STA  $02, X
 952E  B5 01     LDA  $01, X
 9530  95 03     STA  $03, X
 9532  E8        INX  
 9533  E8        INX  
 9534  60        RTS  
 9535  20 B6 BA  JSR  $BAB6
 9538  38        SEC  
 9539  B5 02     LDA  $02, X
 953B  F5 00     SBC  $00, X
 953D  95 02     STA  $02, X
 953F  B5 03     LDA  $03, X
 9541  F5 01     SBC  $01, X
 9543  95 03     STA  $03, X
 9545  E8        INX  
 9546  E8        INX  
 9547  60        RTS  
 9548  20 B6 BA  JSR  $BAB6
 954B  B5 00     LDA  $00, X
 954D  15 01     ORA  $01, X
 954F  F0 0F     BEQ  $9560
 9551  A1 02     LDA  ($02, X)
 9553  20 A4 BA  JSR  $BAA4
 9556  90 08     BCC  $9560
 9558  20 7F 97  JSR  $977F
 955B  20 90 9F  JSR  $9F90
 955E  80 EB     BRA  $954B
 9560  60        RTS  
 9561  20 B6 BA  JSR  $BAB6
 9564  B5 00     LDA  $00, X
 9566  15 01     ORA  $01, X
 9568  F0 33     BEQ  $959D
 956A  18        CLC  
 956B  B5 02     LDA  $02, X
 956D  75 00     ADC  $00, X
 956F  85 24     STA  $24
 9571  B5 03     LDA  $03, X
 9573  75 01     ADC  $01, X
 9575  85 25     STA  $25
 9577  A5 24     LDA  $24
 9579  D0 02     BNE  $957D
 957B  C6 25     DEC  $25
 957D  C6 24     DEC  $24
 957F  B2 24     LDA  ($24)
 9581  C9 20     CMP  #$20
 9583  D0 18     BNE  $959D
 9585  A5 24     LDA  $24
 9587  D0 02     BNE  $958B
 9589  C6 25     DEC  $25
 958B  C6 24     DEC  $24
 958D  B5 00     LDA  $00, X
 958F  D0 02     BNE  $9593
 9591  D6 01     DEC  $01, X
 9593  D6 00     DEC  $00, X
 9595  B5 00     LDA  $00, X
 9597  15 01     ORA  $01, X
 9599  F0 02     BEQ  $959D
 959B  80 E2     BRA  $957F
 959D  60        RTS  
 959E  20 B6 BA  JSR  $BAB6
 95A1  20 78 9F  JSR  $9F78
 95A4  E8        INX  
 95A5  E8        INX  
 95A6  60        RTS  
 95A7  B5 03     LDA  $03, X
 95A9  D5 05     CMP  $05, X
 95AB  F0 05     BEQ  $95B2
 95AD  B0 0E     BCS  $95BD
 95AF  4C 89 86  JMP  $8689
 95B2  B5 02     LDA  $02, X
 95B4  D5 04     CMP  $04, X
 95B6  F0 08     BEQ  $95C0
 95B8  B0 03     BCS  $95BD
 95BA  4C 89 86  JMP  $8689
 95BD  4C C4 86  JMP  $86C4
 95C0  8A        TXA  
 95C1  18        CLC  
 95C2  69 06     ADC  #$06
 95C4  AA        TAX  
 95C5  60        RTS  
 95C6  20 B1 BA  JSR  $BAB1
 95C9  B5 00     LDA  $00, X
 95CB  18        CLC  
 95CC  69 04     ADC  #$04
 95CE  85 28     STA  $28
 95D0  B5 01     LDA  $01, X
 95D2  90 01     BCC  $95D5
 95D4  1A        INC  
 95D5  85 29     STA  $29
 95D7  A0 00     LDY  #$00
 95D9  B1 28     LDA  ($28), Y
 95DB  95 00     STA  $00, X
 95DD  C8        INY  
 95DE  B1 28     LDA  ($28), Y
 95E0  95 01     STA  $01, X
 95E2  60        RTS  
 95E3  20 B1 BA  JSR  $BAB1
 95E6  CA        DEX  
 95E7  CA        DEX  
 95E8  A1 02     LDA  ($02, X)
 95EA  95 00     STA  $00, X
 95EC  74 01     STZ  $01, X
 95EE  B5 02     LDA  $02, X
 95F0  18        CLC  
 95F1  69 08     ADC  #$08
 95F3  A8        TAY  
 95F4  B5 03     LDA  $03, X
 95F6  69 00     ADC  #$00
 95F8  95 03     STA  $03, X
 95FA  94 02     STY  $02, X
 95FC  60        RTS  
 95FD  CA        DEX  
 95FE  CA        DEX  
 95FF  A9 1A     LDA  #$1A
 9601  95 00     STA  $00, X
 9603  A9 00     LDA  #$00
 9605  95 01     STA  $01, X
 9607  60        RTS  
 9608  20 B1 BA  JSR  $BAB1
 960B  A9 00     LDA  #$00
 960D  38        SEC  
 960E  F5 00     SBC  $00, X
 9610  95 00     STA  $00, X
 9612  A9 00     LDA  #$00
 9614  F5 01     SBC  $01, X
 9616  95 01     STA  $01, X
 9618  60        RTS  
 9619  20 F3 B9  JSR  $B9F3
 961C  A0 01     LDY  #$01
 961E  B1 02     LDA  ($02), Y
 9620  09 08     ORA  #$08
 9622  29 FD     AND  #$FD
 9624  91 02     STA  ($02), Y
 9626  60        RTS  
 9627  20 B6 BA  JSR  $BAB6
 962A  B5 00     LDA  $00, X
 962C  95 02     STA  $02, X
 962E  B5 01     LDA  $01, X
 9630  95 03     STA  $03, X
 9632  E8        INX  
 9633  E8        INX  
 9634  60        RTS  
 9635  20 B6 BA  JSR  $BAB6
 9638  A0 00     LDY  #$00
 963A  B5 00     LDA  $00, X
 963C  D5 02     CMP  $02, X
 963E  D0 0A     BNE  $964A
 9640  B5 01     LDA  $01, X
 9642  D5 03     CMP  $03, X
 9644  D0 04     BNE  $964A
 9646  A9 FF     LDA  #$FF
 9648  80 01     BRA  $964B
 964A  88        DEY  
 964B  98        TYA  
 964C  E8        INX  
 964D  E8        INX  
 964E  95 00     STA  $00, X
 9650  95 01     STA  $01, X
 9652  60        RTS  
 9653  20 BB BA  JSR  $BABB
 9656  B4 01     LDY  $01, X
 9658  B5 03     LDA  $03, X
 965A  95 01     STA  $01, X
 965C  B5 05     LDA  $05, X
 965E  95 03     STA  $03, X
 9660  94 05     STY  $05, X
 9662  B4 00     LDY  $00, X
 9664  B5 02     LDA  $02, X
 9666  95 00     STA  $00, X
 9668  B5 04     LDA  $04, X
 966A  95 02     STA  $02, X
 966C  94 04     STY  $04, X
 966E  60        RTS  
 966F  20 B6 BA  JSR  $BAB6
 9672  64 2A     STZ  $2A
 9674  64 2B     STZ  $2B
 9676  A1 02     LDA  ($02, X)
 9678  C9 2D     CMP  #$2D
 967A  D0 0A     BNE  $9686
 967C  C6 2B     DEC  $2B
 967E  F6 02     INC  $02, X
 9680  D0 02     BNE  $9684
 9682  F6 03     INC  $03, X
 9684  D6 00     DEC  $00, X
 9686  B5 02     LDA  $02, X
 9688  18        CLC  
 9689  75 00     ADC  $00, X
 968B  85 2C     STA  $2C
 968D  B5 03     LDA  $03, X
 968F  69 00     ADC  #$00
 9691  85 2D     STA  $2D
 9693  A5 2C     LDA  $2C
 9695  D0 02     BNE  $9699
 9697  C6 2D     DEC  $2D
 9699  C6 2C     DEC  $2C
 969B  B2 2C     LDA  ($2C)
 969D  C9 2E     CMP  #$2E
 969F  D0 04     BNE  $96A5
 96A1  C6 2A     DEC  $2A
 96A3  D6 00     DEC  $00, X
 96A5  CA        DEX  
 96A6  CA        DEX  
 96A7  CA        DEX  
 96A8  CA        DEX  
 96A9  B5 04     LDA  $04, X
 96AB  95 00     STA  $00, X
 96AD  74 01     STZ  $01, X
 96AF  B5 06     LDA  $06, X
 96B1  95 02     STA  $02, X
 96B3  B5 07     LDA  $07, X
 96B5  95 03     STA  $03, X
 96B7  74 04     STZ  $04, X
 96B9  74 05     STZ  $05, X
 96BB  74 06     STZ  $06, X
 96BD  74 07     STZ  $07, X
 96BF  20 2A A2  JSR  $A22A
 96C2  B5 00     LDA  $00, X
 96C4  F0 15     BEQ  $96DB
 96C6  A9 3E     LDA  #$3E
 96C8  20 DB 8D  JSR  $8DDB
 96CB  20 70 A4  JSR  $A470
 96CE  A9 3C     LDA  #$3C
 96D0  20 DB 8D  JSR  $8DDB
 96D3  20 95 A0  JSR  $A095
 96D6  A9 08     LDA  #$08
 96D8  4C C7 BA  JMP  $BAC7
 96DB  E8        INX  
 96DC  E8        INX  
 96DD  E8        INX  
 96DE  E8        INX  
 96DF  A5 2A     LDA  $2A
 96E1  F0 0D     BEQ  $96F0
 96E3  A9 20     LDA  #$20
 96E5  04 20     TSB  $20
 96E7  A5 2B     LDA  $2B
 96E9  F0 12     BEQ  $96FD
 96EB  20 2A 8B  JSR  $8B2A
 96EE  80 0D     BRA  $96FD
 96F0  E8        INX  
 96F1  E8        INX  
 96F2  A9 20     LDA  #$20
 96F4  14 20     TRB  $20
 96F6  A5 2B     LDA  $2B
 96F8  F0 03     BEQ  $96FD
 96FA  20 08 96  JSR  $9608
 96FD  60        RTS  
 96FE  20 B6 BA  JSR  $BAB6
 9701  20 77 83  JSR  $8377
 9704  20 65 8F  JSR  $8F65
 9707  20 DD A2  JSR  $A2DD
 970A  20 14 A7  JSR  $A714
 970D  20 F4 99  JSR  $99F4
 9710  20 27 A5  JSR  $A527
 9713  20 CE 9A  JSR  $9ACE
 9716  20 CE 9A  JSR  $9ACE
 9719  20 09 9A  JSR  $9A09
 971C  20 27 A5  JSR  $A527
 971F  20 CE 9A  JSR  $9ACE
 9722  20 CE 9A  JSR  $9ACE
 9725  B5 00     LDA  $00, X
 9727  A8        TAY  
 9728  B9 C8 B6  LDA  $B6C8, Y
 972B  95 00     STA  $00, X
 972D  74 01     STZ  $01, X
 972F  20 BC 91  JSR  $91BC
 9732  60        RTS  
 9733  20 B6 BA  JSR  $BAB6
 9736  A5 34     LDA  $34
 9738  95 00     STA  $00, X
 973A  95 02     STA  $02, X
 973C  A5 35     LDA  $35
 973E  95 01     STA  $01, X
 9740  95 03     STA  $03, X
 9742  20 18 98  JSR  $9818
 9745  38        SEC  
 9746  B5 00     LDA  $00, X
 9748  F5 02     SBC  $02, X
 974A  95 02     STA  $02, X
 974C  B5 01     LDA  $01, X
 974E  F5 03     SBC  $03, X
 9750  95 03     STA  $03, X
 9752  E8        INX  
 9753  E8        INX  
 9754  60        RTS  
 9755  20 B6 BA  JSR  $BAB6
 9758  20 FE 96  JSR  $96FE
 975B  B5 00     LDA  $00, X
 975D  15 01     ORA  $01, X
 975F  15 02     ORA  $02, X
 9761  15 03     ORA  $03, X
 9763  D0 F3     BNE  $9758
 9765  60        RTS  
 9766  A0 98     LDY  #$98
 9768  A9 0A     LDA  #$0A
 976A  20 54 B9  JSR  $B954
 976D  A0 8E     LDY  #$8E
 976F  A9 B3     LDA  #$B3
 9771  20 54 B9  JSR  $B954
 9774  20 E8 91  JSR  $91E8
 9777  A0 8D     LDY  #$8D
 9779  A9 17     LDA  #$17
 977B  20 54 B9  JSR  $B954
 977E  60        RTS  
 977F  CA        DEX  
 9780  CA        DEX  
 9781  A9 01     LDA  #$01
 9783  95 00     STA  $00, X
 9785  74 01     STZ  $01, X
 9787  60        RTS  
 9788  20 B1 BA  JSR  $BAB1
 978B  B5 00     LDA  $00, X
 978D  D0 02     BNE  $9791
 978F  D6 01     DEC  $01, X
 9791  D6 00     DEC  $00, X
 9793  60        RTS  
 9794  20 B1 BA  JSR  $BAB1
 9797  F6 00     INC  $00, X
 9799  D0 02     BNE  $979D
 979B  F6 01     INC  $01, X
 979D  60        RTS  
 979E  CA        DEX  
 979F  CA        DEX  
 97A0  A9 FF     LDA  #$FF
 97A2  95 00     STA  $00, X
 97A4  95 01     STA  $01, X
 97A6  20 92 9C  JSR  $9C92
 97A9  60        RTS  
 97AA  20 B6 BA  JSR  $BAB6
 97AD  B5 00     LDA  $00, X
 97AF  15 02     ORA  $02, X
 97B1  95 02     STA  $02, X
 97B3  B5 01     LDA  $01, X
 97B5  15 03     ORA  $03, X
 97B7  95 03     STA  $03, X
 97B9  E8        INX  
 97BA  E8        INX  
 97BB  60        RTS  
 97BC  20 53 89  JSR  $8953
 97BF  20 19 91  JSR  $9119
 97C2  B5 00     LDA  $00, X
 97C4  F0 1E     BEQ  $97E4
 97C6  A8        TAY  
 97C7  E8        INX  
 97C8  E8        INX  
 97C9  B5 00     LDA  $00, X
 97CB  5A        PHY  
 97CC  20 E7 97  JSR  $97E7
 97CF  7A        PLY  
 97D0  88        DEY  
 97D1  D0 F4     BNE  $97C7
 97D3  20 95 A0  JSR  $A095
 97D6  20 95 A0  JSR  $A095
 97D9  20 0E 91  JSR  $910E
 97DC  B5 00     LDA  $00, X
 97DE  20 E7 97  JSR  $97E7
 97E1  20 53 89  JSR  $8953
 97E4  E8        INX  
 97E5  E8        INX  
 97E6  60        RTS  
 97E7  C9 04     CMP  #$04
 97E9  90 09     BCC  $97F4
 97EB  CA        DEX  
 97EC  CA        DEX  
 97ED  95 00     STA  $00, X
 97EF  74 01     STZ  $01, X
 97F1  4C 9B A4  JMP  $A49B
 97F4  A8        TAY  
 97F5  B9 FB 97  LDA  $97FB, Y
 97F8  4C DD BA  JMP  $BADD
 97FB  03 06 07 08                                      |....            |
 97FF  CA        DEX  
 9800  CA        DEX  
 9801  A9 10     LDA  #$10
 9803  95 00     STA  $00, X
 9805  A9 00     LDA  #$00
 9807  95 01     STA  $01, X
 9809  60        RTS  
 980A  20 B6 BA  JSR  $BAB6
 980D  CA        DEX  
 980E  CA        DEX  
 980F  B5 04     LDA  $04, X
 9811  95 00     STA  $00, X
 9813  B5 05     LDA  $05, X
 9815  95 01     STA  $01, X
 9817  60        RTS  
 9818  CA        DEX  
 9819  CA        DEX  
 981A  A5 00     LDA  $00
 981C  18        CLC  
 981D  69 FF     ADC  #$FF
 981F  95 00     STA  $00, X
 9821  A5 01     LDA  $01
 9823  69 00     ADC  #$00
 9825  95 01     STA  $01, X
 9827  60        RTS  
 9828  A9 1B     LDA  #$1B
 982A  20 DB 8D  JSR  $8DDB
 982D  A9 5B     LDA  #$5B
 982F  20 DB 8D  JSR  $8DDB
 9832  A9 32     LDA  #$32
 9834  20 DB 8D  JSR  $8DDB
 9837  A9 4A     LDA  #$4A
 9839  20 DB 8D  JSR  $8DDB
 983C  20 14 A7  JSR  $A714
 983F  20 14 A7  JSR  $A714
 9842  20 50 83  JSR  $8350
 9845  60        RTS  
 9846  CA        DEX  
 9847  CA        DEX  
 9848  A9 29     LDA  #$29
 984A  95 00     STA  $00, X
 984C  74 01     STZ  $01, X
 984E  20 B1 98  JSR  $98B1
 9851  E8        INX  
 9852  E8        INX  
 9853  E8        INX  
 9854  E8        INX  
 9855  60        RTS  
 9856  A5 0A     LDA  $0A
 9858  38        SEC  
 9859  E5 0C     SBC  $0C
 985B  85 24     STA  $24
 985D  A5 0B     LDA  $0B
 985F  E5 0D     SBC  $0D
 9861  85 25     STA  $25
 9863  A5 24     LDA  $24
 9865  05 25     ORA  $25
 9867  F0 28     BEQ  $9891
 9869  A5 08     LDA  $08
 986B  18        CLC  
 986C  65 0C     ADC  $0C
 986E  85 26     STA  $26
 9870  A5 09     LDA  $09
 9872  65 0D     ADC  $0D
 9874  85 27     STA  $27
 9876  B2 26     LDA  ($26)
 9878  20 A4 BA  JSR  $BAA4
 987B  90 1F     BCC  $989C
 987D  E6 26     INC  $26
 987F  D0 02     BNE  $9883
 9881  E6 27     INC  $27
 9883  A5 24     LDA  $24
 9885  D0 02     BNE  $9889
 9887  C6 25     DEC  $25
 9889  C6 24     DEC  $24
 988B  A5 24     LDA  $24
 988D  05 25     ORA  $25
 988F  D0 E5     BNE  $9876
 9891  CA        DEX  
 9892  CA        DEX  
 9893  CA        DEX  
 9894  CA        DEX  
 9895  74 00     STZ  $00, X
 9897  74 01     STZ  $01, X
 9899  4C 48 99  JMP  $9948
 989C  A5 26     LDA  $26
 989E  38        SEC  
 989F  E5 08     SBC  $08
 98A1  85 0C     STA  $0C
 98A3  A5 27     LDA  $27
 98A5  E5 09     SBC  $09
 98A7  85 0D     STA  $0D
 98A9  CA        DEX  
 98AA  CA        DEX  
 98AB  A9 20     LDA  #$20
 98AD  95 00     STA  $00, X
 98AF  74 01     STZ  $01, X
 98B1  20 B1 BA  JSR  $BAB1
 98B4  A5 0A     LDA  $0A
 98B6  05 0B     ORA  $0B
 98B8  F0 0C     BEQ  $98C6
 98BA  A5 0D     LDA  $0D
 98BC  C5 0B     CMP  $0B
 98BE  90 0E     BCC  $98CE
 98C0  A5 0C     LDA  $0C
 98C2  C5 0A     CMP  $0A
 98C4  90 08     BCC  $98CE
 98C6  CA        DEX  
 98C7  CA        DEX  
 98C8  74 00     STZ  $00, X
 98CA  74 01     STZ  $01, X
 98CC  80 7A     BRA  $9948
 98CE  B5 00     LDA  $00, X
 98D0  85 2C     STA  $2C
 98D2  CA        DEX  
 98D3  CA        DEX  
 98D4  A5 08     LDA  $08
 98D6  18        CLC  
 98D7  65 0C     ADC  $0C
 98D9  85 24     STA  $24
 98DB  85 26     STA  $26
 98DD  95 02     STA  $02, X
 98DF  A5 09     LDA  $09
 98E1  65 0D     ADC  $0D
 98E3  85 25     STA  $25
 98E5  85 27     STA  $27
 98E7  95 03     STA  $03, X
 98E9  A5 08     LDA  $08
 98EB  18        CLC  
 98EC  65 0A     ADC  $0A
 98EE  85 28     STA  $28
 98F0  A5 09     LDA  $09
 98F2  65 0B     ADC  $0B
 98F4  85 29     STA  $29
 98F6  64 2D     STZ  $2D
 98F8  A5 26     LDA  $26
 98FA  C5 28     CMP  $28
 98FC  D0 06     BNE  $9904
 98FE  A5 27     LDA  $27
 9900  C5 29     CMP  $29
 9902  F0 1D     BEQ  $9921
 9904  B2 26     LDA  ($26)
 9906  A4 2C     LDY  $2C
 9908  C0 20     CPY  #$20
 990A  D0 07     BNE  $9913
 990C  20 A4 BA  JSR  $BAA4
 990F  90 02     BCC  $9913
 9911  80 0C     BRA  $991F
 9913  C5 2C     CMP  $2C
 9915  F0 08     BEQ  $991F
 9917  E6 26     INC  $26
 9919  D0 DD     BNE  $98F8
 991B  E6 27     INC  $27
 991D  80 D9     BRA  $98F8
 991F  E6 2D     INC  $2D
 9921  A5 26     LDA  $26
 9923  38        SEC  
 9924  E5 24     SBC  $24
 9926  95 00     STA  $00, X
 9928  A5 27     LDA  $27
 992A  E5 25     SBC  $25
 992C  95 01     STA  $01, X
 992E  A5 26     LDA  $26
 9930  38        SEC  
 9931  E5 08     SBC  $08
 9933  85 0C     STA  $0C
 9935  A5 27     LDA  $27
 9937  E5 09     SBC  $09
 9939  85 0D     STA  $0D
 993B  A5 0C     LDA  $0C
 993D  18        CLC  
 993E  65 2D     ADC  $2D
 9940  85 0C     STA  $0C
 9942  A5 0D     LDA  $0D
 9944  69 00     ADC  #$00
 9946  85 0D     STA  $0D
 9948  60        RTS  
 9949  16 00     ASL  $00, X
 994B  8A        TXA  
 994C  75 00     ADC  $00, X
 994E  A8        TAY  
 994F  B9 02 00  LDA  $0002, Y
 9952  95 00     STA  $00, X
 9954  B9 03 00  LDA  $0003, Y
 9957  95 01     STA  $01, X
 9959  60        RTS  
 995A  20 B6 BA  JSR  $BAB6
 995D  18        CLC  
 995E  B5 00     LDA  $00, X
 9960  75 02     ADC  $02, X
 9962  95 02     STA  $02, X
 9964  B5 01     LDA  $01, X
 9966  75 03     ADC  $03, X
 9968  95 03     STA  $03, X
 996A  E8        INX  
 996B  E8        INX  
 996C  60        RTS  
 996D  20 B6 BA  JSR  $BAB6
 9970  B5 00     LDA  $00, X
 9972  85 24     STA  $24
 9974  B5 01     LDA  $01, X
 9976  85 25     STA  $25
 9978  A0 00     LDY  #$00
 997A  B1 24     LDA  ($24), Y
 997C  18        CLC  
 997D  75 02     ADC  $02, X
 997F  91 24     STA  ($24), Y
 9981  C8        INY  
 9982  B1 24     LDA  ($24), Y
 9984  75 03     ADC  $03, X
 9986  91 24     STA  ($24), Y
 9988  E8        INX  
 9989  E8        INX  
 998A  E8        INX  
 998B  E8        INX  
 998C  60        RTS  
 998D  20 56 98  JSR  $9856
 9990  B5 00     LDA  $00, X
 9992  15 01     ORA  $01, X
 9994  D0 05     BNE  $999B
 9996  A9 05     LDA  #$05
 9998  4C C7 BA  JMP  $BAC7
 999B  20 C0 8F  JSR  $8FC0
 999E  D0 05     BNE  $99A5
 99A0  A9 05     LDA  #$05
 99A2  4C C7 BA  JMP  $BAC7
 99A5  B5 00     LDA  $00, X
 99A7  85 24     STA  $24
 99A9  B5 01     LDA  $01, X
 99AB  85 25     STA  $25
 99AD  20 C6 95  JSR  $95C6
 99B0  E6 24     INC  $24
 99B2  D0 02     BNE  $99B6
 99B4  E6 25     INC  $25
 99B6  B2 24     LDA  ($24)
 99B8  29 04     AND  #$04
 99BA  F0 05     BEQ  $99C1
 99BC  20 DD 87  JSR  $87DD
 99BF  80 0A     BRA  $99CB
 99C1  20 6F 93  JSR  $936F
 99C4  A0 87     LDY  #$87
 99C6  A9 DD     LDA  #$DD
 99C8  20 54 B9  JSR  $B954
 99CB  60        RTS  
 99CC  20 19 91  JSR  $9119
 99CF  20 27 96  JSR  $9627
 99D2  20 88 97  JSR  $9788
 99D5  20 92 9C  JSR  $9C92
 99D8  60        RTS  
 99D9  20 65 8F  JSR  $8F65
 99DC  20 1F 8C  JSR  $8C1F
 99DF  60        RTS  
 99E0  20 B1 BA  JSR  $BAB1
 99E3  B5 00     LDA  $00, X
 99E5  15 01     ORA  $01, X
 99E7  F0 0A     BEQ  $99F3
 99E9  CA        DEX  
 99EA  CA        DEX  
 99EB  B5 02     LDA  $02, X
 99ED  95 00     STA  $00, X
 99EF  B5 03     LDA  $03, X
 99F1  95 01     STA  $01, X
 99F3  60        RTS  
 99F4  7A        PLY  
 99F5  84 24     STY  $24
 99F7  7A        PLY  
 99F8  CA        DEX  
 99F9  CA        DEX  
 99FA  68        PLA  
 99FB  95 00     STA  $00, X
 99FD  68        PLA  
 99FE  95 01     STA  $01, X
 9A00  48        PHA  
 9A01  B5 00     LDA  $00, X
 9A03  48        PHA  
 9A04  5A        PHY  
 9A05  A4 24     LDY  $24
 9A07  5A        PHY  
 9A08  60        RTS  
 9A09  68        PLA  
 9A0A  85 2C     STA  $2C
 9A0C  7A        PLY  
 9A0D  CA        DEX  
 9A0E  CA        DEX  
 9A0F  68        PLA  
 9A10  95 00     STA  $00, X
 9A12  68        PLA  
 9A13  95 01     STA  $01, X
 9A15  5A        PHY  
 9A16  A5 2C     LDA  $2C
 9A18  48        PHA  
 9A19  60        RTS  
 9A1A  68        PLA  
 9A1B  85 24     STA  $24
 9A1D  68        PLA  
 9A1E  85 25     STA  $25
 9A20  A0 00     LDY  #$00
 9A22  68        PLA  
 9A23  99 06 00  STA  $0006, Y
 9A26  C8        INY  
 9A27  C0 08     CPY  #$08
 9A29  D0 F7     BNE  $9A22
 9A2B  A5 25     LDA  $25
 9A2D  48        PHA  
 9A2E  A5 24     LDA  $24
 9A30  48        PHA  
 9A31  60        RTS  
 9A32  A0 00     LDY  #$00
 9A34  A9 20     LDA  #$20
 9A36  91 00     STA  ($00), Y
 9A38  C8        INY  
 9A39  24 20     BIT  $20
 9A3B  70 0C     BVS  $9A49
 9A3D  A5 04     LDA  $04
 9A3F  91 00     STA  ($00), Y
 9A41  C8        INY  
 9A42  A5 05     LDA  $05
 9A44  91 00     STA  ($00), Y
 9A46  C8        INY  
 9A47  80 1B     BRA  $9A64
 9A49  A5 04     LDA  $04
 9A4B  18        CLC  
 9A4C  69 04     ADC  #$04
 9A4E  85 24     STA  $24
 9A50  A5 05     LDA  $05
 9A52  69 00     ADC  #$00
 9A54  85 25     STA  $25
 9A56  B2 24     LDA  ($24)
 9A58  91 00     STA  ($00), Y
 9A5A  5A        PHY  
 9A5B  A0 01     LDY  #$01
 9A5D  B1 24     LDA  ($24), Y
 9A5F  7A        PLY  
 9A60  C8        INY  
 9A61  91 00     STA  ($00), Y
 9A63  C8        INY  
 9A64  98        TYA  
 9A65  18        CLC  
 9A66  65 00     ADC  $00
 9A68  85 00     STA  $00
 9A6A  90 02     BCC  $9A6E
 9A6C  E6 01     INC  $01
 9A6E  60        RTS  
 9A6F  A5 06     LDA  $06
 9A71  D0 2D     BNE  $9AA0
 9A73  CA        DEX  
 9A74  CA        DEX  
 9A75  CA        DEX  
 9A76  CA        DEX  
 9A77  A5 08     LDA  $08
 9A79  95 02     STA  $02, X
 9A7B  A5 09     LDA  $09
 9A7D  95 03     STA  $03, X
 9A7F  64 0A     STZ  $0A
 9A81  64 0B     STZ  $0B
 9A83  A9 FF     LDA  #$FF
 9A85  95 00     STA  $00, X
 9A87  74 01     STZ  $01, X
 9A89  20 4E 81  JSR  $814E
 9A8C  B5 00     LDA  $00, X
 9A8E  85 0A     STA  $0A
 9A90  B5 01     LDA  $01, X
 9A92  85 0B     STA  $0B
 9A94  64 0C     STZ  $0C
 9A96  64 0D     STZ  $0D
 9A98  A9 FF     LDA  #$FF
 9A9A  95 00     STA  $00, X
 9A9C  95 01     STA  $01, X
 9A9E  80 10     BRA  $9AB0
 9AA0  1A        INC  
 9AA1  D0 08     BNE  $9AAB
 9AA3  CA        DEX  
 9AA4  CA        DEX  
 9AA5  74 00     STZ  $00, X
 9AA7  74 01     STZ  $01, X
 9AA9  80 05     BRA  $9AB0
 9AAB  A9 01     LDA  #$01
 9AAD  4C C7 BA  JMP  $BAC7
 9AB0  60        RTS  
 9AB1  20 89 82  JSR  $8289
 9AB4  20 57 91  JSR  $9157
 9AB7  20 1B A1  JSR  $A11B
 9ABA  20 FA A0  JSR  $A0FA
 9ABD  60        RTS  
 9ABE  A9 FF     LDA  #$FF
 9AC0  85 16     STA  $16
 9AC2  85 17     STA  $17
 9AC4  60        RTS  
 9AC5  CA        DEX  
 9AC6  CA        DEX  
 9AC7  A9 03     LDA  #$03
 9AC9  95 00     STA  $00, X
 9ACB  74 01     STZ  $01, X
 9ACD  60        RTS  
 9ACE  20 BB BA  JSR  $BABB
 9AD1  B4 05     LDY  $05, X
 9AD3  B5 03     LDA  $03, X
 9AD5  95 05     STA  $05, X
 9AD7  B5 01     LDA  $01, X
 9AD9  95 03     STA  $03, X
 9ADB  94 01     STY  $01, X
 9ADD  B4 04     LDY  $04, X
 9ADF  B5 02     LDA  $02, X
 9AE1  95 04     STA  $04, X
 9AE3  B5 00     LDA  $00, X
 9AE5  95 02     STA  $02, X
 9AE7  94 00     STY  $00, X
 9AE9  60        RTS  
 9AEA  20 B6 BA  JSR  $BAB6
 9AED  B5 00     LDA  $00, X
 9AEF  29 0F     AND  #$0F
 9AF1  F0 08     BEQ  $9AFB
 9AF3  A8        TAY  
 9AF4  56 03     LSR  $03, X
 9AF6  76 02     ROR  $02, X
 9AF8  88        DEY  
 9AF9  D0 F9     BNE  $9AF4
 9AFB  E8        INX  
 9AFC  E8        INX  
 9AFD  60        RTS  
 9AFE  A9 FF     LDA  #$FF
 9B00  85 26     STA  $26
 9B02  64 27     STZ  $27
 9B04  20 CA 9C  JSR  $9CCA
 9B07  60        RTS  
 9B08  C9 41     CMP  #$41
 9B0A  90 07     BCC  $9B13
 9B0C  29 DF     AND  #$DF
 9B0E  38        SEC  
 9B0F  E9 37     SBC  #$37
 9B11  80 03     BRA  $9B16
 9B13  38        SEC  
 9B14  E9 30     SBC  #$30
 9B16  60        RTS  
 9B17  20 BB BA  JSR  $BABB
 9B1A  A5 1E     LDA  $1E
 9B1C  18        CLC  
 9B1D  69 06     ADC  #$06
 9B1F  85 26     STA  $26
 9B21  A5 1F     LDA  $1F
 9B23  69 00     ADC  #$00
 9B25  85 27     STA  $27
 9B27  B5 00     LDA  $00, X
 9B29  0A        ASL  
 9B2A  65 26     ADC  $26
 9B2C  85 26     STA  $26
 9B2E  90 02     BCC  $9B32
 9B30  E6 27     INC  $27
 9B32  E8        INX  
 9B33  E8        INX  
 9B34  B5 00     LDA  $00, X
 9B36  15 01     ORA  $01, X
 9B38  D0 03     BNE  $9B3D
 9B3A  4C F5 9B  JMP  $9BF5
 9B3D  A5 26     LDA  $26
 9B3F  05 27     ORA  $27
 9B41  D0 03     BNE  $9B46
 9B43  4C F5 9B  JMP  $9BF5
 9B46  B2 26     LDA  ($26)
 9B48  85 24     STA  $24
 9B4A  E6 26     INC  $26
 9B4C  D0 02     BNE  $9B50
 9B4E  E6 27     INC  $27
 9B50  B2 26     LDA  ($26)
 9B52  85 25     STA  $25
 9B54  B5 02     LDA  $02, X
 9B56  85 26     STA  $26
 9B58  B5 03     LDA  $03, X
 9B5A  85 27     STA  $27
 9B5C  B2 24     LDA  ($24)
 9B5E  D5 00     CMP  $00, X
 9B60  D0 7B     BNE  $9BDD
 9B62  B2 26     LDA  ($26)
 9B64  C9 5B     CMP  #$5B
 9B66  B0 07     BCS  $9B6F
 9B68  C9 41     CMP  #$41
 9B6A  90 03     BCC  $9B6F
 9B6C  18        CLC  
 9B6D  69 20     ADC  #$20
 9B6F  A0 08     LDY  #$08
 9B71  D1 24     CMP  ($24), Y
 9B73  D0 68     BNE  $9BDD
 9B75  B5 00     LDA  $00, X
 9B77  3A        DEC  
 9B78  F0 2C     BEQ  $9BA6
 9B7A  A5 24     LDA  $24
 9B7C  48        PHA  
 9B7D  18        CLC  
 9B7E  69 08     ADC  #$08
 9B80  85 24     STA  $24
 9B82  A5 25     LDA  $25
 9B84  48        PHA  
 9B85  69 00     ADC  #$00
 9B87  85 25     STA  $25
 9B89  B4 00     LDY  $00, X
 9B8B  88        DEY  
 9B8C  B1 26     LDA  ($26), Y
 9B8E  C9 5B     CMP  #$5B
 9B90  B0 07     BCS  $9B99
 9B92  C9 41     CMP  #$41
 9B94  90 03     BCC  $9B99
 9B96  18        CLC  
 9B97  69 20     ADC  #$20
 9B99  D1 24     CMP  ($24), Y
 9B9B  D0 3A     BNE  $9BD7
 9B9D  88        DEY  
 9B9E  D0 EC     BNE  $9B8C
 9BA0  68        PLA  
 9BA1  85 25     STA  $25
 9BA3  68        PLA  
 9BA4  85 24     STA  $24
 9BA6  E8        INX  
 9BA7  E8        INX  
 9BA8  A5 24     LDA  $24
 9BAA  95 00     STA  $00, X
 9BAC  A5 25     LDA  $25
 9BAE  95 01     STA  $01, X
 9BB0  20 98 8D  JSR  $8D98
 9BB3  20 C6 95  JSR  $95C6
 9BB6  20 1B A1  JSR  $A11B
 9BB9  A0 00     LDY  #$00
 9BBB  F6 00     INC  $00, X
 9BBD  D0 02     BNE  $9BC1
 9BBF  F6 01     INC  $01, X
 9BC1  A1 00     LDA  ($00, X)
 9BC3  29 04     AND  #$04
 9BC5  D0 08     BNE  $9BCF
 9BC7  A9 FF     LDA  #$FF
 9BC9  95 00     STA  $00, X
 9BCB  95 01     STA  $01, X
 9BCD  80 28     BRA  $9BF7
 9BCF  A9 01     LDA  #$01
 9BD1  95 00     STA  $00, X
 9BD3  74 01     STZ  $01, X
 9BD5  80 20     BRA  $9BF7
 9BD7  68        PLA  
 9BD8  85 25     STA  $25
 9BDA  68        PLA  
 9BDB  85 24     STA  $24
 9BDD  A0 02     LDY  #$02
 9BDF  B1 24     LDA  ($24), Y
 9BE1  48        PHA  
 9BE2  C8        INY  
 9BE3  B1 24     LDA  ($24), Y
 9BE5  85 25     STA  $25
 9BE7  68        PLA  
 9BE8  85 24     STA  $24
 9BEA  05 25     ORA  $25
 9BEC  F0 03     BEQ  $9BF1
 9BEE  4C 5C 9B  JMP  $9B5C
 9BF1  74 02     STZ  $02, X
 9BF3  74 03     STZ  $03, X
 9BF5  E8        INX  
 9BF6  E8        INX  
 9BF7  60        RTS  
 9BF8  20 56 98  JSR  $9856
 9BFB  20 C0 8F  JSR  $8FC0
 9BFE  B5 00     LDA  $00, X
 9C00  15 01     ORA  $01, X
 9C02  D0 05     BNE  $9C09
 9C04  A9 05     LDA  #$05
 9C06  4C C7 BA  JMP  $BAC7
 9C09  20 53 89  JSR  $8953
 9C0C  A5 18     LDA  $18
 9C0E  48        PHA  
 9C0F  20 62 91  JSR  $9162
 9C12  A9 0A     LDA  #$0A
 9C14  20 DD BA  JSR  $BADD
 9C17  20 98 8D  JSR  $8D98
 9C1A  20 9B A4  JSR  $A49B
 9C1D  20 95 A0  JSR  $A095
 9C20  20 98 8D  JSR  $8D98
 9C23  20 C6 95  JSR  $95C6
 9C26  A9 0B     LDA  #$0B
 9C28  20 DD BA  JSR  $BADD
 9C2B  20 98 8D  JSR  $8D98
 9C2E  20 9B A4  JSR  $A49B
 9C31  20 53 89  JSR  $8953
 9C34  A9 09     LDA  #$09
 9C36  20 DD BA  JSR  $BADD
 9C39  20 0A 98  JSR  $980A
 9C3C  20 94 97  JSR  $9794
 9C3F  20 65 8F  JSR  $8F65
 9C42  B5 00     LDA  $00, X
 9C44  A0 06     LDY  #$06
 9C46  48        PHA  
 9C47  29 01     AND  #$01
 9C49  18        CLC  
 9C4A  69 30     ADC  #$30
 9C4C  20 DB 8D  JSR  $8DDB
 9C4F  20 95 A0  JSR  $A095
 9C52  68        PLA  
 9C53  6A        ROR  
 9C54  88        DEY  
 9C55  D0 EF     BNE  $9C46
 9C57  20 53 89  JSR  $8953
 9C5A  E8        INX  
 9C5B  E8        INX  
 9C5C  A9 0C     LDA  #$0C
 9C5E  20 DD BA  JSR  $BADD
 9C61  20 1B A1  JSR  $A11B
 9C64  20 E1 A6  JSR  $A6E1
 9C67  20 98 8D  JSR  $8D98
 9C6A  20 95 8A  JSR  $8A95
 9C6D  20 9B A4  JSR  $A49B
 9C70  20 62 91  JSR  $9162
 9C73  20 53 89  JSR  $8953
 9C76  20 25 A3  JSR  $A325
 9C79  20 1D 8D  JSR  $8D1D
 9C7C  20 53 89  JSR  $8953
 9C7F  20 17 8D  JSR  $8D17
 9C82  68        PLA  
 9C83  85 18     STA  $18
 9C85  60        RTS  
 9C86  20 B1 BA  JSR  $BAB1
 9C89  A0 04     LDY  #$04
 9C8B  B5 00     LDA  $00, X
 9C8D  91 1E     STA  ($1E), Y
 9C8F  E8        INX  
 9C90  E8        INX  
 9C91  60        RTS  
 9C92  A9 FF     LDA  #$FF
 9C94  D5 01     CMP  $01, X
 9C96  D0 12     BNE  $9CAA
 9C98  D5 00     CMP  $00, X
 9C9A  D0 0E     BNE  $9CAA
 9C9C  CA        DEX  
 9C9D  CA        DEX  
 9C9E  74 03     STZ  $03, X
 9CA0  A9 03     LDA  #$03
 9CA2  95 02     STA  $02, X
 9CA4  74 01     STZ  $01, X
 9CA6  A9 01     LDA  #$01
 9CA8  95 00     STA  $00, X
 9CAA  A0 1E     LDY  #$1E
 9CAC  B5 00     LDA  $00, X
 9CAE  91 1E     STA  ($1E), Y
 9CB0  85 24     STA  $24
 9CB2  E8        INX  
 9CB3  E8        INX  
 9CB4  A5 24     LDA  $24
 9CB6  F0 0D     BEQ  $9CC5
 9CB8  A0 1F     LDY  #$1F
 9CBA  B5 00     LDA  $00, X
 9CBC  91 1E     STA  ($1E), Y
 9CBE  C8        INY  
 9CBF  E8        INX  
 9CC0  E8        INX  
 9CC1  C6 24     DEC  $24
 9CC3  D0 F5     BNE  $9CBA
 9CC5  60        RTS  
 9CC6  64 26     STZ  $26
 9CC8  64 27     STZ  $27
 9CCA  CA        DEX  
 9CCB  CA        DEX  
 9CCC  CA        DEX  
 9CCD  CA        DEX  
 9CCE  A9 4C     LDA  #$4C
 9CD0  20 64 B9  JSR  $B964
 9CD3  20 64 B9  JSR  $B964
 9CD6  20 64 B9  JSR  $B964
 9CD9  A5 00     LDA  $00
 9CDB  95 02     STA  $02, X
 9CDD  A5 01     LDA  $01
 9CDF  95 03     STA  $03, X
 9CE1  A5 0D     LDA  $0D
 9CE3  C5 0B     CMP  $0B
 9CE5  90 2A     BCC  $9D11
 9CE7  A5 0C     LDA  $0C
 9CE9  C5 0A     CMP  $0A
 9CEB  90 24     BCC  $9D11
 9CED  A5 26     LDA  $26
 9CEF  48        PHA  
 9CF0  A5 27     LDA  $27
 9CF2  48        PHA  
 9CF3  A5 28     LDA  $28
 9CF5  48        PHA  
 9CF6  20 6F 9A  JSR  $9A6F
 9CF9  68        PLA  
 9CFA  85 28     STA  $28
 9CFC  68        PLA  
 9CFD  85 27     STA  $27
 9CFF  68        PLA  
 9D00  85 26     STA  $26
 9D02  B5 00     LDA  $00, X
 9D04  15 01     ORA  $01, X
 9D06  D0 05     BNE  $9D0D
 9D08  A9 06     LDA  #$06
 9D0A  4C C7 BA  JMP  $BAC7
 9D0D  E8        INX  
 9D0E  E8        INX  
 9D0F  80 D0     BRA  $9CE1
 9D11  A5 08     LDA  $08
 9D13  18        CLC  
 9D14  65 0C     ADC  $0C
 9D16  85 24     STA  $24
 9D18  A5 09     LDA  $09
 9D1A  65 0D     ADC  $0D
 9D1C  85 25     STA  $25
 9D1E  B2 24     LDA  ($24)
 9D20  24 26     BIT  $26
 9D22  30 03     BMI  $9D27
 9D24  4C DF 9D  JMP  $9DDF
 9D27  24 27     BIT  $27
 9D29  30 03     BMI  $9D2E
 9D2B  4C D5 9D  JMP  $9DD5
 9D2E  70 22     BVS  $9D52
 9D30  A9 01     LDA  #$01
 9D32  24 27     BIT  $27
 9D34  D0 10     BNE  $9D46
 9D36  E6 27     INC  $27
 9D38  B2 24     LDA  ($24)
 9D3A  20 08 9B  JSR  $9B08
 9D3D  0A        ASL  
 9D3E  0A        ASL  
 9D3F  0A        ASL  
 9D40  0A        ASL  
 9D41  85 28     STA  $28
 9D43  4C E6 9D  JMP  $9DE6
 9D46  64 27     STZ  $27
 9D48  B2 24     LDA  ($24)
 9D4A  20 08 9B  JSR  $9B08
 9D4D  05 28     ORA  $28
 9D4F  4C E3 9D  JMP  $9DE3
 9D52  64 27     STZ  $27
 9D54  C9 61     CMP  #$61
 9D56  D0 05     BNE  $9D5D
 9D58  A9 07     LDA  #$07
 9D5A  4C E3 9D  JMP  $9DE3
 9D5D  C9 62     CMP  #$62
 9D5F  D0 05     BNE  $9D66
 9D61  A9 08     LDA  #$08
 9D63  4C E3 9D  JMP  $9DE3
 9D66  C9 65     CMP  #$65
 9D68  D0 04     BNE  $9D6E
 9D6A  A9 1B     LDA  #$1B
 9D6C  80 75     BRA  $9DE3
 9D6E  C9 66     CMP  #$66
 9D70  D0 04     BNE  $9D76
 9D72  A9 0C     LDA  #$0C
 9D74  80 6D     BRA  $9DE3
 9D76  C9 6C     CMP  #$6C
 9D78  D0 04     BNE  $9D7E
 9D7A  A9 0A     LDA  #$0A
 9D7C  80 65     BRA  $9DE3
 9D7E  C9 6D     CMP  #$6D
 9D80  D0 09     BNE  $9D8B
 9D82  A9 0D     LDA  #$0D
 9D84  20 64 B9  JSR  $B964
 9D87  A9 0A     LDA  #$0A
 9D89  80 58     BRA  $9DE3
 9D8B  C9 6E     CMP  #$6E
 9D8D  D0 04     BNE  $9D93
 9D8F  A9 0A     LDA  #$0A
 9D91  80 50     BRA  $9DE3
 9D93  C9 71     CMP  #$71
 9D95  D0 04     BNE  $9D9B
 9D97  A9 22     LDA  #$22
 9D99  80 48     BRA  $9DE3
 9D9B  C9 72     CMP  #$72
 9D9D  D0 04     BNE  $9DA3
 9D9F  A9 0D     LDA  #$0D
 9DA1  80 40     BRA  $9DE3
 9DA3  C9 74     CMP  #$74
 9DA5  D0 04     BNE  $9DAB
 9DA7  A9 09     LDA  #$09
 9DA9  80 38     BRA  $9DE3
 9DAB  C9 76     CMP  #$76
 9DAD  D0 04     BNE  $9DB3
 9DAF  A9 0B     LDA  #$0B
 9DB1  80 30     BRA  $9DE3
 9DB3  C9 7A     CMP  #$7A
 9DB5  D0 04     BNE  $9DBB
 9DB7  A9 00     LDA  #$00
 9DB9  80 28     BRA  $9DE3
 9DBB  C9 22     CMP  #$22
 9DBD  D0 04     BNE  $9DC3
 9DBF  A9 22     LDA  #$22
 9DC1  80 20     BRA  $9DE3
 9DC3  C9 78     CMP  #$78
 9DC5  D0 06     BNE  $9DCD
 9DC7  A9 BE     LDA  #$BE
 9DC9  85 27     STA  $27
 9DCB  80 19     BRA  $9DE6
 9DCD  C9 5C     CMP  #$5C
 9DCF  D0 04     BNE  $9DD5
 9DD1  A9 5C     LDA  #$5C
 9DD3  80 0E     BRA  $9DE3
 9DD5  C9 5C     CMP  #$5C
 9DD7  D0 06     BNE  $9DDF
 9DD9  A9 FF     LDA  #$FF
 9DDB  85 27     STA  $27
 9DDD  80 07     BRA  $9DE6
 9DDF  C9 22     CMP  #$22
 9DE1  F0 0C     BEQ  $9DEF
 9DE3  20 64 B9  JSR  $B964
 9DE6  E6 0C     INC  $0C
 9DE8  D0 02     BNE  $9DEC
 9DEA  E6 0D     INC  $0D
 9DEC  4C E1 9C  JMP  $9CE1
 9DEF  E6 0C     INC  $0C
 9DF1  D0 02     BNE  $9DF5
 9DF3  E6 0D     INC  $0D
 9DF5  A5 00     LDA  $00
 9DF7  38        SEC  
 9DF8  F5 02     SBC  $02, X
 9DFA  95 00     STA  $00, X
 9DFC  A5 01     LDA  $01
 9DFE  F5 03     SBC  $03, X
 9E00  95 01     STA  $01, X
 9E02  B5 02     LDA  $02, X
 9E04  38        SEC  
 9E05  E9 02     SBC  #$02
 9E07  85 24     STA  $24
 9E09  B5 03     LDA  $03, X
 9E0B  E9 00     SBC  #$00
 9E0D  85 25     STA  $25
 9E0F  A5 00     LDA  $00
 9E11  92 24     STA  ($24)
 9E13  A0 01     LDY  #$01
 9E15  A5 01     LDA  $01
 9E17  91 24     STA  ($24), Y
 9E19  A5 16     LDA  $16
 9E1B  05 17     ORA  $17
 9E1D  F0 03     BEQ  $9E22
 9E1F  20 06 A0  JSR  $A006
 9E22  60        RTS  
 9E23  20 B1 BA  JSR  $BAB1
 9E26  CA        DEX  
 9E27  CA        DEX  
 9E28  74 00     STZ  $00, X
 9E2A  74 01     STZ  $01, X
 9E2C  B5 03     LDA  $03, X
 9E2E  10 04     BPL  $9E34
 9E30  D6 00     DEC  $00, X
 9E32  D6 01     DEC  $01, X
 9E34  60        RTS  
 9E35  A0 2C     LDY  #$2C
 9E37  B1 1E     LDA  ($1E), Y
 9E39  C9 03     CMP  #$03
 9E3B  D0 12     BNE  $9E4F
 9E3D  20 A3 83  JSR  $83A3
 9E40  20 95 85  JSR  $8595
 9E43  20 65 8F  JSR  $8F65
 9E46  20 50 85  JSR  $8550
 9E49  A9 01     LDA  #$01
 9E4B  A0 2C     LDY  #$2C
 9E4D  91 1E     STA  ($1E), Y
 9E4F  60        RTS  
 9E50  CA        DEX  
 9E51  CA        DEX  
 9E52  18        CLC  
 9E53  A5 1E     LDA  $1E
 9E55  69 02     ADC  #$02
 9E57  95 00     STA  $00, X
 9E59  A5 1F     LDA  $1F
 9E5B  69 00     ADC  #$00
 9E5D  95 01     STA  $01, X
 9E5F  60        RTS  
 9E60  20 C0 BA  JSR  $BAC0
 9E63  B5 00     LDA  $00, X
 9E65  15 01     ORA  $01, X
 9E67  D0 0B     BNE  $9E74
 9E69  E8        INX  
 9E6A  E8        INX  
 9E6B  A9 FF     LDA  #$FF
 9E6D  95 00     STA  $00, X
 9E6F  95 01     STA  $01, X
 9E71  4C FE 9E  JMP  $9EFE
 9E74  20 14 A7  JSR  $A714
 9E77  18        CLC  
 9E78  B5 00     LDA  $00, X
 9E7A  75 02     ADC  $02, X
 9E7C  85 24     STA  $24
 9E7E  B5 01     LDA  $01, X
 9E80  75 03     ADC  $03, X
 9E82  D5 07     CMP  $07, X
 9E84  90 12     BCC  $9E98
 9E86  D0 06     BNE  $9E8E
 9E88  B5 06     LDA  $06, X
 9E8A  C5 24     CMP  $24
 9E8C  B0 0A     BCS  $9E98
 9E8E  E8        INX  
 9E8F  E8        INX  
 9E90  E8        INX  
 9E91  E8        INX  
 9E92  74 00     STZ  $00, X
 9E94  74 01     STZ  $01, X
 9E96  80 66     BRA  $9EFE
 9E98  18        CLC  
 9E99  B5 08     LDA  $08, X
 9E9B  75 00     ADC  $00, X
 9E9D  85 24     STA  $24
 9E9F  B5 09     LDA  $09, X
 9EA1  75 01     ADC  $01, X
 9EA3  85 25     STA  $25
 9EA5  B5 04     LDA  $04, X
 9EA7  85 26     STA  $26
 9EA9  B5 05     LDA  $05, X
 9EAB  85 27     STA  $27
 9EAD  B5 02     LDA  $02, X
 9EAF  85 28     STA  $28
 9EB1  B5 03     LDA  $03, X
 9EB3  85 29     STA  $29
 9EB5  B2 24     LDA  ($24)
 9EB7  D2 26     CMP  ($26)
 9EB9  F0 05     BEQ  $9EC0
 9EBB  20 94 97  JSR  $9794
 9EBE  80 B7     BRA  $9E77
 9EC0  E6 24     INC  $24
 9EC2  D0 02     BNE  $9EC6
 9EC4  E6 25     INC  $25
 9EC6  E6 26     INC  $26
 9EC8  D0 02     BNE  $9ECC
 9ECA  E6 27     INC  $27
 9ECC  A5 28     LDA  $28
 9ECE  D0 02     BNE  $9ED2
 9ED0  C6 29     DEC  $29
 9ED2  C6 28     DEC  $28
 9ED4  A5 28     LDA  $28
 9ED6  05 29     ORA  $29
 9ED8  D0 DB     BNE  $9EB5
 9EDA  18        CLC  
 9EDB  B5 00     LDA  $00, X
 9EDD  75 08     ADC  $08, X
 9EDF  95 08     STA  $08, X
 9EE1  B5 01     LDA  $01, X
 9EE3  75 09     ADC  $09, X
 9EE5  95 09     STA  $09, X
 9EE7  38        SEC  
 9EE8  B5 06     LDA  $06, X
 9EEA  F5 00     SBC  $00, X
 9EEC  95 06     STA  $06, X
 9EEE  B5 07     LDA  $07, X
 9EF0  F5 01     SBC  $01, X
 9EF2  95 07     STA  $07, X
 9EF4  E8        INX  
 9EF5  E8        INX  
 9EF6  E8        INX  
 9EF7  E8        INX  
 9EF8  A9 FF     LDA  #$FF
 9EFA  95 00     STA  $00, X
 9EFC  95 01     STA  $01, X
 9EFE  60        RTS  
 9EFF  24 20     BIT  $20
 9F01  70 11     BVS  $9F14
 9F03  A9 60     LDA  #$60
 9F05  20 64 B9  JSR  $B964
 9F08  CA        DEX  
 9F09  CA        DEX  
 9F0A  A5 04     LDA  $04
 9F0C  95 00     STA  $00, X
 9F0E  A5 05     LDA  $05
 9F10  95 01     STA  $01, X
 9F12  80 45     BRA  $9F59
 9F14  A0 06     LDY  #$06
 9F16  A5 00     LDA  $00
 9F18  91 04     STA  ($04), Y
 9F1A  C8        INY  
 9F1B  A5 01     LDA  $01
 9F1D  91 04     STA  ($04), Y
 9F1F  A9 60     LDA  #$60
 9F21  20 64 B9  JSR  $B964
 9F24  24 20     BIT  $20
 9F26  10 26     BPL  $9F4E
 9F28  CA        DEX  
 9F29  CA        DEX  
 9F2A  CA        DEX  
 9F2B  CA        DEX  
 9F2C  B2 04     LDA  ($04)
 9F2E  95 00     STA  $00, X
 9F30  74 01     STZ  $01, X
 9F32  A5 04     LDA  $04
 9F34  18        CLC  
 9F35  69 08     ADC  #$08
 9F37  95 02     STA  $02, X
 9F39  A5 05     LDA  $05
 9F3B  69 00     ADC  #$00
 9F3D  95 03     STA  $03, X
 9F3F  A9 02     LDA  #$02
 9F41  20 DD BA  JSR  $BADD
 9F44  20 70 A4  JSR  $A470
 9F47  20 95 A0  JSR  $A095
 9F4A  A9 80     LDA  #$80
 9F4C  14 20     TRB  $20
 9F4E  A5 04     LDA  $04
 9F50  85 02     STA  $02
 9F52  A5 05     LDA  $05
 9F54  85 03     STA  $03
 9F56  20 06 BA  JSR  $BA06
 9F59  64 16     STZ  $16
 9F5B  64 17     STZ  $17
 9F5D  60        RTS  
 9F5E  20 B1 BA  JSR  $BAB1
 9F61  B5 01     LDA  $01, X
 9F63  30 04     BMI  $9F69
 9F65  E8        INX  
 9F66  E8        INX  
 9F67  80 09     BRA  $9F72
 9F69  A9 2D     LDA  #$2D
 9F6B  95 00     STA  $00, X
 9F6D  74 01     STZ  $01, X
 9F6F  20 BC 91  JSR  $91BC
 9F72  60        RTS  
 9F73  A9 00     LDA  #$00
 9F75  48        PHA  
 9F76  80 03     BRA  $9F7B
 9F78  A9 FF     LDA  #$FF
 9F7A  48        PHA  
 9F7B  20 DD A2  JSR  $A2DD
 9F7E  20 23 9E  JSR  $9E23
 9F81  20 09 9A  JSR  $9A09
 9F84  20 4C A0  JSR  $A04C
 9F87  68        PLA  
 9F88  D0 05     BNE  $9F8F
 9F8A  20 1B A1  JSR  $A11B
 9F8D  E8        INX  
 9F8E  E8        INX  
 9F8F  60        RTS  
 9F90  20 BB BA  JSR  $BABB
 9F93  18        CLC  
 9F94  B5 00     LDA  $00, X
 9F96  75 04     ADC  $04, X
 9F98  95 04     STA  $04, X
 9F9A  B5 01     LDA  $01, X
 9F9C  75 05     ADC  $05, X
 9F9E  95 05     STA  $05, X
 9FA0  38        SEC  
 9FA1  B5 02     LDA  $02, X
 9FA3  F5 00     SBC  $00, X
 9FA5  95 02     STA  $02, X
 9FA7  B5 03     LDA  $03, X
 9FA9  F5 01     SBC  $01, X
 9FAB  95 03     STA  $03, X
 9FAD  E8        INX  
 9FAE  E8        INX  
 9FAF  60        RTS  
 9FB0  20 B6 BA  JSR  $BAB6
 9FB3  A9 4C     LDA  #$4C
 9FB5  20 64 B9  JSR  $B964
 9FB8  20 64 B9  JSR  $B964
 9FBB  20 64 B9  JSR  $B964
 9FBE  8A        TXA  
 9FBF  38        SEC  
 9FC0  E9 06     SBC  #$06
 9FC2  AA        TAX  
 9FC3  B5 08     LDA  $08, X
 9FC5  95 04     STA  $04, X
 9FC7  B5 09     LDA  $09, X
 9FC9  95 05     STA  $05, X
 9FCB  B5 06     LDA  $06, X
 9FCD  95 00     STA  $00, X
 9FCF  B5 07     LDA  $07, X
 9FD1  95 01     STA  $01, X
 9FD3  A5 00     LDA  $00
 9FD5  95 08     STA  $08, X
 9FD7  95 02     STA  $02, X
 9FD9  A5 01     LDA  $01
 9FDB  95 09     STA  $09, X
 9FDD  95 03     STA  $03, X
 9FDF  20 A7 95  JSR  $95A7
 9FE2  18        CLC  
 9FE3  A5 00     LDA  $00
 9FE5  75 00     ADC  $00, X
 9FE7  85 00     STA  $00
 9FE9  A5 01     LDA  $01
 9FEB  75 01     ADC  $01, X
 9FED  85 01     STA  $01
 9FEF  B5 02     LDA  $02, X
 9FF1  38        SEC  
 9FF2  E9 02     SBC  #$02
 9FF4  85 24     STA  $24
 9FF6  B5 03     LDA  $03, X
 9FF8  E9 00     SBC  #$00
 9FFA  85 25     STA  $25
 9FFC  A5 00     LDA  $00
 9FFE  92 24     STA  ($24)
 A000  A0 01     LDY  #$01
 A002  A5 01     LDA  $01
 A004  91 24     STA  ($24), Y
 A006  A0 A0     LDY  #$A0
 A008  A9 20     LDA  #$20
 A00A  20 54 B9  JSR  $B954
 A00D  B4 03     LDY  $03, X
 A00F  B5 02     LDA  $02, X
 A011  20 60 B9  JSR  $B960
 A014  B4 01     LDY  $01, X
 A016  B5 00     LDA  $00, X
 A018  20 60 B9  JSR  $B960
 A01B  E8        INX  
 A01C  E8        INX  
 A01D  E8        INX  
 A01E  E8        INX  
 A01F  60        RTS  
 A020  CA        DEX  
 A021  CA        DEX  
 A022  CA        DEX  
 A023  CA        DEX  
 A024  68        PLA  
 A025  85 24     STA  $24
 A027  68        PLA  
 A028  85 25     STA  $25
 A02A  A0 01     LDY  #$01
 A02C  B1 24     LDA  ($24), Y
 A02E  95 02     STA  $02, X
 A030  C8        INY  
 A031  B1 24     LDA  ($24), Y
 A033  95 03     STA  $03, X
 A035  C8        INY  
 A036  B1 24     LDA  ($24), Y
 A038  95 00     STA  $00, X
 A03A  C8        INY  
 A03B  B1 24     LDA  ($24), Y
 A03D  95 01     STA  $01, X
 A03F  18        CLC  
 A040  A5 24     LDA  $24
 A042  69 04     ADC  #$04
 A044  A8        TAY  
 A045  A5 25     LDA  $25
 A047  69 00     ADC  #$00
 A049  48        PHA  
 A04A  5A        PHY  
 A04B  60        RTS  
 A04C  20 BB BA  JSR  $BABB
 A04F  B5 03     LDA  $03, X
 A051  48        PHA  
 A052  B5 01     LDA  $01, X
 A054  55 03     EOR  $03, X
 A056  48        PHA  
 A057  20 39 81  JSR  $8139
 A05A  E8        INX  
 A05B  E8        INX  
 A05C  20 76 8A  JSR  $8A76
 A05F  CA        DEX  
 A060  CA        DEX  
 A061  20 27 A5  JSR  $A527
 A064  68        PLA  
 A065  10 03     BPL  $A06A
 A067  20 08 96  JSR  $9608
 A06A  68        PLA  
 A06B  10 07     BPL  $A074
 A06D  E8        INX  
 A06E  E8        INX  
 A06F  20 08 96  JSR  $9608
 A072  CA        DEX  
 A073  CA        DEX  
 A074  60        RTS  
 A075  CA        DEX  
 A076  CA        DEX  
 A077  A5 08     LDA  $08
 A079  95 00     STA  $00, X
 A07B  A5 09     LDA  $09
 A07D  95 01     STA  $01, X
 A07F  CA        DEX  
 A080  CA        DEX  
 A081  A5 0A     LDA  $0A
 A083  95 00     STA  $00, X
 A085  A5 0B     LDA  $0B
 A087  95 01     STA  $01, X
 A089  60        RTS  
 A08A  CA        DEX  
 A08B  CA        DEX  
 A08C  A5 06     LDA  $06
 A08E  95 00     STA  $00, X
 A090  A5 07     LDA  $07
 A092  95 01     STA  $01, X
 A094  60        RTS  
 A095  A9 20     LDA  #$20
 A097  20 DB 8D  JSR  $8DDB
 A09A  60        RTS  
 A09B  20 B1 BA  JSR  $BAB1
 A09E  B5 00     LDA  $00, X
 A0A0  15 01     ORA  $01, X
 A0A2  F0 26     BEQ  $A0CA
 A0A4  A9 20     LDA  #$20
 A0A6  B4 01     LDY  $01, X
 A0A8  D0 0A     BNE  $A0B4
 A0AA  B4 00     LDY  $00, X
 A0AC  20 DB 8D  JSR  $8DDB
 A0AF  88        DEY  
 A0B0  F0 18     BEQ  $A0CA
 A0B2  80 F8     BRA  $A0AC
 A0B4  B4 00     LDY  $00, X
 A0B6  F0 06     BEQ  $A0BE
 A0B8  20 DB 8D  JSR  $8DDB
 A0BB  88        DEY  
 A0BC  80 F8     BRA  $A0B6
 A0BE  A0 00     LDY  #$00
 A0C0  20 DB 8D  JSR  $8DDB
 A0C3  88        DEY  
 A0C4  D0 FA     BNE  $A0C0
 A0C6  D6 01     DEC  $01, X
 A0C8  D0 F4     BNE  $A0BE
 A0CA  E8        INX  
 A0CB  E8        INX  
 A0CC  60        RTS  
 A0CD  20 B6 BA  JSR  $BAB6
 A0D0  20 69 A5  JSR  $A569
 A0D3  E8        INX  
 A0D4  E8        INX  
 A0D5  60        RTS  
 A0D6  20 DF A0  JSR  $A0DF
 A0D9  20 1B A1  JSR  $A11B
 A0DC  E8        INX  
 A0DD  E8        INX  
 A0DE  60        RTS  
 A0DF  20 BB BA  JSR  $BABB
 A0E2  20 DD A2  JSR  $A2DD
 A0E5  20 73 94  JSR  $9473
 A0E8  20 09 9A  JSR  $9A09
 A0EB  20 4C A0  JSR  $A04C
 A0EE  60        RTS  
 A0EF  CA        DEX  
 A0F0  CA        DEX  
 A0F1  A9 16     LDA  #$16
 A0F3  95 00     STA  $00, X
 A0F5  A9 00     LDA  #$00
 A0F7  95 01     STA  $01, X
 A0F9  60        RTS  
 A0FA  20 B6 BA  JSR  $BAB6
 A0FD  B5 02     LDA  $02, X
 A0FF  81 00     STA  ($00, X)
 A101  F6 00     INC  $00, X
 A103  D0 02     BNE  $A107
 A105  F6 01     INC  $01, X
 A107  B5 03     LDA  $03, X
 A109  81 00     STA  ($00, X)
 A10B  E8        INX  
 A10C  E8        INX  
 A10D  E8        INX  
 A10E  E8        INX  
 A10F  60        RTS  
 A110  CA        DEX  
 A111  CA        DEX  
 A112  A9 1C     LDA  #$1C
 A114  95 00     STA  $00, X
 A116  A9 00     LDA  #$00
 A118  95 01     STA  $01, X
 A11A  60        RTS  
 A11B  20 B6 BA  JSR  $BAB6
 A11E  B5 00     LDA  $00, X
 A120  B4 02     LDY  $02, X
 A122  95 02     STA  $02, X
 A124  94 00     STY  $00, X
 A126  B5 01     LDA  $01, X
 A128  B4 03     LDY  $03, X
 A12A  95 03     STA  $03, X
 A12C  94 01     STY  $01, X
 A12E  60        RTS  
 A12F  20 57 91  JSR  $9157
 A132  20 1B A1  JSR  $A11B
 A135  20 FA A0  JSR  $A0FA
 A138  60        RTS  
 A139  20 B6 BA  JSR  $BAB6
 A13C  B5 01     LDA  $01, X
 A13E  48        PHA  
 A13F  B5 00     LDA  $00, X
 A141  48        PHA  
 A142  E8        INX  
 A143  E8        INX  
 A144  B5 01     LDA  $01, X
 A146  48        PHA  
 A147  B5 00     LDA  $00, X
 A149  48        PHA  
 A14A  20 9C 93  JSR  $939C
 A14D  68        PLA  
 A14E  85 24     STA  $24
 A150  68        PLA  
 A151  85 25     STA  $25
 A153  68        PLA  
 A154  85 26     STA  $26
 A156  68        PLA  
 A157  85 27     STA  $27
 A159  C5 25     CMP  $25
 A15B  D0 08     BNE  $A165
 A15D  A5 26     LDA  $26
 A15F  C5 24     CMP  $24
 A161  D0 02     BNE  $A165
 A163  80 18     BRA  $A17D
 A165  A5 27     LDA  $27
 A167  48        PHA  
 A168  A5 26     LDA  $26
 A16A  48        PHA  
 A16B  E6 24     INC  $24
 A16D  D0 02     BNE  $A171
 A16F  E6 25     INC  $25
 A171  CA        DEX  
 A172  CA        DEX  
 A173  A5 24     LDA  $24
 A175  95 00     STA  $00, X
 A177  A5 25     LDA  $25
 A179  95 01     STA  $01, X
 A17B  80 C7     BRA  $A144
 A17D  60        RTS  
 A17E  20 56 98  JSR  $9856
 A181  B5 00     LDA  $00, X
 A183  15 01     ORA  $01, X
 A185  D0 05     BNE  $A18C
 A187  A9 05     LDA  #$05
 A189  4C C7 BA  JMP  $BAC7
 A18C  20 C0 8F  JSR  $8FC0
 A18F  B5 00     LDA  $00, X
 A191  15 01     ORA  $01, X
 A193  D0 05     BNE  $A19A
 A195  A9 08     LDA  #$08
 A197  4C C7 BA  JMP  $BAC7
 A19A  20 C6 95  JSR  $95C6
 A19D  60        RTS  
 A19E  20 7E A1  JSR  $A17E
 A1A1  B5 00     LDA  $00, X
 A1A3  18        CLC  
 A1A4  69 03     ADC  #$03
 A1A6  85 24     STA  $24
 A1A8  B5 01     LDA  $01, X
 A1AA  69 00     ADC  #$00
 A1AC  85 25     STA  $25
 A1AE  E8        INX  
 A1AF  E8        INX  
 A1B0  A5 16     LDA  $16
 A1B2  05 17     ORA  $17
 A1B4  F0 34     BEQ  $A1EA
 A1B6  A0 00     LDY  #$00
 A1B8  A9 B5     LDA  #$B5
 A1BA  20 60 B9  JSR  $B960
 A1BD  A9 8D     LDA  #$8D
 A1BF  20 64 B9  JSR  $B964
 A1C2  A4 25     LDY  $25
 A1C4  A5 24     LDA  $24
 A1C6  20 60 B9  JSR  $B960
 A1C9  A0 01     LDY  #$01
 A1CB  A9 B5     LDA  #$B5
 A1CD  20 60 B9  JSR  $B960
 A1D0  A9 8D     LDA  #$8D
 A1D2  20 64 B9  JSR  $B964
 A1D5  E6 24     INC  $24
 A1D7  D0 02     BNE  $A1DB
 A1D9  E6 25     INC  $25
 A1DB  A4 25     LDY  $25
 A1DD  A5 24     LDA  $24
 A1DF  20 60 B9  JSR  $B960
 A1E2  A0 E8     LDY  #$E8
 A1E4  98        TYA  
 A1E5  20 60 B9  JSR  $B960
 A1E8  80 0F     BRA  $A1F9
 A1EA  20 B1 BA  JSR  $BAB1
 A1ED  B5 00     LDA  $00, X
 A1EF  92 24     STA  ($24)
 A1F1  A0 01     LDY  #$01
 A1F3  B5 01     LDA  $01, X
 A1F5  91 24     STA  ($24), Y
 A1F7  E8        INX  
 A1F8  E8        INX  
 A1F9  60        RTS  
 A1FA  20 B1 BA  JSR  $BAB1
 A1FD  20 98 8D  JSR  $8D98
 A200  20 5D 92  JSR  $925D
 A203  F6 00     INC  $00, X
 A205  D0 02     BNE  $A209
 A207  F6 01     INC  $01, X
 A209  A1 00     LDA  ($00, X)
 A20B  29 20     AND  #$20
 A20D  F0 0D     BEQ  $A21C
 A20F  18        CLC  
 A210  B5 02     LDA  $02, X
 A212  69 03     ADC  #$03
 A214  95 02     STA  $02, X
 A216  B5 03     LDA  $03, X
 A218  69 00     ADC  #$00
 A21A  95 03     STA  $03, X
 A21C  E8        INX  
 A21D  E8        INX  
 A21E  60        RTS  
 A21F  CA        DEX  
 A220  CA        DEX  
 A221  A9 0C     LDA  #$0C
 A223  95 00     STA  $00, X
 A225  A9 00     LDA  #$00
 A227  95 01     STA  $01, X
 A229  60        RTS  
 A22A  20 C0 BA  JSR  $BAC0
 A22D  B5 06     LDA  $06, X
 A22F  85 36     STA  $36
 A231  B5 07     LDA  $07, X
 A233  85 37     STA  $37
 A235  B5 04     LDA  $04, X
 A237  85 38     STA  $38
 A239  B5 05     LDA  $05, X
 A23B  85 39     STA  $39
 A23D  CA        DEX  
 A23E  CA        DEX  
 A23F  A1 04     LDA  ($04, X)
 A241  95 00     STA  $00, X
 A243  74 01     STZ  $01, X
 A245  20 F5 8A  JSR  $8AF5
 A248  B5 00     LDA  $00, X
 A24A  D0 04     BNE  $A250
 A24C  E8        INX  
 A24D  E8        INX  
 A24E  80 67     BRA  $A2B7
 A250  B5 02     LDA  $02, X
 A252  85 3A     STA  $3A
 A254  B5 03     LDA  $03, X
 A256  85 3B     STA  $3B
 A258  A5 38     LDA  $38
 A25A  95 02     STA  $02, X
 A25C  A5 39     LDA  $39
 A25E  95 03     STA  $03, X
 A260  A5 18     LDA  $18
 A262  95 00     STA  $00, X
 A264  74 01     STZ  $01, X
 A266  20 69 A5  JSR  $A569
 A269  B5 02     LDA  $02, X
 A26B  85 3C     STA  $3C
 A26D  B5 03     LDA  $03, X
 A26F  85 3D     STA  $3D
 A271  A5 36     LDA  $36
 A273  95 02     STA  $02, X
 A275  A5 37     LDA  $37
 A277  95 03     STA  $03, X
 A279  A5 18     LDA  $18
 A27B  95 00     STA  $00, X
 A27D  74 01     STZ  $01, X
 A27F  20 69 A5  JSR  $A569
 A282  B5 00     LDA  $00, X
 A284  85 38     STA  $38
 A286  B5 01     LDA  $01, X
 A288  85 39     STA  $39
 A28A  B5 02     LDA  $02, X
 A28C  85 36     STA  $36
 A28E  B5 03     LDA  $03, X
 A290  85 37     STA  $37
 A292  18        CLC  
 A293  A5 36     LDA  $36
 A295  65 3A     ADC  $3A
 A297  85 36     STA  $36
 A299  A5 37     LDA  $37
 A29B  65 3B     ADC  $3B
 A29D  85 37     STA  $37
 A29F  A5 38     LDA  $38
 A2A1  65 3C     ADC  $3C
 A2A3  85 38     STA  $38
 A2A5  A5 39     LDA  $39
 A2A7  65 3D     ADC  $3D
 A2A9  85 39     STA  $39
 A2AB  E8        INX  
 A2AC  E8        INX  
 A2AD  F6 04     INC  $04, X
 A2AF  D0 02     BNE  $A2B3
 A2B1  F6 05     INC  $05, X
 A2B3  D6 02     DEC  $02, X
 A2B5  D0 88     BNE  $A23F
 A2B7  E8        INX  
 A2B8  E8        INX  
 A2B9  A5 36     LDA  $36
 A2BB  95 06     STA  $06, X
 A2BD  A5 37     LDA  $37
 A2BF  95 07     STA  $07, X
 A2C1  A5 38     LDA  $38
 A2C3  95 04     STA  $04, X
 A2C5  A5 39     LDA  $39
 A2C7  95 05     STA  $05, X
 A2C9  60        RTS  
 A2CA  20 DD A2  JSR  $A2DD
 A2CD  20 19 91  JSR  $9119
 A2D0  20 09 9A  JSR  $9A09
 A2D3  20 1B A1  JSR  $A11B
 A2D6  20 94 97  JSR  $9794
 A2D9  20 92 9C  JSR  $9C92
 A2DC  60        RTS  
 A2DD  68        PLA  
 A2DE  85 2C     STA  $2C
 A2E0  7A        PLY  
 A2E1  20 B1 BA  JSR  $BAB1
 A2E4  B5 01     LDA  $01, X
 A2E6  48        PHA  
 A2E7  B5 00     LDA  $00, X
 A2E9  48        PHA  
 A2EA  E8        INX  
 A2EB  E8        INX  
 A2EC  5A        PHY  
 A2ED  A5 2C     LDA  $2C
 A2EF  48        PHA  
 A2F0  60        RTS  
 A2F1  CA        DEX  
 A2F2  CA        DEX  
 A2F3  A9 FF     LDA  #$FF
 A2F5  95 00     STA  $00, X
 A2F7  95 01     STA  $01, X
 A2F9  60        RTS  
 A2FA  20 B6 BA  JSR  $BAB6
 A2FD  CA        DEX  
 A2FE  CA        DEX  
 A2FF  B4 04     LDY  $04, X
 A301  B5 02     LDA  $02, X
 A303  95 04     STA  $04, X
 A305  94 02     STY  $02, X
 A307  95 00     STA  $00, X
 A309  B4 05     LDY  $05, X
 A30B  B5 03     LDA  $03, X
 A30D  95 05     STA  $05, X
 A30F  94 03     STY  $03, X
 A311  95 01     STA  $01, X
 A313  60        RTS  
 A314  CA        DEX  
 A315  CA        DEX  
 A316  A9 02     LDA  #$02
 A318  95 00     STA  $00, X
 A31A  74 01     STZ  $01, X
 A31C  60        RTS  
 A31D  20 B6 BA  JSR  $BAB6
 A320  E8        INX  
 A321  E8        INX  
 A322  E8        INX  
 A323  E8        INX  
 A324  60        RTS  
 A325  20 B6 BA  JSR  $BAB6
 A328  CA        DEX  
 A329  CA        DEX  
 A32A  CA        DEX  
 A32B  CA        DEX  
 A32C  B5 04     LDA  $04, X
 A32E  95 00     STA  $00, X
 A330  B5 05     LDA  $05, X
 A332  95 01     STA  $01, X
 A334  B5 06     LDA  $06, X
 A336  95 02     STA  $02, X
 A338  B5 07     LDA  $07, X
 A33A  95 03     STA  $03, X
 A33C  60        RTS  
 A33D  20 B1 BA  JSR  $BAB1
 A340  B5 00     LDA  $00, X
 A342  85 24     STA  $24
 A344  B4 01     LDY  $01, X
 A346  84 25     STY  $25
 A348  CA        DEX  
 A349  CA        DEX  
 A34A  B2 24     LDA  ($24)
 A34C  95 00     STA  $00, X
 A34E  A0 01     LDY  #$01
 A350  B1 24     LDA  ($24), Y
 A352  95 01     STA  $01, X
 A354  C8        INY  
 A355  B1 24     LDA  ($24), Y
 A357  95 02     STA  $02, X
 A359  C8        INY  
 A35A  B1 24     LDA  ($24), Y
 A35C  95 03     STA  $03, X
 A35E  60        RTS  
 A35F  20 C0 BA  JSR  $BAC0
 A362  CA        DEX  
 A363  CA        DEX  
 A364  CA        DEX  
 A365  CA        DEX  
 A366  B5 08     LDA  $08, X
 A368  95 00     STA  $00, X
 A36A  B5 09     LDA  $09, X
 A36C  95 01     STA  $01, X
 A36E  B5 0A     LDA  $0A, X
 A370  95 02     STA  $02, X
 A372  B5 0B     LDA  $0B, X
 A374  95 03     STA  $03, X
 A376  60        RTS  
 A377  CA        DEX  
 A378  CA        DEX  
 A379  CA        DEX  
 A37A  CA        DEX  
 A37B  8A        TXA  
 A37C  BA        TSX  
 A37D  DA        PHX  
 A37E  7A        PLY  
 A37F  AA        TAX  
 A380  B9 03 01  LDA  $0103, Y
 A383  95 00     STA  $00, X
 A385  B9 04 01  LDA  $0104, Y
 A388  95 01     STA  $01, X
 A38A  B9 05 01  LDA  $0105, Y
 A38D  95 02     STA  $02, X
 A38F  B9 06 01  LDA  $0106, Y
 A392  95 03     STA  $03, X
 A394  60        RTS  
 A395  68        PLA  
 A396  85 24     STA  $24
 A398  68        PLA  
 A399  85 25     STA  $25
 A39B  CA        DEX  
 A39C  CA        DEX  
 A39D  CA        DEX  
 A39E  CA        DEX  
 A39F  68        PLA  
 A3A0  95 00     STA  $00, X
 A3A2  68        PLA  
 A3A3  95 01     STA  $01, X
 A3A5  68        PLA  
 A3A6  95 02     STA  $02, X
 A3A8  68        PLA  
 A3A9  95 03     STA  $03, X
 A3AB  A5 25     LDA  $25
 A3AD  48        PHA  
 A3AE  A5 24     LDA  $24
 A3B0  48        PHA  
 A3B1  60        RTS  
 A3B2  20 B1 BA  JSR  $BAB1
 A3B5  B5 01     LDA  $01, X
 A3B7  0A        ASL  
 A3B8  76 01     ROR  $01, X
 A3BA  76 00     ROR  $00, X
 A3BC  60        RTS  
 A3BD  20 B1 BA  JSR  $BAB1
 A3C0  16 00     ASL  $00, X
 A3C2  36 01     ROL  $01, X
 A3C4  60        RTS  
 A3C5  20 BB BA  JSR  $BABB
 A3C8  B5 00     LDA  $00, X
 A3CA  85 24     STA  $24
 A3CC  B4 01     LDY  $01, X
 A3CE  84 25     STY  $25
 A3D0  E8        INX  
 A3D1  E8        INX  
 A3D2  B5 00     LDA  $00, X
 A3D4  92 24     STA  ($24)
 A3D6  B5 01     LDA  $01, X
 A3D8  A0 01     LDY  #$01
 A3DA  91 24     STA  ($24), Y
 A3DC  B5 02     LDA  $02, X
 A3DE  C8        INY  
 A3DF  91 24     STA  ($24), Y
 A3E1  B5 03     LDA  $03, X
 A3E3  C8        INY  
 A3E4  91 24     STA  ($24), Y
 A3E6  E8        INX  
 A3E7  E8        INX  
 A3E8  E8        INX  
 A3E9  E8        INX  
 A3EA  60        RTS  
 A3EB  20 C0 BA  JSR  $BAC0
 A3EE  B5 00     LDA  $00, X
 A3F0  B4 04     LDY  $04, X
 A3F2  95 04     STA  $04, X
 A3F4  94 00     STY  $00, X
 A3F6  B5 01     LDA  $01, X
 A3F8  B4 05     LDY  $05, X
 A3FA  95 05     STA  $05, X
 A3FC  94 01     STY  $01, X
 A3FE  B5 02     LDA  $02, X
 A400  B4 06     LDY  $06, X
 A402  95 06     STA  $06, X
 A404  94 02     STY  $02, X
 A406  B5 03     LDA  $03, X
 A408  B4 07     LDY  $07, X
 A40A  95 07     STA  $07, X
 A40C  94 03     STY  $03, X
 A40E  60        RTS  
 A40F  68        PLA  
 A410  85 24     STA  $24
 A412  68        PLA  
 A413  85 25     STA  $25
 A415  20 B6 BA  JSR  $BAB6
 A418  B5 03     LDA  $03, X
 A41A  48        PHA  
 A41B  B5 02     LDA  $02, X
 A41D  48        PHA  
 A41E  B5 01     LDA  $01, X
 A420  48        PHA  
 A421  B5 00     LDA  $00, X
 A423  48        PHA  
 A424  E8        INX  
 A425  E8        INX  
 A426  E8        INX  
 A427  E8        INX  
 A428  A5 25     LDA  $25
 A42A  48        PHA  
 A42B  A5 24     LDA  $24
 A42D  48        PHA  
 A42E  60        RTS  
 A42F  20 B6 BA  JSR  $BAB6
 A432  20 59 89  JSR  $8959
 A435  20 1B A1  JSR  $A11B
 A438  20 5E 87  JSR  $875E
 A43B  20 5E 87  JSR  $875E
 A43E  20 ED 8B  JSR  $8BED
 A441  20 9A B9  JSR  $B99A
 A444  20 98 8D  JSR  $8D98
 A447  20 65 8F  JSR  $8F65
 A44A  20 1B A1  JSR  $A11B
 A44D  20 11 86  JSR  $8611
 A450  20 65 8F  JSR  $8F65
 A453  60        RTS  
 A454  20 B6 BA  JSR  $BAB6
 A457  20 1B A1  JSR  $A11B
 A45A  20 6F 93  JSR  $936F
 A45D  20 6F 93  JSR  $936F
 A460  60        RTS  
 A461  20 59 89  JSR  $8959
 A464  CA        DEX  
 A465  CA        DEX  
 A466  A9 04     LDA  #$04
 A468  95 00     STA  $00, X
 A46A  74 01     STZ  $01, X
 A46C  20 AB 82  JSR  $82AB
 A46F  60        RTS  
 A470  20 B6 BA  JSR  $BAB6
 A473  B5 02     LDA  $02, X
 A475  85 24     STA  $24
 A477  B5 03     LDA  $03, X
 A479  85 25     STA  $25
 A47B  B5 00     LDA  $00, X
 A47D  15 01     ORA  $01, X
 A47F  F0 15     BEQ  $A496
 A481  B2 24     LDA  ($24)
 A483  20 DB 8D  JSR  $8DDB
 A486  E6 24     INC  $24
 A488  D0 02     BNE  $A48C
 A48A  E6 25     INC  $25
 A48C  B5 00     LDA  $00, X
 A48E  D0 02     BNE  $A492
 A490  D6 01     DEC  $01, X
 A492  D6 00     DEC  $00, X
 A494  80 E5     BRA  $A47B
 A496  E8        INX  
 A497  E8        INX  
 A498  E8        INX  
 A499  E8        INX  
 A49A  60        RTS  
 A49B  20 B1 BA  JSR  $BAB1
 A49E  20 FD BA  JSR  $BAFD
 A4A1  A9 20     LDA  #$20
 A4A3  20 DB 8D  JSR  $8DDB
 A4A6  60        RTS  
 A4A7  20 B6 BA  JSR  $BAB6
 A4AA  20 DD A2  JSR  $A2DD
 A4AD  20 14 A7  JSR  $A714
 A4B0  20 3F 93  JSR  $933F
 A4B3  20 55 97  JSR  $9755
 A4B6  20 33 97  JSR  $9733
 A4B9  20 09 9A  JSR  $9A09
 A4BC  20 0A 98  JSR  $980A
 A4BF  20 35 95  JSR  $9535
 A4C2  20 9B A0  JSR  $A09B
 A4C5  20 70 A4  JSR  $A470
 A4C8  60        RTS  
 A4C9  20 B6 BA  JSR  $BAB6
 A4CC  B5 00     LDA  $00, X
 A4CE  D5 02     CMP  $02, X
 A4D0  B5 01     LDA  $01, X
 A4D2  F5 03     SBC  $03, X
 A4D4  E8        INX  
 A4D5  E8        INX  
 A4D6  A9 00     LDA  #$00
 A4D8  69 FF     ADC  #$FF
 A4DA  95 00     STA  $00, X
 A4DC  95 01     STA  $01, X
 A4DE  60        RTS  
 A4DF  20 B6 BA  JSR  $BAB6
 A4E2  B5 02     LDA  $02, X
 A4E4  D5 00     CMP  $00, X
 A4E6  B5 03     LDA  $03, X
 A4E8  F5 01     SBC  $01, X
 A4EA  E8        INX  
 A4EB  E8        INX  
 A4EC  A9 00     LDA  #$00
 A4EE  69 FF     ADC  #$FF
 A4F0  95 00     STA  $00, X
 A4F2  95 01     STA  $01, X
 A4F4  60        RTS  
 A4F5  20 B6 BA  JSR  $BAB6
 A4F8  20 3F 93  JSR  $933F
 A4FB  20 55 97  JSR  $9755
 A4FE  20 33 97  JSR  $9733
 A501  20 70 A4  JSR  $A470
 A504  20 95 A0  JSR  $A095
 A507  60        RTS  
 A508  20 BB BA  JSR  $BABB
 A50B  20 DD A2  JSR  $A2DD
 A50E  20 3F 93  JSR  $933F
 A511  20 55 97  JSR  $9755
 A514  20 33 97  JSR  $9733
 A517  20 09 9A  JSR  $9A09
 A51A  20 0A 98  JSR  $980A
 A51D  20 35 95  JSR  $9535
 A520  20 9B A0  JSR  $A09B
 A523  20 70 A4  JSR  $A470
 A526  60        RTS  
 A527  20 BB BA  JSR  $BABB
 A52A  B5 00     LDA  $00, X
 A52C  15 01     ORA  $01, X
 A52E  D0 05     BNE  $A535
 A530  A9 04     LDA  #$04
 A532  4C C7 BA  JMP  $BAC7
 A535  A9 11     LDA  #$11
 A537  85 2C     STA  $2C
 A539  36 04     ROL  $04, X
 A53B  36 05     ROL  $05, X
 A53D  C6 2C     DEC  $2C
 A53F  F0 22     BEQ  $A563
 A541  36 02     ROL  $02, X
 A543  36 03     ROL  $03, X
 A545  64 24     STZ  $24
 A547  26 24     ROL  $24
 A549  38        SEC  
 A54A  B5 02     LDA  $02, X
 A54C  F5 00     SBC  $00, X
 A54E  85 25     STA  $25
 A550  B5 03     LDA  $03, X
 A552  F5 01     SBC  $01, X
 A554  A8        TAY  
 A555  A5 24     LDA  $24
 A557  E9 00     SBC  #$00
 A559  90 DE     BCC  $A539
 A55B  A5 25     LDA  $25
 A55D  95 02     STA  $02, X
 A55F  94 03     STY  $03, X
 A561  80 D6     BRA  $A539
 A563  E8        INX  
 A564  E8        INX  
 A565  20 1B A1  JSR  $A11B
 A568  60        RTS  
 A569  20 B6 BA  JSR  $BAB6
 A56C  18        CLC  
 A56D  B5 00     LDA  $00, X
 A56F  E9 00     SBC  #$00
 A571  85 26     STA  $26
 A573  B5 01     LDA  $01, X
 A575  E9 00     SBC  #$00
 A577  90 31     BCC  $A5AA
 A579  85 27     STA  $27
 A57B  A9 00     LDA  #$00
 A57D  85 24     STA  $24
 A57F  86 28     STX  $28
 A581  CA        DEX  
 A582  CA        DEX  
 A583  A0 08     LDY  #$08
 A585  56 04     LSR  $04, X
 A587  90 0C     BCC  $A595
 A589  85 25     STA  $25
 A58B  A5 24     LDA  $24
 A58D  65 26     ADC  $26
 A58F  85 24     STA  $24
 A591  A5 25     LDA  $25
 A593  65 27     ADC  $27
 A595  6A        ROR  
 A596  66 24     ROR  $24
 A598  76 04     ROR  $04, X
 A59A  88        DEY  
 A59B  D0 EA     BNE  $A587
 A59D  E8        INX  
 A59E  E4 28     CPX  $28
 A5A0  D0 E1     BNE  $A583
 A5A2  95 01     STA  $01, X
 A5A4  A5 24     LDA  $24
 A5A6  95 00     STA  $00, X
 A5A8  80 04     BRA  $A5AE
 A5AA  74 02     STZ  $02, X
 A5AC  74 03     STZ  $03, X
 A5AE  60        RTS  
 A5AF  68        PLA  
 A5B0  68        PLA  
 A5B1  68        PLA  
 A5B2  68        PLA  
 A5B3  68        PLA  
 A5B4  68        PLA  
 A5B5  60        RTS  
 A5B6  A0 91     LDY  #$91
 A5B8  A9 F9     LDA  #$F9
 A5BA  20 54 B9  JSR  $B954
 A5BD  20 5E 87  JSR  $875E
 A5C0  60        RTS  
 A5C1  CA        DEX  
 A5C2  CA        DEX  
 A5C3  A9 00     LDA  #$00
 A5C5  38        SEC  
 A5C6  E5 00     SBC  $00
 A5C8  95 00     STA  $00, X
 A5CA  A9 7C     LDA  #$7C
 A5CC  E5 01     SBC  $01
 A5CE  95 01     STA  $01, X
 A5D0  60        RTS  
 A5D1  A0 2C     LDY  #$2C
 A5D3  B1 1E     LDA  ($1E), Y
 A5D5  09 02     ORA  #$02
 A5D7  91 1E     STA  ($1E), Y
 A5D9  60        RTS  
 A5DA  CA        DEX  
 A5DB  CA        DEX  
 A5DC  A9 1E     LDA  #$1E
 A5DE  95 00     STA  $00, X
 A5E0  A9 00     LDA  #$00
 A5E2  95 01     STA  $01, X
 A5E4  60        RTS  
 A5E5  20 59 89  JSR  $8959
 A5E8  A9 00     LDA  #$00
 A5EA  92 00     STA  ($00)
 A5EC  E6 00     INC  $00
 A5EE  D0 02     BNE  $A5F2
 A5F0  E6 01     INC  $01
 A5F2  92 00     STA  ($00)
 A5F4  E6 00     INC  $00
 A5F6  D0 02     BNE  $A5FA
 A5F8  E6 01     INC  $01
 A5FA  20 21 89  JSR  $8921
 A5FD  60        RTS  
 A5FE  A0 91     LDY  #$91
 A600  A9 F9     LDA  #$F9
 A602  20 54 B9  JSR  $B954
 A605  20 57 91  JSR  $9157
 A608  20 14 A7  JSR  $A714
 A60B  20 5E 87  JSR  $875E
 A60E  20 1B A1  JSR  $A11B
 A611  60        RTS  
 A612  20 BB BA  JSR  $BABB
 A615  20 0A 98  JSR  $980A
 A618  20 35 95  JSR  $9535
 A61B  20 DD A2  JSR  $A2DD
 A61E  20 35 95  JSR  $9535
 A621  20 09 9A  JSR  $9A09
 A624  20 DF A4  JSR  $A4DF
 A627  60        RTS  
 A628  20 B1 BA  JSR  $BAB1
 A62B  A4 0C     LDY  $0C
 A62D  C4 0A     CPY  $0A
 A62F  F0 09     BEQ  $A63A
 A631  B1 08     LDA  ($08), Y
 A633  D5 00     CMP  $00, X
 A635  D0 03     BNE  $A63A
 A637  C8        INY  
 A638  80 F3     BRA  $A62D
 A63A  84 0C     STY  $0C
 A63C  20 B1 98  JSR  $98B1
 A63F  B5 00     LDA  $00, X
 A641  92 00     STA  ($00)
 A643  48        PHA  
 A644  20 98 8D  JSR  $8D98
 A647  A5 00     LDA  $00
 A649  18        CLC  
 A64A  69 01     ADC  #$01
 A64C  95 02     STA  $02, X
 A64E  A5 01     LDA  $01
 A650  69 00     ADC  #$00
 A652  95 03     STA  $03, X
 A654  20 A7 95  JSR  $95A7
 A657  CA        DEX  
 A658  CA        DEX  
 A659  A5 00     LDA  $00
 A65B  95 00     STA  $00, X
 A65D  A5 01     LDA  $01
 A65F  95 01     STA  $01, X
 A661  68        PLA  
 A662  18        CLC  
 A663  65 00     ADC  $00
 A665  85 00     STA  $00
 A667  A5 01     LDA  $01
 A669  69 00     ADC  #$00
 A66B  85 01     STA  $01
 A66D  60        RTS  
 A66E  A0 05     LDY  #$05
 A670  B1 1E     LDA  ($1E), Y
 A672  C9 0C     CMP  #$0C
 A674  D0 05     BNE  $A67B
 A676  A9 0B     LDA  #$0B
 A678  4C C7 BA  JMP  $BAC7
 A67B  1A        INC  
 A67C  91 1E     STA  ($1E), Y
 A67E  CA        DEX  
 A67F  CA        DEX  
 A680  95 00     STA  $00, X
 A682  74 01     STZ  $01, X
 A684  60        RTS  
 A685  20 53 89  JSR  $8953
 A688  A9 00     LDA  #$00
 A68A  48        PHA  
 A68B  CA        DEX  
 A68C  CA        DEX  
 A68D  64 28     STZ  $28
 A68F  A0 1E     LDY  #$1E
 A691  A5 28     LDA  $28
 A693  D1 1E     CMP  ($1E), Y
 A695  D0 02     BNE  $A699
 A697  80 44     BRA  $A6DD
 A699  18        CLC  
 A69A  69 1F     ADC  #$1F
 A69C  A8        TAY  
 A69D  B1 1E     LDA  ($1E), Y
 A69F  0A        ASL  
 A6A0  18        CLC  
 A6A1  69 06     ADC  #$06
 A6A3  A8        TAY  
 A6A4  B1 1E     LDA  ($1E), Y
 A6A6  95 00     STA  $00, X
 A6A8  C8        INY  
 A6A9  B1 1E     LDA  ($1E), Y
 A6AB  95 01     STA  $01, X
 A6AD  20 98 8D  JSR  $8D98
 A6B0  20 E3 95  JSR  $95E3
 A6B3  68        PLA  
 A6B4  18        CLC  
 A6B5  75 00     ADC  $00, X
 A6B7  1A        INC  
 A6B8  C9 4F     CMP  #$4F
 A6BA  90 05     BCC  $A6C1
 A6BC  20 53 89  JSR  $8953
 A6BF  A9 00     LDA  #$00
 A6C1  48        PHA  
 A6C2  20 70 A4  JSR  $A470
 A6C5  A9 20     LDA  #$20
 A6C7  20 DB 8D  JSR  $8DDB
 A6CA  20 94 97  JSR  $9794
 A6CD  20 94 97  JSR  $9794
 A6D0  20 65 8F  JSR  $8F65
 A6D3  B5 00     LDA  $00, X
 A6D5  15 01     ORA  $01, X
 A6D7  D0 D4     BNE  $A6AD
 A6D9  E6 28     INC  $28
 A6DB  80 B2     BRA  $A68F
 A6DD  68        PLA  
 A6DE  E8        INX  
 A6DF  E8        INX  
 A6E0  60        RTS  
 A6E1  20 B1 BA  JSR  $BAB1
 A6E4  B5 00     LDA  $00, X
 A6E6  85 24     STA  $24
 A6E8  B5 01     LDA  $01, X
 A6EA  85 25     STA  $25
 A6EC  A0 06     LDY  #$06
 A6EE  B1 24     LDA  ($24), Y
 A6F0  88        DEY  
 A6F1  88        DEY  
 A6F2  38        SEC  
 A6F3  F1 24     SBC  ($24), Y
 A6F5  95 00     STA  $00, X
 A6F7  A0 07     LDY  #$07
 A6F9  B1 24     LDA  ($24), Y
 A6FB  88        DEY  
 A6FC  88        DEY  
 A6FD  F1 24     SBC  ($24), Y
 A6FF  95 01     STA  $01, X
 A701  60        RTS  
 A702  20 B6 BA  JSR  $BAB6
 A705  B5 00     LDA  $00, X
 A707  55 02     EOR  $02, X
 A709  95 02     STA  $02, X
 A70B  B5 01     LDA  $01, X
 A70D  55 03     EOR  $03, X
 A70F  95 03     STA  $03, X
 A711  E8        INX  
 A712  E8        INX  
 A713  60        RTS  
 A714  CA        DEX  
 A715  CA        DEX  
 A716  74 00     STZ  $00, X
 A718  74 01     STZ  $01, X
 A71A  60        RTS  
 A71B  20 B1 BA  JSR  $BAB1
 A71E  B5 00     LDA  $00, X
 A720  15 01     ORA  $01, X
 A722  F0 04     BEQ  $A728
 A724  A9 00     LDA  #$00
 A726  80 02     BRA  $A72A
 A728  A9 FF     LDA  #$FF
 A72A  95 00     STA  $00, X
 A72C  95 01     STA  $01, X
 A72E  60        RTS  
 A72F  20 B1 BA  JSR  $BAB1
 A732  A0 00     LDY  #$00
 A734  B5 01     LDA  $01, X
 A736  30 05     BMI  $A73D
 A738  15 00     ORA  $00, X
 A73A  F0 01     BEQ  $A73D
 A73C  88        DEY  
 A73D  98        TYA  
 A73E  95 00     STA  $00, X
 A740  95 01     STA  $01, X
 A742  60        RTS  
 A743  20 B1 BA  JSR  $BAB1
 A746  A0 00     LDY  #$00
 A748  B5 01     LDA  $01, X
 A74A  10 01     BPL  $A74D
 A74C  88        DEY  
 A74D  98        TYA  
 A74E  95 00     STA  $00, X
 A750  95 01     STA  $01, X
 A752  60        RTS  
 A753  20 B1 BA  JSR  $BAB1
 A756  A0 00     LDY  #$00
 A758  B5 00     LDA  $00, X
 A75A  15 01     ORA  $01, X
 A75C  F0 01     BEQ  $A75F
 A75E  88        DEY  
 A75F  98        TYA  
 A760  95 00     STA  $00, X
 A762  95 01     STA  $01, X
 A764  60        RTS  
 A765  20 98 8D  JSR  $8D98
 A768  20 50 9E  JSR  $9E50
 A76B  20 FA A0  JSR  $A0FA
 A76E  20 A5 85  JSR  $85A5
 A771  60        RTS  
 A772  20 65 A7  JSR  $A765
 A775  20 17 8D  JSR  $8D17
 A778  64 2E     STZ  $2E
 A77A  CA        DEX  
 A77B  CA        DEX  
 A77C  A5 2E     LDA  $2E
 A77E  95 00     STA  $00, X
 A780  74 01     STZ  $01, X
 A782  20 47 A8  JSR  $A847
 A785  E6 2E     INC  $2E
 A787  A9 10     LDA  #$10
 A789  C5 2E     CMP  $2E
 A78B  D0 ED     BNE  $A77A
 A78D  60        RTS  
 A78E  20 65 A7  JSR  $A765
 A791  CA        DEX  
 A792  CA        DEX  
 A793  74 00     STZ  $00, X
 A795  A9 04     LDA  #$04
 A797  95 01     STA  $01, X
 A799  20 CF 8E  JSR  $8ECF
 A79C  20 D1 A5  JSR  $A5D1
 A79F  60        RTS  
 A7A0  20 2E A8  JSR  $A82E
 A7A3  CA        DEX  
 A7A4  CA        DEX  
 A7A5  A9 40     LDA  #$40
 A7A7  95 00     STA  $00, X
 A7A9  74 01     STZ  $01, X
 A7AB  20 CF 8E  JSR  $8ECF
 A7AE  20 D1 A5  JSR  $A5D1
 A7B1  60        RTS  
 A7B2  CA        DEX  
 A7B3  CA        DEX  
 A7B4  A0 02     LDY  #$02
 A7B6  B1 1E     LDA  ($1E), Y
 A7B8  95 00     STA  $00, X
 A7BA  C8        INY  
 A7BB  B1 1E     LDA  ($1E), Y
 A7BD  95 01     STA  $01, X
 A7BF  20 B1 83  JSR  $83B1
 A7C2  20 53 89  JSR  $8953
 A7C5  80 08     BRA  $A7CF
 A7C7  53 63 72 65 65 6E 20 23                          |Screen #        |
 A7CF  20 20 A0  JSR  $A020
 A7D2  C7 A7 08 00                                      |....            |
 A7D6  20 70 A4  JSR  $A470
 A7D9  20 50 9E  JSR  $9E50
 A7DC  20 65 8F  JSR  $8F65
 A7DF  CA        DEX  
 A7E0  CA        DEX  
 A7E1  A9 04     LDA  #$04
 A7E3  95 00     STA  $00, X
 A7E5  74 01     STZ  $01, X
 A7E7  20 A7 A4  JSR  $A4A7
 A7EA  64 28     STZ  $28
 A7EC  20 53 89  JSR  $8953
 A7EF  CA        DEX  
 A7F0  CA        DEX  
 A7F1  CA        DEX  
 A7F2  CA        DEX  
 A7F3  74 03     STZ  $03, X
 A7F5  A5 28     LDA  $28
 A7F7  95 02     STA  $02, X
 A7F9  74 01     STZ  $01, X
 A7FB  A9 02     LDA  #$02
 A7FD  95 00     STA  $00, X
 A7FF  20 A7 A4  JSR  $A4A7
 A802  20 95 A0  JSR  $A095
 A805  20 98 8D  JSR  $8D98
 A808  CA        DEX  
 A809  CA        DEX  
 A80A  A9 40     LDA  #$40
 A80C  95 00     STA  $00, X
 A80E  74 01     STZ  $01, X
 A810  20 70 A4  JSR  $A470
 A813  18        CLC  
 A814  A9 40     LDA  #$40
 A816  75 00     ADC  $00, X
 A818  95 00     STA  $00, X
 A81A  B5 01     LDA  $01, X
 A81C  69 00     ADC  #$00
 A81E  95 01     STA  $01, X
 A820  E6 28     INC  $28
 A822  A5 28     LDA  $28
 A824  C9 10     CMP  #$10
 A826  D0 C4     BNE  $A7EC
 A828  20 53 89  JSR  $8953
 A82B  E8        INX  
 A82C  E8        INX  
 A82D  60        RTS  
 A82E  20 B1 BA  JSR  $BAB1
 A831  A0 06     LDY  #$06
 A833  16 00     ASL  $00, X
 A835  36 01     ROL  $01, X
 A837  88        DEY  
 A838  D0 F9     BNE  $A833
 A83A  20 50 9E  JSR  $9E50
 A83D  20 65 8F  JSR  $8F65
 A840  20 B1 83  JSR  $83B1
 A843  20 5A 99  JSR  $995A
 A846  60        RTS  
 A847  20 53 89  JSR  $8953
 A84A  20 98 8D  JSR  $8D98
 A84D  20 14 A3  JSR  $A314
 A850  20 A7 A4  JSR  $A4A7
 A853  20 95 A0  JSR  $A095
 A856  A9 2A     LDA  #$2A
 A858  20 DB 8D  JSR  $8DDB
 A85B  20 95 A0  JSR  $A095
 A85E  20 2E A8  JSR  $A82E
 A861  20 98 8D  JSR  $8D98
 A864  CA        DEX  
 A865  CA        DEX  
 A866  A9 40     LDA  #$40
 A868  95 00     STA  $00, X
 A86A  74 01     STZ  $01, X
 A86C  20 4E 81  JSR  $814E
 A86F  20 98 8D  JSR  $8D98
 A872  20 53 96  JSR  $9653
 A875  20 5A 99  JSR  $995A
 A878  CA        DEX  
 A879  CA        DEX  
 A87A  A9 40     LDA  #$40
 A87C  95 00     STA  $00, X
 A87E  74 01     STZ  $01, X
 A880  20 CE 9A  JSR  $9ACE
 A883  20 35 95  JSR  $9535
 A886  20 CF 8E  JSR  $8ECF
 A889  20 D1 A5  JSR  $A5D1
 A88C  60        RTS  
 A88D  20 63 72 20 2E 28 20 54 61 6C 69 20 46 6F 72 74  | cr .( Tali Fort|
 A89D  68 20 32 20 66 6F 72 20 74 68 65 20 36 35 63 30  |h 2 for the 65c0|
 A8AD  32 29 20 63 72 20 2E 28 20 56 65 72 73 69 6F 6E  |2) cr .( Version|
 A8BD  20 31 2E 30 20 30 33 2E 20 4A 61 6E 20 32 30 31  | 1.0 03. Jan 201|
 A8CD  39 20 29 20 63 72 20 2E 28 20 43 6F 70 79 72 69  |9 ) cr .( Copyri|
 A8DD  67 68 74 20 32 30 31 34 2D 32 30 31 39 20 53 63  |ght 2014-2019 Sc|
 A8ED  6F 74 20 57 2E 20 53 74 65 76 65 6E 73 6F 6E 29  |ot W. Stevenson)|
 A8FD  20 63 72 20 2E 28 20 54 61 6C 69 20 46 6F 72 74  | cr .( Tali Fort|
 A90D  68 20 32 20 63 6F 6D 65 73 20 77 69 74 68 20 61  |h 2 comes with a|
 A91D  62 73 6F 6C 75 74 65 6C 79 20 4E 4F 20 57 41 52  |bsolutely NO WAR|
 A92D  52 41 4E 54 59 29 20 63 72 20 2E 28 20 54 79 70  |RANTY) cr .( Typ|
 A93D  65 20 27 62 79 65 27 20 74 6F 20 65 78 69 74 29  |e 'bye' to exit)|
 A94D  20 63 72 20 20 20 03 00 00 00 ED 85 F0 85 62 79  | cr   ........by|
 A95D  65 04 00 53 A9 00 80 C5 80 63 6F 6C 64 03 08 5E  |e..S.....cold..^|
 A96D  A9 F8 9B 85 9C 73 65 65 13 10 6A A9 04 84 2C 85  |.....see..j...,.|
 A97D  62 6C 6F 63 6B 2D 72 61 6D 64 72 69 76 65 2D 69  |block-ramdrive-i|
 A98D  6E 69 74 04 10 75 A9 62 93 6E 93 6C 69 73 74 04  |nit..u.b.n.list.|
 A99D  10 90 A9 39 A1 7D A1 74 68 72 75 04 10 9C A9 9C  |...9.}.thru.....|
 A9AD  93 DF 93 6C 6F 61 64 05 00 A8 A9 6C 90 75 90 66  |...load....l.u.f|
 A9BD  6C 75 73 68 0D 00 B4 A9 DE 8D E4 8D 65 6D 70 74  |lush........empt|
 A9CD  79 2D 62 75 66 66 65 72 73 06 00 C1 A9 A5 85 D5  |y-buffers.......|
 A9DD  85 62 75 66 66 65 72 06 00 D6 A9 D1 A5 D9 A5 75  |.buffer........u|
 A9ED  70 64 61 74 65 05 00 E4 A9 B1 83 03 84 62 6C 6F  |pdate........blo|
 A9FD  63 6B 0C 00 F2 A9 35 9E 4F 9E 73 61 76 65 2D 62  |ck....5.O.save-b|
 AA0D  75 66 66 65 72 73 11 28 FF A9 3B 85 4A 85 62 6C  |uffers.(..;.J.bl|
 AA1D  6F 63 6B 2D 72 65 61 64 2D 76 65 63 74 6F 72 0A  |ock-read-vector.|
 AA2D  28 13 AA 2D 85 3B 85 62 6C 6F 63 6B 2D 72 65 61  |(..-.;.block-rea|
 AA3D  64 12 08 2C AA 5E 85 6D 85 62 6C 6F 63 6B 2D 77  |d..,.^.m.block-w|
 AA4D  72 69 74 65 2D 76 65 63 74 6F 72 0B 08 3E AA 50  |rite-vector..>.P|
 AA5D  85 5E 85 62 6C 6F 63 6B 2D 77 72 69 74 65 03 00  |.^.block-write..|
 AA6D  58 AA 93 83 A2 83 62 6C 6B 03 00 6B AA 50 9E 5F  |X.....blk..k.P._|
 AA7D  9E 73 63 72 09 00 76 AA A3 83 B0 83 62 6C 6B 62  |.scr..v.....blkb|
 AA8D  75 66 66 65 72 0C 00 81 AA 95 85 A4 85 62 75 66  |uffer........buf|
 AA9D  66 62 6C 6F 63 6B 6E 75 6D 0A 00 92 AA DD 85 EC  |fblocknum.......|
 AAAD  85 62 75 66 66 73 74 61 74 75 73 07 00 A6 AA D6  |.buffstatus.....|
 AABD  85 DC 85 62 75 66 66 65 72 3A 08 00 B8 AA DA A5  |...buffer:......|
 AACD  E4 A5 75 73 65 72 61 64 64 72 09 04 C7 AA 70 82  |..useraddr....p.|
 AADD  88 82 61 63 74 69 6F 6E 2D 6F 66 02 04 D7 AA E0  |..action-of.....|
 AAED  92 F8 92 69 73 06 00 E8 AA D6 8A DC 8A 64 65 66  |...is........def|
 AAFD  65 72 21 06 00 F2 AA CF 8A D5 8A 64 65 66 65 72  |er!........defer|
 AB0D  40 07 0D 00 AB E5 8D F9 8D 65 6E 64 63 61 73 65  |@........endcase|
 AB1D  05 0D 0E AB A6 8D BF 8D 65 6E 64 6F 66 02 0D 1D  |........endof...|
 AB2D  AB 66 97 7E 97 6F 66 04 0D 2A AB 14 A7 1A A7 63  |.f.~.of..*.....c|
 AB3D  61 73 65 05 0D 34 AB FE A5 11 A6 77 68 69 6C 65  |ase..4.....while|
 AB4D  05 0D 40 AB B6 A5 C0 A5 75 6E 74 69 6C 06 0D 4D  |..@.....until..M|
 AB5D  AB B1 9A BD 9A 72 65 70 65 61 74 04 0D 5A AB A6  |.....repeat..Z..|
 AB6D  8D BF 8D 65 6C 73 65 04 0D 68 AB 2F A1 38 A1 74  |...else..h./.8.t|
 AB7D  68 65 6E 02 0D 74 AB E8 91 F8 91 69 66 02 04 80  |hen..t.....if...|
 AB8D  AB 41 8C 4F 8C 2E 28 01 04 8A AB 46 98 55 98 28  |.A.O..(....F.U.(|
 AB9D  04 10 94 AB 28 A6 6D A6 77 6F 72 64 04 10 9D AB  |....(.m.word....|
 ABAD  78 8F BF 8F 66 69 6E 64 0C 10 A9 AB FA 8D 76 8E  |x...find......v.|
 ABBD  65 6E 76 69 72 6F 6E 6D 65 6E 74 3F 06 18 B5 AB  |environment?....|
 ABCD  60 9E FE 9E 73 65 61 72 63 68 07 10 C9 AB 78 87  |`...search....x.|
 ABDD  DC 87 63 6F 6D 70 61 72 65 02 00 D7 AB 89 8C CC  |..compare.......|
 ABED  8C 2E 73 04 10 E6 AB 1D 8D 83 8D 64 75 6D 70 04  |..s........dump.|
 ABFD  00 F0 AB 84 83 89 83 62 65 6C 6C 05 00 FC AB AA  |.......bell.....|
 AC0D  82 AA 82 61 6C 69 67 6E 07 00 08 AC AA 82 AA 82  |...align........|
 AC1D  61 6C 69 67 6E 65 64 08 10 15 AC E1 A6 01 A7 77  |aligned........w|
 AC2D  6F 72 64 73 69 7A 65 05 00 24 AC 85 A6 E0 A6 77  |ordsize..$.....w|
 AC3D  6F 72 64 73 06 04 34 AC 8E 94 CB 94 6D 61 72 6B  |ords..4.....mark|
 AC4D  65 72 05 10 41 AC 50 83 6D 83 61 74 2D 78 79 04  |er..A.P.m.at-xy.|
 AC5D  00 4F AC 28 98 45 98 70 61 67 65 02 00 5C AC 53  |.O.(.E.page..\.S|
 AC6D  89 58 89 63 72 05 00 68 AC 3C 92 46 92 69 6E 70  |.X.cr..h.<.F.inp|
 AC7D  75 74 06 00 72 AC FF 97 09 98 6F 75 74 70 75 74  |ut..r.....output|
 AC8D  04 10 7F AC 5E 9F 72 9F 73 69 67 6E 04 10 8D AC  |....^.r.sign....|
 AC9D  BC 91 CD 91 68 6F 6C 64 02 10 99 AC 33 97 54 97  |....hold....3.T.|
 ACAD  23 3E 02 10 A5 AC 55 97 65 97 23 73 01 10 AF AC  |#>....U.e.#s....|
 ACBD  FE 96 32 97 23 02 00 B9 AC 3F 93 4C 93 3C 23 03  |..2.#....?.L.<#.|
 ACCD  00 C2 AC 1F A2 29 A2 3E 69 6E 06 10 CC AC 12 A6  |.....).>in......|
 ACDD  27 A6 77 69 74 68 69 6E 08 10 D7 AC 69 91 BB 91  |'.within....i...|
 ACED  68 65 78 73 74 6F 72 65 06 10 E5 AC 3C 86 88 86  |hexstore....<...|
 ACFD  63 6C 65 61 76 65 03 00 F5 AC 18 98 27 98 70 61  |cleave......'.pa|
 AD0D  64 05 10 03 AD 89 86 C3 86 63 6D 6F 76 65 06 10  |d........cmove..|
 AD1D  0E AD C4 86 FE 86 63 6D 6F 76 65 3E 04 18 1B AD  |......cmove>....|
 AD2D  A7 95 C5 95 6D 6F 76 65 01 04 29 AD 6E 83 76 83  |....move..).n.v.|
 AD3D  5C 02 10 35 AD D6 A0 DE A0 2A 2F 05 10 3E AD DF  |\..5.....*/..>..|
 AD4D  A0 EE A0 2A 2F 6D 6F 64 03 10 48 AD 9E 95 A6 95  |...*/mod..H.....|
 AD5D  6D 6F 64 04 10 55 AD 78 9F 8F 9F 2F 6D 6F 64 01  |mod..U.x.../mod.|
 AD6D  10 60 AD 73 9F 8F 9F 2F 06 10 6C AD 76 90 AC 90  |.`.s.../..l.v...|
 AD7D  66 6D 2F 6D 6F 64 06 10 75 AD 4C A0 74 A0 73 6D  |fm/mod..u.L.t.sm|
 AD8D  2F 72 65 6D 06 10 83 AD 27 A5 68 A5 75 6D 2F 6D  |/rem....'.h.um/m|
 AD9D  6F 64 01 10 91 AD CD A0 D5 A0 2A 03 10 9F AD 69  |od........*....i|
 ADAD  A5 AE A5 75 6D 2A 02 10 A8 AD 73 94 8D 94 6D 2A  |...um*....s...m*|
 ADBD  05 10 B3 AD 3F 89 52 89 63 6F 75 6E 74 07 00 BD  |....?.R.count...|
 ADCD  AD 95 8A 9B 8A 64 65 63 69 6D 61 6C 03 00 CA AD  |.....decimal....|
 ADDD  62 91 68 91 68 65 78 07 10 D9 AD 2A A2 C9 A2 3E  |b.h.hex....*...>|
 ADED  6E 75 6D 62 65 72 06 10 E4 AD 6F 96 FD 96 6E 75  |number....o...nu|
 ADFD  6D 62 65 72 06 10 F3 AD F5 8A 29 8B 64 69 67 69  |mber......).digi|
 AE0D  74 3F 04 00 01 AE 77 83 7F 83 62 61 73 65 08 10  |t?....w...base..|
 AE1D  0F AE BA 90 0D 91 65 76 61 6C 75 61 74 65 05 00  |......evaluate..|
 AE2D  1B AE EF A0 F9 A0 73 74 61 74 65 05 17 2B AE 89  |......state..+..|
 AE3D  82 A9 82 61 67 61 69 6E 05 07 38 AE 80 83 83 83  |...again..8.....|
 AE4D  62 65 67 69 6E 04 00 45 AE 83 80 C5 80 71 75 69  |begin..E.....qui|
 AE5D  74 07 0D 52 AE 32 9A 6E 9A 72 65 63 75 72 73 65  |t..R.2.n.recurse|
 AE6D  05 03 5E AE 35 93 3A 93 6C 65 61 76 65 06 03 6D  |..^.5.:.leave..m|
 AE7D  AE AF A5 B5 A5 75 6E 6C 6F 6F 70 04 03 7A AE 5D  |.....unloop..z.]|
 AE8D  8F 5E 8F 65 78 69 74 05 05 88 AE E7 93 4D 94 2B  |.^.exit......M.+|
 AE9D  6C 6F 6F 70 04 05 94 AE E0 93 4D 94 6C 6F 6F 70  |loop......M.loop|
 AEAD  01 03 A1 AE F9 92 12 93 6A 01 03 AD AE CE 91 E7  |........j.......|
 AEBD  91 69 03 0D B6 AE 45 8B A5 8B 3F 64 6F 02 0D BF  |.i....E...?do...|
 AECD  AE 4B 8B A5 8B 64 6F 06 0D CA AE 19 81 23 81 61  |.K...do......#.a|
 AEDD  62 6F 72 74 22 05 00 D4 AE 81 80 C5 80 61 62 6F  |bort"........abo|
 AEED  72 74 0F 00 E2 AE 10 A1 1A A1 73 74 72 69 70 2D  |rt........strip-|
 AEFD  75 6E 64 65 72 66 6C 6F 77 08 00 EF AE FD 95 07  |underflow.......|
 AF0D  96 6E 63 2D 6C 69 6D 69 74 0C 00 06 AF 14 83 1F  |.nc-limit.......|
 AF1D  83 61 6C 6C 6F 77 2D 6E 61 74 69 76 65 0D 00 16  |.allow-native...|
 AF2D  AF 30 83 3D 83 61 6C 77 61 79 73 2D 6E 61 74 69  |.0.=.always-nati|
 AF3D  76 65 0C 00 2A AF 19 96 26 96 6E 65 76 65 72 2D  |ve..*...&.never-|
 AF4D  6E 61 74 69 76 65 0C 00 3F AF F5 88 00 89 63 6F  |native..?.....co|
 AF5D  6D 70 69 6C 65 2D 6F 6E 6C 79 09 00 53 AF 30 92  |mpile-only..S.0.|
 AF6D  3B 92 69 6D 6D 65 64 69 61 74 65 08 05 67 AF 8D  |;.immediate..g..|
 AF7D  99 CB 99 70 6F 73 74 70 6F 6E 65 03 04 78 AF FE  |...postpone..x..|
 AF8D  9A 07 9B 73 5C 22 02 0C 88 AF C6 9C 22 9E 73 22  |...s\"......".s"|
 AF9D  02 05 93 AF 50 8C 5A 8C 2E 22 08 15 9D AF B0 9F  |....P.Z.."......|
 AFAD  1F A0 73 6C 69 74 65 72 61 6C 07 15 A7 AF 6F 93  |..sliteral....o.|
 AFBD  7C 93 6C 69 74 65 72 61 6C 01 04 B7 AF BE 9A C4  ||.literal.......|
 AFCD  9A 5D 01 05 C6 AF 3A 93 3E 93 5B 08 18 CF AF DD  |.]....:.>.[.....|
 AFDD  87 F4 88 63 6F 6D 70 69 6C 65 2C 07 00 D8 AF 42  |...compile,....B|
 AFED  87 5D 87 3A 6E 6F 6E 61 6D 65 01 05 E8 AF FF 9E  |.].:noname......|
 AFFD  5D 9F 3B 01 00 F7 AF FF 86 41 87 3A 09 00 00 B0  |].;......A.:....|
 B00D  8A A0 94 A0 73 6F 75 72 63 65 2D 69 64 06 00 09  |....source-id...|
 B01D  B0 75 A0 89 A0 73 6F 75 72 63 65 0F 10 1A B0 36  |.u...source....6|
 B02D  8F 5C 8F 65 78 65 63 75 74 65 2D 70 61 72 73 69  |.\.execute-parsi|
 B03D  6E 67 05 10 28 B0 B1 98 48 99 70 61 72 73 65 0A  |ng..(...H.parse.|
 B04D  08 3F B0 56 98 48 99 70 61 72 73 65 2D 6E 61 6D  |.?.V.H.parse-nam|
 B05D  65 08 00 4C B0 20 93 2D 93 6C 61 74 65 73 74 6E  |e..L. .-.latestn|
 B06D  74 08 00 5E B0 2E 93 34 93 6C 61 74 65 73 74 78  |t..^...4.latestx|
 B07D  74 05 00 6E B0 9C 8A CE 8A 64 65 66 65 72 05 10  |t..n.....defer..|
 B08D  7E B0 FA A1 1E A2 3E 62 6F 64 79 0B 10 8B B0 E3  |~.....>body.....|
 B09D  95 FC 95 6E 61 6D 65 3E 73 74 72 69 6E 67 08 10  |...name>string..|
 B0AD  98 B0 5D 92 CF 92 69 6E 74 3E 6E 61 6D 65 08 10  |..]...int>name..|
 B0BD  AB B0 C6 95 E2 95 6E 61 6D 65 3E 69 6E 74 03 05  |......name>int..|
 B0CD  BB B0 8E 85 94 85 5B 27 5D 01 00 CB B0 7E A1 9D  |......[']....~..|
 B0DD  A1 27 09 10 D6 B0 C0 8F 6B 90 66 69 6E 64 2D 6E  |.'......k.find-n|
 B0ED  61 6D 65 04 10 DF B0 DF 8E 21 8F 66 69 6C 6C 05  |ame......!.fill.|
 B0FD  00 F0 B0 CF 8E 21 8F 62 6C 61 6E 6B 05 00 FC B0  |.....!.blank....|
 B10D  D9 8E 21 8F 65 72 61 73 65 02 10 09 B1 4F 8A 6F  |..!.erase....O.o|
 B11D  8A 64 2B 02 10 16 B1 2E 8A 4E 8A 64 2D 03 10 20  |.d+......N.d-.. |
 B12D  B1 70 8A 75 8A 64 3E 73 03 10 2A B1 23 9E 34 9E  |.p.u.d>s..*.#.4.|
 B13D  73 3E 64 02 0C 35 B1 9E A1 F9 A1 74 6F 05 10 40  |s>d..5.....to..@|
 B14D  B1 01 89 3E 89 76 61 6C 75 65 08 10 4A B1 01 89  |...>.value..J...|
 B15D  3E 89 63 6F 6E 73 74 61 6E 74 08 00 57 B1 E5 A5  |>.constant..W...|
 B16D  FD A5 76 61 72 69 61 62 6C 65 05 05 67 B1 DE 8B  |..variable..g...|
 B17D  EC 8B 64 6F 65 73 3E 06 00 77 B1 59 89 2D 8A 63  |..does>..w.Y.-.c|
 B18D  72 65 61 74 65 05 10 84 B1 AB 82 13 83 61 6C 6C  |reate........all|
 B19D  6F 74 03 00 92 B1 13 93 1C 93 6B 65 79 05 00 9F  |ot........key...|
 B1AD  B1 E6 8A F4 8A 64 65 70 74 68 06 00 AA B1 C1 A5  |.....depth......|
 B1BD  D0 A5 75 6E 75 73 65 64 07 08 B7 B1 1A 9A 31 9A  |..unused......1.|
 B1CD  72 3E 69 6E 70 75 74 07 08 C5 B1 47 92 5C 92 69  |r>input....G.\.i|
 B1DD  6E 70 75 74 3E 72 06 18 D4 B1 4E 81 46 82 61 63  |nput>r....N.F.ac|
 B1ED  63 65 70 74 06 00 E3 B1 6F 9A B0 9A 72 65 66 69  |cept....o...refi|
 B1FD  6C 6C 07 10 F1 B1 90 9F AF 9F 2F 73 74 72 69 6E  |ll......../strin|
 B20D  67 08 10 FF B1 48 95 60 95 2D 6C 65 61 64 69 6E  |g....H.`.-leadin|
 B21D  67 09 10 0E B2 61 95 9D 95 2D 74 72 61 69 6C 69  |g....a...-traili|
 B22D  6E 67 02 00 1E B2 8A 83 92 83 62 6C 06 10 2F B2  |ng........bl../.|
 B23D  9B A0 CC A0 73 70 61 63 65 73 06 10 39 B2 6E 85  |....spaces..9.n.|
 B24D  86 85 62 6F 75 6E 64 73 02 10 47 B2 F0 85 FA 85  |..bounds..G.....|
 B25D  63 2C 07 10 55 B2 2A 8B 44 8B 64 6E 65 67 61 74  |c,..U.*.D.dnegat|
 B26D  65 06 10 5F B2 08 96 18 96 6E 65 67 61 74 65 06  |e.._.....negate.|
 B27D  10 6E B2 D0 92 DF 92 69 6E 76 65 72 74 03 11 7C  |.n.....invert..||
 B28D  B2 0F A4 2E A4 32 3E 72 03 01 8A B2 95 A3 B1 A3  |.....2>r........|
 B29D  32 72 3E 03 09 95 B2 77 A3 94 A3 32 72 40 08 14  |2r>....w...2r@..|
 B2AD  A0 B2 54 A4 60 A4 32 6C 69 74 65 72 61 6C 09 10  |..T.`.2literal..|
 B2BD  AB B2 2F A4 53 A4 32 63 6F 6E 73 74 61 6E 74 09  |../.S.2constant.|
 B2CD  00 BB B2 61 A4 6F A4 32 76 61 72 69 61 62 6C 65  |...a.o.2variable|
 B2DD  02 10 CC B2 3D A3 5E A3 32 40 02 10 DD B2 C5 A3  |....=.^.2@......|
 B2ED  EA A3 32 21 05 10 E7 B2 5F A3 76 A3 32 6F 76 65  |..2!...._.v.2ove|
 B2FD  72 05 10 F1 B2 EB A3 0E A4 32 73 77 61 70 05 10  |r........2swap..|
 B30D  FE B2 1D A3 24 A3 32 64 72 6F 70 03 10 0B B3 FD  |....$.2drop.....|
 B31D  94 18 95 6D 61 78 03 10 18 B3 19 95 34 95 6D 69  |...max......4.mi|
 B32D  6E 02 10 23 B3 43 A7 52 A7 30 3C 02 10 2E B3 2F  |n..#.C.R.0<..../|
 B33D  A7 42 A7 30 3E 03 10 38 B3 53 A7 64 A7 30 3C 3E  |.B.0>..8.S.d.0<>|
 B34D  02 10 42 B3 1B A7 2E A7 30 3D 01 10 4D B3 42 91  |..B.....0=..M.B.|
 B35D  56 91 3E 02 10 57 B3 C9 A4 DE A4 75 3E 02 10 60  |V.>..W.....u>..`|
 B36D  B3 DF A4 F4 A4 75 3C 01 10 6A B3 4D 93 61 93 3C  |.....u<..j.M.a.<|
 B37D  02 10 74 B3 35 96 52 96 3C 3E 01 10 7D B3 B3 8E  |..t.5.R.<>..}...|
 B38D  CE 8E 3D 02 10 87 B3 B2 A3 BC A3 32 2F 02 10 90  |..=........2/...|
 B39D  B3 BD A3 C4 A3 32 2A 02 10 9A B3 94 97 9D 97 31  |.....2*........1|
 B3AD  2B 02 10 A4 B3 88 97 93 97 31 2D 04 00 AE B3 57  |+........1-....W|
 B3BD  91 61 91 68 65 72 65 05 10 B8 B3 11 86 20 86 63  |.a.here...... .c|
 B3CD  65 6C 6C 2B 05 00 C4 B3 BD A3 C4 A3 63 65 6C 6C  |ell+........cell|
 B3DD  73 05 12 D1 B3 38 86 3B 86 63 68 61 72 73 05 00  |s....8.;.chars..|
 B3ED  DE B3 94 97 9D 97 63 68 61 72 2B 06 05 EB B3 87  |......char+.....|
 B3FD  85 8D 85 5B 63 68 61 72 5D 04 00 F8 B3 21 86 37  |...[char]....!.7|
 B40D  86 63 68 61 72 04 00 06 B4 49 99 59 99 70 69 63  |.char....I.Y.pic|
 B41D  6B 06 10 12 B4 5F 94 72 94 6C 73 68 69 66 74 06  |k...._.r.lshift.|
 B42D  10 1E B4 EA 9A FD 9A 72 73 68 69 66 74 03 10 2C  |.......rshift..,|
 B43D  B4 02 A7 13 A7 78 6F 72 02 10 3A B4 AA 97 BB 97  |.....xor..:.....|
 B44D  6F 72 03 10 45 B4 3E 83 4F 83 61 6E 64 04 10 4F  |or..E.>.O.and..O|
 B45D  B4 76 8A 94 8A 64 61 62 73 03 10 5A B4 39 81 4D  |.v...dabs..Z.9.M|
 B46D  81 61 62 73 01 10 66 B4 35 95 47 95 2D 01 10 71  |.abs..f.5.G.-..q|
 B47D  B4 5A 99 6C 99 2B 04 10 7A B4 E0 99 F3 99 3F 64  |.Z.l.+..z.....?d|
 B48D  75 70 04 10 83 B4 25 A3 3C A3 32 64 75 70 01 00  |up....%.<.2dup..|
 B49D  8F B4 14 A3 1C A3 32 01 00 9B B4 7F 97 87 97 31  |......2........1|
 B4AD  01 00 A4 B4 14 A7 1A A7 30 05 00 AD B4 95 A0 9A  |........0.......|
 B4BD  A0 73 70 61 63 65 04 00 B6 B4 F1 A2 F9 A2 74 72  |.space........tr|
 B4CD  75 65 05 00 C3 B4 5E 8F 64 8F 66 61 6C 73 65 01  |ue....^.d.false.|
 B4DD  00 CF B4 D9 99 DF 99 3F 04 10 DC B4 08 A5 26 A5  |.......?......&.|
 B4ED  75 64 2E 72 03 10 E5 B4 F5 A4 07 A5 75 64 2E 03  |ud.r........ud..|
 B4FD  10 F1 B4 EC 8C 16 8D 64 2E 72 02 10 FC B4 CD 8C  |.......d.r......|
 B50D  EB 8C 64 2E 02 10 07 B5 5B 8C 88 8C 2E 72 03 10  |..d.....[....r..|
 B51D  11 B5 A7 A4 C8 A4 75 2E 72 02 10 1B B5 9B A4 A6  |......u.r.......|
 B52D  A4 75 2E 01 10 26 B5 1F 8C 40 8C 2E 04 10 30 B5  |.u...&...@....0.|
 B53D  70 A4 9A A4 74 79 70 65 04 18 39 B5 D4 8D DE 8D  |p...type..9.....|
 B54D  65 6D 69 74 07 10 45 B5 22 8F 28 8F 65 78 65 63  |emit..E.".(.exec|
 B55D  75 74 65 02 10 51 B5 6D 99 8C 99 2B 21 02 10 60  |ute..Q.m...+!..`|
 B56D  B5 05 86 10 86 63 21 02 10 6A B5 FB 85 04 86 63  |.....c!..j.....c|
 B57D  40 01 10 74 B5 5E 87 77 87 2C 04 10 7E B5 FA A2  |@..t.^.w.,..~...|
 B58D  13 A3 74 75 63 6B 04 10 87 B5 53 96 6E 96 2D 72  |..tuck....S.n.-r|
 B59D  6F 74 03 10 93 B5 CE 9A E9 9A 72 6F 74 03 10 9F  |ot........rot...|
 B5AD  B5 27 96 34 96 6E 69 70 02 01 AA B5 F4 99 08 9A  |.'.4.nip........|
 B5BD  72 40 02 01 B5 B5 09 9A 19 9A 72 3E 02 11 BF B5  |r@........r>....|
 B5CD  DD A2 F0 A2 3E 72 04 10 C9 B5 0A 98 17 98 6F 76  |....>r........ov|
 B5DD  65 72 01 10 D3 B5 65 8F 77 8F 40 01 10 DF B5 FA  |er....e.w.@.....|
 B5ED  A0 0F A1 21 04 10 E8 B5 1B A1 2E A1 73 77 61 70  |...!........swap|
 B5FD  03 10 F1 B5 98 8D A5 8D 64 75 70 04 10 FD B5 17  |........dup.....|
 B60D  8D 1C 8D 64 72 6F 70 05 00 00 00 85 A6 E0 A6 77  |...drop........w|
 B61D  6F 72 64 73 0C 00 00 00 72 A7 8D A7 65 6E 74 65  |ords....r...ente|
 B62D  72 2D 73 63 72 65 65 6E 0C 00 21 B6 8E A7 9F A7  |r-screen..!.....|
 B63D  65 72 61 73 65 2D 73 63 72 65 65 6E 02 00 35 B6  |erase-screen..5.|
 B64D  A0 A7 B1 A7 65 6C 01 00 49 B6 B2 A7 2D A8 6C 04  |....el..I...-.l.|
 B65D  10 53 B6 2E A8 46 A8 6C 69 6E 65 01 00 5C B6 47  |.S...F.line..\.G|
 B66D  A8 8C A8 6F 8B B6 8F B6 99 B6 FF B6 A4 B6 C8 B6  |...o............|
 B67D  F7 B6 EC B6 06 B7 0C B7 28 B7 2D B7 32 B7 20 6F  |........(.-.2. o|
 B68D  6B 00 20 63 6F 6D 70 69 6C 65 64 00 72 65 64 65  |k. compiled.rede|
 B69D  66 69 6E 65 64 20 00 30 31 32 33 34 35 36 37 38  |fined .012345678|
 B6AD  39 61 62 63 64 65 66 67 68 69 6A 6B 6C 6D 6E 6F  |9abcdefghijklmno|
 B6BD  70 71 72 73 74 75 76 77 78 79 7A 30 31 32 33 34  |pqrstuvwxyz01234|
 B6CD  35 36 37 38 39 41 42 43 44 45 46 47 48 49 4A 4B  |56789ABCDEFGHIJK|
 B6DD  4C 4D 4E 4F 50 51 52 53 54 55 56 57 58 59 5A 41  |LMNOPQRSTUVWXYZA|
 B6ED  73 73 65 6D 62 6C 65 72 20 00 45 64 69 74 6F 72  |ssembler .Editor|
 B6FD  20 00 46 6F 72 74 68 20 00 52 6F 6F 74 20 00 66  | .Forth .Root .f|
 B70D  6C 61 67 73 20 28 43 4F 20 41 4E 20 49 4D 20 4E  |lags (CO AN IM N|
 B71D  4E 20 55 46 20 48 43 29 3A 20 00 6E 74 3A 20 00  |N UF HC): .nt: .|
 B72D  78 74 3A 20 00 73 69 7A 65 20 28 64 65 63 69 6D  |xt: .size (decim|
 B73D  61 6C 29 3A 20 00 5D B7 7E B7 9E B7 BF B7 DC B7  |al): .].~.......|
 B74D  ED B7 FD B7 2B B8 43 B8 52 B8 62 B8 7E B8 95 B8  |....+.C.R.b.~...|
 B75D  41 4C 4C 4F 54 20 75 73 69 6E 67 20 61 6C 6C 20  |ALLOT using all |
 B76D  61 76 61 69 6C 61 62 6C 65 20 6D 65 6D 6F 72 79  |available memory|
 B77D  00 49 6C 6C 65 67 61 6C 20 53 4F 55 52 43 45 2D  |.Illegal SOURCE-|
 B78D  49 44 20 64 75 72 69 6E 67 20 52 45 46 49 4C 4C  |ID during REFILL|
 B79D  00 49 6E 74 65 72 70 72 65 74 69 6E 67 20 61 20  |.Interpreting a |
 B7AD  63 6F 6D 70 69 6C 65 2D 6F 6E 6C 79 20 77 6F 72  |compile-only wor|
 B7BD  64 00 44 45 46 45 52 65 64 20 77 6F 72 64 20 6E  |d.DEFERed word n|
 B7CD  6F 74 20 64 65 66 69 6E 65 64 20 79 65 74 00 44  |ot defined yet.D|
 B7DD  69 76 69 73 69 6F 6E 20 62 79 20 7A 65 72 6F 00  |ivision by zero.|
 B7ED  50 61 72 73 69 6E 67 20 66 61 69 6C 75 72 65 00  |Parsing failure.|
 B7FD  51 55 49 54 20 63 6F 75 6C 64 20 6E 6F 74 20 67  |QUIT could not g|
 B80D  65 74 20 69 6E 70 75 74 20 28 52 45 46 49 4C 4C  |et input (REFILL|
 B81D  20 72 65 74 75 72 6E 65 64 20 2D 31 29 00 41 6C  | returned -1).Al|
 B82D  72 65 61 64 79 20 69 6E 20 63 6F 6D 70 69 6C 65  |ready in compile|
 B83D  20 6D 6F 64 65 00 55 6E 64 65 66 69 6E 65 64 20  | mode.Undefined |
 B84D  77 6F 72 64 00 53 74 61 63 6B 20 75 6E 64 65 72  |word.Stack under|
 B85D  66 6C 6F 77 00 4D 61 78 20 6D 65 6D 6F 72 79 20  |flow.Max memory |
 B86D  66 72 65 65 64 20 77 69 74 68 20 41 4C 4C 4F 54  |freed with ALLOT|
 B87D  00 4E 6F 20 77 6F 72 64 6C 69 73 74 73 20 61 76  |.No wordlists av|
 B88D  61 69 6C 61 62 6C 65 00 50 6C 65 61 73 65 20 61  |ailable.Please a|
 B89D  73 73 69 67 6E 20 76 65 63 74 6F 72 73 20 42 4C  |ssign vectors BL|
 B8AD  4F 43 4B 2D 52 45 41 44 2D 56 45 43 54 4F 52 20  |OCK-READ-VECTOR |
 B8BD  61 6E 64 20 42 4C 4F 43 4B 2D 57 52 49 54 45 2D  |and BLOCK-WRITE-|
 B8CD  56 45 43 54 4F 52 00 0F 2F 43 4F 55 4E 54 45 44  |VECTOR../COUNTED|
 B8DD  2D 53 54 52 49 4E 47 05 2F 48 4F 4C 44 04 2F 50  |-STRING./HOLD./P|
 B8ED  41 44 11 41 44 44 52 45 53 53 2D 55 4E 49 54 2D  |AD.ADDRESS-UNIT-|
 B8FD  42 49 54 53 07 46 4C 4F 4F 52 45 44 08 4D 41 58  |BITS.FLOORED.MAX|
 B90D  2D 43 48 41 52 05 4D 41 58 2D 4E 05 4D 41 58 2D  |-CHAR.MAX-N.MAX-|
 B91D  55 12 52 45 54 55 52 4E 2D 53 54 41 43 4B 2D 43  |U.RETURN-STACK-C|
 B92D  45 4C 4C 53 0B 53 54 41 43 4B 2D 43 45 4C 4C 53  |ELLS.STACK-CELLS|
 B93D  09 57 4F 52 44 4C 49 53 54 53 05 4D 41 58 2D 44  |.WORDLISTS.MAX-D|
 B94D  06 4D 41 58 2D 55 44                             |.MAX-UD         |
 B954  48        PHA  
 B955  A9 20     LDA  #$20
 B957  80 03     BRA  $B95C
 B959  48        PHA  
 B95A  A9 4C     LDA  #$4C
 B95C  20 64 B9  JSR  $B964
 B95F  68        PLA  
 B960  20 64 B9  JSR  $B964
 B963  98        TYA  
 B964  92 00     STA  ($00)
 B966  E6 00     INC  $00
 B968  D0 02     BNE  $B96C
 B96A  E6 01     INC  $01
 B96C  60        RTS  
 B96D  CA        DEX  
 B96E  CA        DEX  
 B96F  68        PLA  
 B970  85 24     STA  $24
 B972  68        PLA  
 B973  85 25     STA  $25
 B975  A0 01     LDY  #$01
 B977  B1 24     LDA  ($24), Y
 B979  95 00     STA  $00, X
 B97B  C8        INY  
 B97C  B1 24     LDA  ($24), Y
 B97E  95 01     STA  $01, X
 B980  60        RTS  
 B981  68        PLA  
 B982  85 24     STA  $24
 B984  68        PLA  
 B985  85 25     STA  $25
 B987  A0 01     LDY  #$01
 B989  B1 24     LDA  ($24), Y
 B98B  85 26     STA  $26
 B98D  C8        INY  
 B98E  B1 24     LDA  ($24), Y
 B990  85 27     STA  $27
 B992  6C 26 00  JMP  ($0026)
 B995  A9 03     LDA  #$03
 B997  4C C7 BA  JMP  $BAC7
 B99A  7A        PLY  
 B99B  68        PLA  
 B99C  C8        INY  
 B99D  D0 01     BNE  $B9A0
 B99F  1A        INC  
 B9A0  84 26     STY  $26
 B9A2  85 27     STA  $27
 B9A4  CA        DEX  
 B9A5  CA        DEX  
 B9A6  7A        PLY  
 B9A7  68        PLA  
 B9A8  C8        INY  
 B9A9  D0 01     BNE  $B9AC
 B9AB  1A        INC  
 B9AC  94 00     STY  $00, X
 B9AE  95 01     STA  $01, X
 B9B0  6C 26 00  JMP  ($0026)
 B9B3  7A        PLY  
 B9B4  68        PLA  
 B9B5  C8        INY  
 B9B6  D0 01     BNE  $B9B9
 B9B8  1A        INC  
 B9B9  CA        DEX  
 B9BA  CA        DEX  
 B9BB  95 01     STA  $01, X
 B9BD  98        TYA  
 B9BE  95 00     STA  $00, X
 B9C0  60        RTS  
 B9C1  48        PHA  
 B9C2  4A        LSR  
 B9C3  4A        LSR  
 B9C4  4A        LSR  
 B9C5  4A        LSR  
 B9C6  20 CA B9  JSR  $B9CA
 B9C9  68        PLA  
 B9CA  29 0F     AND  #$0F
 B9CC  09 30     ORA  #$30
 B9CE  C9 3A     CMP  #$3A
 B9D0  90 02     BCC  $B9D4
 B9D2  69 06     ADC  #$06
 B9D4  4C DB 8D  JMP  $8DDB
 B9D7  60        RTS  
 B9D8  B5 00     LDA  $00, X
 B9DA  D5 02     CMP  $02, X
 B9DC  F0 0A     BEQ  $B9E8
 B9DE  B5 01     LDA  $01, X
 B9E0  F5 03     SBC  $03, X
 B9E2  09 01     ORA  #$01
 B9E4  70 08     BVS  $B9EE
 B9E6  80 08     BRA  $B9F0
 B9E8  B5 01     LDA  $01, X
 B9EA  F5 03     SBC  $03, X
 B9EC  50 04     BVC  $B9F2
 B9EE  49 80     EOR  #$80
 B9F0  09 01     ORA  #$01
 B9F2  60        RTS  
 B9F3  A0 04     LDY  #$04
 B9F5  B1 1E     LDA  ($1E), Y
 B9F7  0A        ASL  
 B9F8  18        CLC  
 B9F9  69 06     ADC  #$06
 B9FB  A8        TAY  
 B9FC  B1 1E     LDA  ($1E), Y
 B9FE  85 02     STA  $02
 BA00  C8        INY  
 BA01  B1 1E     LDA  ($1E), Y
 BA03  85 03     STA  $03
 BA05  60        RTS  
 BA06  A0 04     LDY  #$04
 BA08  B1 1E     LDA  ($1E), Y
 BA0A  0A        ASL  
 BA0B  18        CLC  
 BA0C  69 06     ADC  #$06
 BA0E  A8        TAY  
 BA0F  A5 02     LDA  $02
 BA11  91 1E     STA  ($1E), Y
 BA13  C8        INY  
 BA14  A5 03     LDA  $03
 BA16  91 1E     STA  ($1E), Y
 BA18  60        RTS  
 BA19  20 56 98  JSR  $9856
 BA1C  B5 00     LDA  $00, X
 BA1E  15 01     ORA  $01, X
 BA20  F0 70     BEQ  $BA92
 BA22  20 25 A3  JSR  $A325
 BA25  20 C0 8F  JSR  $8FC0
 BA28  B5 00     LDA  $00, X
 BA2A  15 01     ORA  $01, X
 BA2C  D0 28     BNE  $BA56
 BA2E  E8        INX  
 BA2F  E8        INX  
 BA30  20 6F 96  JSR  $966F
 BA33  A5 16     LDA  $16
 BA35  F0 E2     BEQ  $BA19
 BA37  A9 20     LDA  #$20
 BA39  24 20     BIT  $20
 BA3B  F0 0D     BEQ  $BA4A
 BA3D  20 1B A1  JSR  $A11B
 BA40  A0 93     LDY  #$93
 BA42  A9 7D     LDA  #$7D
 BA44  20 54 B9  JSR  $B954
 BA47  20 5E 87  JSR  $875E
 BA4A  A0 93     LDY  #$93
 BA4C  A9 7D     LDA  #$7D
 BA4E  20 54 B9  JSR  $B954
 BA51  20 5E 87  JSR  $875E
 BA54  80 C3     BRA  $BA19
 BA56  B5 00     LDA  $00, X
 BA58  95 04     STA  $04, X
 BA5A  B5 01     LDA  $01, X
 BA5C  95 05     STA  $05, X
 BA5E  E8        INX  
 BA5F  E8        INX  
 BA60  E8        INX  
 BA61  E8        INX  
 BA62  B5 00     LDA  $00, X
 BA64  85 22     STA  $22
 BA66  B5 01     LDA  $01, X
 BA68  85 23     STA  $23
 BA6A  20 C6 95  JSR  $95C6
 BA6D  A5 16     LDA  $16
 BA6F  D0 13     BNE  $BA84
 BA71  A0 01     LDY  #$01
 BA73  B1 22     LDA  ($22), Y
 BA75  29 01     AND  #$01
 BA77  F0 05     BEQ  $BA7E
 BA79  A9 02     LDA  #$02
 BA7B  4C C7 BA  JMP  $BAC7
 BA7E  20 22 8F  JSR  $8F22
 BA81  4C 19 BA  JMP  $BA19
 BA84  A0 01     LDY  #$01
 BA86  B1 22     LDA  ($22), Y
 BA88  29 04     AND  #$04
 BA8A  D0 F2     BNE  $BA7E
 BA8C  20 DD 87  JSR  $87DD
 BA8F  4C 19 BA  JMP  $BA19
 BA92  E8        INX  
 BA93  E8        INX  
 BA94  E8        INX  
 BA95  E8        INX  
 BA96  60        RTS  
 BA97  C9 20     CMP  #$20
 BA99  90 08     BCC  $BAA3
 BA9B  C9 7F     CMP  #$7F
 BA9D  B0 03     BCS  $BAA2
 BA9F  38        SEC  
 BAA0  80 01     BRA  $BAA3
 BAA2  18        CLC  
 BAA3  60        RTS  
 BAA4  C9 00     CMP  #$00
 BAA6  90 08     BCC  $BAB0
 BAA8  C9 21     CMP  #$21
 BAAA  B0 03     BCS  $BAAF
 BAAC  38        SEC  
 BAAD  80 01     BRA  $BAB0
 BAAF  18        CLC  
 BAB0  60        RTS  
 BAB1  E0 77     CPX  #$77
 BAB3  10 10     BPL  $BAC5
 BAB5  60        RTS  
 BAB6  E0 75     CPX  #$75
 BAB8  10 0B     BPL  $BAC5
 BABA  60        RTS  
 BABB  E0 73     CPX  #$73
 BABD  10 06     BPL  $BAC5
 BABF  60        RTS  
 BAC0  E0 71     CPX  #$71
 BAC2  10 01     BPL  $BAC5
 BAC4  60        RTS  
 BAC5  A9 09     LDA  #$09
 BAC7  0A        ASL  
 BAC8  A8        TAY  
 BAC9  B9 43 B7  LDA  $B743, Y
 BACC  85 28     STA  $28
 BACE  C8        INY  
 BACF  B9 43 B7  LDA  $B743, Y
 BAD2  85 29     STA  $29
 BAD4  20 EA BA  JSR  $BAEA
 BAD7  20 53 89  JSR  $8953
 BADA  4C 81 80  JMP  $8081
 BADD  0A        ASL  
 BADE  A8        TAY  
 BADF  B9 71 B6  LDA  $B671, Y
 BAE2  85 28     STA  $28
 BAE4  C8        INY  
 BAE5  B9 71 B6  LDA  $B671, Y
 BAE8  85 29     STA  $29
 BAEA  A0 00     LDY  #$00
 BAEC  B1 28     LDA  ($28), Y
 BAEE  F0 06     BEQ  $BAF6
 BAF0  20 DB 8D  JSR  $8DDB
 BAF3  C8        INY  
 BAF4  80 F6     BRA  $BAEC
 BAF6  60        RTS  
 BAF7  20 DD BA  JSR  $BADD
 BAFA  4C 53 89  JMP  $8953
 BAFD  20 14 A7  JSR  $A714
 BB00  20 3F 93  JSR  $933F
 BB03  20 55 97  JSR  $9755
 BB06  20 33 97  JSR  $9733
 BB09  4C 70 A4  JMP  $A470
 BB0C  00 00 00 00 00 00 00 00 00 00 00 00 00 00 00 00  |................|
 BB1C  00 00 00 00 00 00 00 00 00 00 00 00 00 00 00 00  |................|
 BB2C  00 00 00 00 00 00 00 00 00 00 00 00 00 00 00 00  |................|
 BB3C  00 00 00 00 00 00 00 00 00 00 00 00 00 00 00 00  |................|
 BB4C  00 00 00 00 00 00 00 00 00 00 00 00 00 00 00 00  |................|
 BB5C  00 00 00 00 00 00 00 00 00 00 00 00 00 00 00 00  |................|
 BB6C  00 00 00 00 00 00 00 00 00 00 00 00 00 00 00 00  |................|
 BB7C  00 00 00 00 00 00 00 00 00 00 00 00 00 00 00 00  |................|
 BB8C  00 00 00 00 00 00 00 00 00 00 00 00 00 00 00 00  |................|
 BB9C  00 00 00 00 00 00 00 00 00 00 00 00 00 00 00 00  |................|
 BBAC  00 00 00 00 00 00 00 00 00 00 00 00 00 00 00 00  |................|
 BBBC  00 00 00 00 00 00 00 00 00 00 00 00 00 00 00 00  |................|
 BBCC  00 00 00 00 00 00 00 00 00 00 00 00 00 00 00 00  |................|
 BBDC  00 00 00 00 00 00 00 00 00 00 00 00 00 00 00 00  |................|
 BBEC  00 00 00 00 00 00 00 00 00 00 00 00 00 00 00 00  |................|
 BBFC  00 00 00 00 00 00 00 00 00 00 00 00 00 00 00 00  |................|
 BC0C  00 00 00 00 00 00 00 00 00 00 00 00 00 00 00 00  |................|
 BC1C  00 00 00 00 00 00 00 00 00 00 00 00 00 00 00 00  |................|
 BC2C  00 00 00 00 00 00 00 00 00 00 00 00 00 00 00 00  |................|
 BC3C  00 00 00 00 00 00 00 00 00 00 00 00 00 00 00 00  |................|
 BC4C  00 00 00 00 00 00 00 00 00 00 00 00 00 00 00 00  |................|
 BC5C  00 00 00 00 00 00 00 00 00 00 00 00 00 00 00 00  |................|
 BC6C  00 00 00 00 00 00 00 00 00 00 00 00 00 00 00 00  |................|
 BC7C  00 00 00 00 00 00 00 00 00 00 00 00 00 00 00 00  |................|
 BC8C  00 00 00 00 00 00 00 00 00 00 00 00 00 00 00 00  |................|
 BC9C  00 00 00 00 00 00 00 00 00 00 00 00 00 00 00 00  |................|
 BCAC  00 00 00 00 00 00 00 00 00 00 00 00 00 00 00 00  |................|
 BCBC  00 00 00 00 00 00 00 00 00 00 00 00 00 00 00 00  |................|
 BCCC  00 00 00 00 00 00 00 00 00 00 00 00 00 00 00 00  |................|
 BCDC  00 00 00 00 00 00 00 00 00 00 00 00 00 00 00 00  |................|
 BCEC  00 00 00 00 00 00 00 00 00 00 00 00 00 00 00 00  |................|
 BCFC  00 00 00 00 00 00 00 00 00 00 00 00 00 00 00 00  |................|
 BD0C  00 00 00 00 00 00 00 00 00 00 00 00 00 00 00 00  |................|
 BD1C  00 00 00 00 00 00 00 00 00 00 00 00 00 00 00 00  |................|
 BD2C  00 00 00 00 00 00 00 00 00 00 00 00 00 00 00 00  |................|
 BD3C  00 00 00 00 00 00 00 00 00 00 00 00 00 00 00 00  |................|
 BD4C  00 00 00 00 00 00 00 00 00 00 00 00 00 00 00 00  |................|
 BD5C  00 00 00 00 00 00 00 00 00 00 00 00 00 00 00 00  |................|
 BD6C  00 00 00 00 00 00 00 00 00 00 00 00 00 00 00 00  |................|
 BD7C  00 00 00 00 00 00 00 00 00 00 00 00 00 00 00 00  |................|
 BD8C  00 00 00 00 00 00 00 00 00 00 00 00 00 00 00 00  |................|
 BD9C  00 00 00 00 00 00 00 00 00 00 00 00 00 00 00 00  |................|
 BDAC  00 00 00 00 00 00 00 00 00 00 00 00 00 00 00 00  |................|
 BDBC  00 00 00 00 00 00 00 00 00 00 00 00 00 00 00 00  |................|
 BDCC  00 00 00 00 00 00 00 00 00 00 00 00 00 00 00 00  |................|
 BDDC  00 00 00 00 00 00 00 00 00 00 00 00 00 00 00 00  |................|
 BDEC  00 00 00 00 00 00 00 00 00 00 00 00 00 00 00 00  |................|
 BDFC  00 00 00 00 00 00 00 00 00 00 00 00 00 00 00 00  |................|
 BE0C  00 00 00 00 00 00 00 00 00 00 00 00 00 00 00 00  |................|
 BE1C  00 00 00 00 00 00 00 00 00 00 00 00 00 00 00 00  |................|
 BE2C  00 00 00 00 00 00 00 00 00 00 00 00 00 00 00 00  |................|
 BE3C  00 00 00 00 00 00 00 00 00 00 00 00 00 00 00 00  |................|
 BE4C  00 00 00 00 00 00 00 00 00 00 00 00 00 00 00 00  |................|
 BE5C  00 00 00 00 00 00 00 00 00 00 00 00 00 00 00 00  |................|
 BE6C  00 00 00 00 00 00 00 00 00 00 00 00 00 00 00 00  |................|
 BE7C  00 00 00 00 00 00 00 00 00 00 00 00 00 00 00 00  |................|
 BE8C  00 00 00 00 00 00 00 00 00 00 00 00 00 00 00 00  |................|
 BE9C  00 00 00 00 00 00 00 00 00 00 00 00 00 00 00 00  |................|
 BEAC  00 00 00 00 00 00 00 00 00 00 00 00 00 00 00 00  |................|
 BEBC  00 00 00 00 00 00 00 00 00 00 00 00 00 00 00 00  |................|
 BECC  00 00 00 00 00 00 00 00 00 00 00 00 00 00 00 00  |................|
 BEDC  00 00 00 00 00 00 00 00 00 00 00 00 00 00 00 00  |................|
 BEEC  00 00 00 00 00 00 00 00 00 00 00 00 00 00 00 00  |................|
 BEFC  00 00 00 00 00 00 00 00 00 00 00 00 00 00 00 00  |................|
 BF0C  00 00 00 00 00 00 00 00 00 00 00 00 00 00 00 00  |................|
 BF1C  00 00 00 00 00 00 00 00 00 00 00 00 00 00 00 00  |................|
 BF2C  00 00 00 00 00 00 00 00 00 00 00 00 00 00 00 00  |................|
 BF3C  00 00 00 00 00 00 00 00 00 00 00 00 00 00 00 00  |................|
 BF4C  00 00 00 00 00 00 00 00 00 00 00 00 00 00 00 00  |................|
 BF5C  00 00 00 00 00 00 00 00 00 00 00 00 00 00 00 00  |................|
 BF6C  00 00 00 00 00 00 00 00 00 00 00 00 00 00 00 00  |................|
 BF7C  00 00 00 00 00 00 00 00 00 00 00 00 00 00 00 00  |................|
 BF8C  00 00 00 00 00 00 00 00 00 00 00 00 00 00 00 00  |................|
 BF9C  00 00 00 00 00 00 00 00 00 00 00 00 00 00 00 00  |................|
 BFAC  00 00 00 00 00 00 00 00 00 00 00 00 00 00 00 00  |................|
 BFBC  00 00 00 00 00 00 00 00 00 00 00 00 00 00 00 00  |................|
 BFCC  00 00 00 00 00 00 00 00 00 00 00 00 00 00 00 00  |................|
 BFDC  00 00 00 00 00 00 00 00 00 00 00 00 00 00 00 00  |................|
 BFEC  00 00 00 00 00 00 00 00 00 00 00 00 00 00 00 00  |................|
 BFFC  00 00 00 00 00 00 00 00 00 00 00 00 00 00 00 00  |................|
 C00C  00 00 00 00 00 00 00 00 00 00 00 00 00 00 00 00  |................|
 C01C  00 00 00 00 00 00 00 00 00 00 00 00 00 00 00 00  |................|
 C02C  00 00 00 00 00 00 00 00 00 00 00 00 00 00 00 00  |................|
 C03C  00 00 00 00 00 00 00 00 00 00 00 00 00 00 00 00  |................|
 C04C  00 00 00 00 00 00 00 00 00 00 00 00 00 00 00 00  |................|
 C05C  00 00 00 00 00 00 00 00 00 00 00 00 00 00 00 00  |................|
 C06C  00 00 00 00 00 00 00 00 00 00 00 00 00 00 00 00  |................|
 C07C  00 00 00 00 00 00 00 00 00 00 00 00 00 00 00 00  |................|
 C08C  00 00 00 00 00 00 00 00 00 00 00 00 00 00 00 00  |................|
 C09C  00 00 00 00 00 00 00 00 00 00 00 00 00 00 00 00  |................|
 C0AC  00 00 00 00 00 00 00 00 00 00 00 00 00 00 00 00  |................|
 C0BC  00 00 00 00 00 00 00 00 00 00 00 00 00 00 00 00  |................|
 C0CC  00 00 00 00 00 00 00 00 00 00 00 00 00 00 00 00  |................|
 C0DC  00 00 00 00 00 00 00 00 00 00 00 00 00 00 00 00  |................|
 C0EC  00 00 00 00 00 00 00 00 00 00 00 00 00 00 00 00  |................|
 C0FC  00 00 00 00 00 00 00 00 00 00 00 00 00 00 00 00  |................|
 C10C  00 00 00 00 00 00 00 00 00 00 00 00 00 00 00 00  |................|
 C11C  00 00 00 00 00 00 00 00 00 00 00 00 00 00 00 00  |................|
 C12C  00 00 00 00 00 00 00 00 00 00 00 00 00 00 00 00  |................|
 C13C  00 00 00 00 00 00 00 00 00 00 00 00 00 00 00 00  |................|
 C14C  00 00 00 00 00 00 00 00 00 00 00 00 00 00 00 00  |................|
 C15C  00 00 00 00 00 00 00 00 00 00 00 00 00 00 00 00  |................|
 C16C  00 00 00 00 00 00 00 00 00 00 00 00 00 00 00 00  |................|
 C17C  00 00 00 00 00 00 00 00 00 00 00 00 00 00 00 00  |................|
 C18C  00 00 00 00 00 00 00 00 00 00 00 00 00 00 00 00  |................|
 C19C  00 00 00 00 00 00 00 00 00 00 00 00 00 00 00 00  |................|
 C1AC  00 00 00 00 00 00 00 00 00 00 00 00 00 00 00 00  |................|
 C1BC  00 00 00 00 00 00 00 00 00 00 00 00 00 00 00 00  |................|
 C1CC  00 00 00 00 00 00 00 00 00 00 00 00 00 00 00 00  |................|
 C1DC  00 00 00 00 00 00 00 00 00 00 00 00 00 00 00 00  |................|
 C1EC  00 00 00 00 00 00 00 00 00 00 00 00 00 00 00 00  |................|
 C1FC  00 00 00 00 00 00 00 00 00 00 00 00 00 00 00 00  |................|
 C20C  00 00 00 00 00 00 00 00 00 00 00 00 00 00 00 00  |................|
 C21C  00 00 00 00 00 00 00 00 00 00 00 00 00 00 00 00  |................|
 C22C  00 00 00 00 00 00 00 00 00 00 00 00 00 00 00 00  |................|
 C23C  00 00 00 00 00 00 00 00 00 00 00 00 00 00 00 00  |................|
 C24C  00 00 00 00 00 00 00 00 00 00 00 00 00 00 00 00  |................|
 C25C  00 00 00 00 00 00 00 00 00 00 00 00 00 00 00 00  |................|
 C26C  00 00 00 00 00 00 00 00 00 00 00 00 00 00 00 00  |................|
 C27C  00 00 00 00 00 00 00 00 00 00 00 00 00 00 00 00  |................|
 C28C  00 00 00 00 00 00 00 00 00 00 00 00 00 00 00 00  |................|
 C29C  00 00 00 00 00 00 00 00 00 00 00 00 00 00 00 00  |................|
 C2AC  00 00 00 00 00 00 00 00 00 00 00 00 00 00 00 00  |................|
 C2BC  00 00 00 00 00 00 00 00 00 00 00 00 00 00 00 00  |................|
 C2CC  00 00 00 00 00 00 00 00 00 00 00 00 00 00 00 00  |................|
 C2DC  00 00 00 00 00 00 00 00 00 00 00 00 00 00 00 00  |................|
 C2EC  00 00 00 00 00 00 00 00 00 00 00 00 00 00 00 00  |................|
 C2FC  00 00 00 00 00 00 00 00 00 00 00 00 00 00 00 00  |................|
 C30C  00 00 00 00 00 00 00 00 00 00 00 00 00 00 00 00  |................|
 C31C  00 00 00 00 00 00 00 00 00 00 00 00 00 00 00 00  |................|
 C32C  00 00 00 00 00 00 00 00 00 00 00 00 00 00 00 00  |................|
 C33C  00 00 00 00 00 00 00 00 00 00 00 00 00 00 00 00  |................|
 C34C  00 00 00 00 00 00 00 00 00 00 00 00 00 00 00 00  |................|
 C35C  00 00 00 00 00 00 00 00 00 00 00 00 00 00 00 00  |................|
 C36C  00 00 00 00 00 00 00 00 00 00 00 00 00 00 00 00  |................|
 C37C  00 00 00 00 00 00 00 00 00 00 00 00 00 00 00 00  |................|
 C38C  00 00 00 00 00 00 00 00 00 00 00 00 00 00 00 00  |................|
 C39C  00 00 00 00 00 00 00 00 00 00 00 00 00 00 00 00  |................|
 C3AC  00 00 00 00 00 00 00 00 00 00 00 00 00 00 00 00  |................|
 C3BC  00 00 00 00 00 00 00 00 00 00 00 00 00 00 00 00  |................|
 C3CC  00 00 00 00 00 00 00 00 00 00 00 00 00 00 00 00  |................|
 C3DC  00 00 00 00 00 00 00 00 00 00 00 00 00 00 00 00  |................|
 C3EC  00 00 00 00 00 00 00 00 00 00 00 00 00 00 00 00  |................|
 C3FC  00 00 00 00 00 00 00 00 00 00 00 00 00 00 00 00  |................|
 C40C  00 00 00 00 00 00 00 00 00 00 00 00 00 00 00 00  |................|
 C41C  00 00 00 00 00 00 00 00 00 00 00 00 00 00 00 00  |................|
 C42C  00 00 00 00 00 00 00 00 00 00 00 00 00 00 00 00  |................|
 C43C  00 00 00 00 00 00 00 00 00 00 00 00 00 00 00 00  |................|
 C44C  00 00 00 00 00 00 00 00 00 00 00 00 00 00 00 00  |................|
 C45C  00 00 00 00 00 00 00 00 00 00 00 00 00 00 00 00  |................|
 C46C  00 00 00 00 00 00 00 00 00 00 00 00 00 00 00 00  |................|
 C47C  00 00 00 00 00 00 00 00 00 00 00 00 00 00 00 00  |................|
 C48C  00 00 00 00 00 00 00 00 00 00 00 00 00 00 00 00  |................|
 C49C  00 00 00 00 00 00 00 00 00 00 00 00 00 00 00 00  |................|
 C4AC  00 00 00 00 00 00 00 00 00 00 00 00 00 00 00 00  |................|
 C4BC  00 00 00 00 00 00 00 00 00 00 00 00 00 00 00 00  |................|
 C4CC  00 00 00 00 00 00 00 00 00 00 00 00 00 00 00 00  |................|
 C4DC  00 00 00 00 00 00 00 00 00 00 00 00 00 00 00 00  |................|
 C4EC  00 00 00 00 00 00 00 00 00 00 00 00 00 00 00 00  |................|
 C4FC  00 00 00 00 00 00 00 00 00 00 00 00 00 00 00 00  |................|
 C50C  00 00 00 00 00 00 00 00 00 00 00 00 00 00 00 00  |................|
 C51C  00 00 00 00 00 00 00 00 00 00 00 00 00 00 00 00  |................|
 C52C  00 00 00 00 00 00 00 00 00 00 00 00 00 00 00 00  |................|
 C53C  00 00 00 00 00 00 00 00 00 00 00 00 00 00 00 00  |................|
 C54C  00 00 00 00 00 00 00 00 00 00 00 00 00 00 00 00  |................|
 C55C  00 00 00 00 00 00 00 00 00 00 00 00 00 00 00 00  |................|
 C56C  00 00 00 00 00 00 00 00 00 00 00 00 00 00 00 00  |................|
 C57C  00 00 00 00 00 00 00 00 00 00 00 00 00 00 00 00  |................|
 C58C  00 00 00 00 00 00 00 00 00 00 00 00 00 00 00 00  |................|
 C59C  00 00 00 00 00 00 00 00 00 00 00 00 00 00 00 00  |................|
 C5AC  00 00 00 00 00 00 00 00 00 00 00 00 00 00 00 00  |................|
 C5BC  00 00 00 00 00 00 00 00 00 00 00 00 00 00 00 00  |................|
 C5CC  00 00 00 00 00 00 00 00 00 00 00 00 00 00 00 00  |................|
 C5DC  00 00 00 00 00 00 00 00 00 00 00 00 00 00 00 00  |................|
 C5EC  00 00 00 00 00 00 00 00 00 00 00 00 00 00 00 00  |................|
 C5FC  00 00 00 00 00 00 00 00 00 00 00 00 00 00 00 00  |................|
 C60C  00 00 00 00 00 00 00 00 00 00 00 00 00 00 00 00  |................|
 C61C  00 00 00 00 00 00 00 00 00 00 00 00 00 00 00 00  |................|
 C62C  00 00 00 00 00 00 00 00 00 00 00 00 00 00 00 00  |................|
 C63C  00 00 00 00 00 00 00 00 00 00 00 00 00 00 00 00  |................|
 C64C  00 00 00 00 00 00 00 00 00 00 00 00 00 00 00 00  |................|
 C65C  00 00 00 00 00 00 00 00 00 00 00 00 00 00 00 00  |................|
 C66C  00 00 00 00 00 00 00 00 00 00 00 00 00 00 00 00  |................|
 C67C  00 00 00 00 00 00 00 00 00 00 00 00 00 00 00 00  |................|
 C68C  00 00 00 00 00 00 00 00 00 00 00 00 00 00 00 00  |................|
 C69C  00 00 00 00 00 00 00 00 00 00 00 00 00 00 00 00  |................|
 C6AC  00 00 00 00 00 00 00 00 00 00 00 00 00 00 00 00  |................|
 C6BC  00 00 00 00 00 00 00 00 00 00 00 00 00 00 00 00  |................|
 C6CC  00 00 00 00 00 00 00 00 00 00 00 00 00 00 00 00  |................|
 C6DC  00 00 00 00 00 00 00 00 00 00 00 00 00 00 00 00  |................|
 C6EC  00 00 00 00 00 00 00 00 00 00 00 00 00 00 00 00  |................|
 C6FC  00 00 00 00 00 00 00 00 00 00 00 00 00 00 00 00  |................|
 C70C  00 00 00 00 00 00 00 00 00 00 00 00 00 00 00 00  |................|
 C71C  00 00 00 00 00 00 00 00 00 00 00 00 00 00 00 00  |................|
 C72C  00 00 00 00 00 00 00 00 00 00 00 00 00 00 00 00  |................|
 C73C  00 00 00 00 00 00 00 00 00 00 00 00 00 00 00 00  |................|
 C74C  00 00 00 00 00 00 00 00 00 00 00 00 00 00 00 00  |................|
 C75C  00 00 00 00 00 00 00 00 00 00 00 00 00 00 00 00  |................|
 C76C  00 00 00 00 00 00 00 00 00 00 00 00 00 00 00 00  |................|
 C77C  00 00 00 00 00 00 00 00 00 00 00 00 00 00 00 00  |................|
 C78C  00 00 00 00 00 00 00 00 00 00 00 00 00 00 00 00  |................|
 C79C  00 00 00 00 00 00 00 00 00 00 00 00 00 00 00 00  |................|
 C7AC  00 00 00 00 00 00 00 00 00 00 00 00 00 00 00 00  |................|
 C7BC  00 00 00 00 00 00 00 00 00 00 00 00 00 00 00 00  |................|
 C7CC  00 00 00 00 00 00 00 00 00 00 00 00 00 00 00 00  |................|
 C7DC  00 00 00 00 00 00 00 00 00 00 00 00 00 00 00 00  |................|
 C7EC  00 00 00 00 00 00 00 00 00 00 00 00 00 00 00 00  |................|
 C7FC  00 00 00 00 00 00 00 00 00 00 00 00 00 00 00 00  |................|
 C80C  00 00 00 00 00 00 00 00 00 00 00 00 00 00 00 00  |................|
 C81C  00 00 00 00 00 00 00 00 00 00 00 00 00 00 00 00  |................|
 C82C  00 00 00 00 00 00 00 00 00 00 00 00 00 00 00 00  |................|
 C83C  00 00 00 00 00 00 00 00 00 00 00 00 00 00 00 00  |................|
 C84C  00 00 00 00 00 00 00 00 00 00 00 00 00 00 00 00  |................|
 C85C  00 00 00 00 00 00 00 00 00 00 00 00 00 00 00 00  |................|
 C86C  00 00 00 00 00 00 00 00 00 00 00 00 00 00 00 00  |................|
 C87C  00 00 00 00 00 00 00 00 00 00 00 00 00 00 00 00  |................|
 C88C  00 00 00 00 00 00 00 00 00 00 00 00 00 00 00 00  |................|
 C89C  00 00 00 00 00 00 00 00 00 00 00 00 00 00 00 00  |................|
 C8AC  00 00 00 00 00 00 00 00 00 00 00 00 00 00 00 00  |................|
 C8BC  00 00 00 00 00 00 00 00 00 00 00 00 00 00 00 00  |................|
 C8CC  00 00 00 00 00 00 00 00 00 00 00 00 00 00 00 00  |................|
 C8DC  00 00 00 00 00 00 00 00 00 00 00 00 00 00 00 00  |................|
 C8EC  00 00 00 00 00 00 00 00 00 00 00 00 00 00 00 00  |................|
 C8FC  00 00 00 00 00 00 00 00 00 00 00 00 00 00 00 00  |................|
 C90C  00 00 00 00 00 00 00 00 00 00 00 00 00 00 00 00  |................|
 C91C  00 00 00 00 00 00 00 00 00 00 00 00 00 00 00 00  |................|
 C92C  00 00 00 00 00 00 00 00 00 00 00 00 00 00 00 00  |................|
 C93C  00 00 00 00 00 00 00 00 00 00 00 00 00 00 00 00  |................|
 C94C  00 00 00 00 00 00 00 00 00 00 00 00 00 00 00 00  |................|
 C95C  00 00 00 00 00 00 00 00 00 00 00 00 00 00 00 00  |................|
 C96C  00 00 00 00 00 00 00 00 00 00 00 00 00 00 00 00  |................|
 C97C  00 00 00 00 00 00 00 00 00 00 00 00 00 00 00 00  |................|
 C98C  00 00 00 00 00 00 00 00 00 00 00 00 00 00 00 00  |................|
 C99C  00 00 00 00 00 00 00 00 00 00 00 00 00 00 00 00  |................|
 C9AC  00 00 00 00 00 00 00 00 00 00 00 00 00 00 00 00  |................|
 C9BC  00 00 00 00 00 00 00 00 00 00 00 00 00 00 00 00  |................|
 C9CC  00 00 00 00 00 00 00 00 00 00 00 00 00 00 00 00  |................|
 C9DC  00 00 00 00 00 00 00 00 00 00 00 00 00 00 00 00  |................|
 C9EC  00 00 00 00 00 00 00 00 00 00 00 00 00 00 00 00  |................|
 C9FC  00 00 00 00 00 00 00 00 00 00 00 00 00 00 00 00  |................|
 CA0C  00 00 00 00 00 00 00 00 00 00 00 00 00 00 00 00  |................|
 CA1C  00 00 00 00 00 00 00 00 00 00 00 00 00 00 00 00  |................|
 CA2C  00 00 00 00 00 00 00 00 00 00 00 00 00 00 00 00  |................|
 CA3C  00 00 00 00 00 00 00 00 00 00 00 00 00 00 00 00  |................|
 CA4C  00 00 00 00 00 00 00 00 00 00 00 00 00 00 00 00  |................|
 CA5C  00 00 00 00 00 00 00 00 00 00 00 00 00 00 00 00  |................|
 CA6C  00 00 00 00 00 00 00 00 00 00 00 00 00 00 00 00  |................|
 CA7C  00 00 00 00 00 00 00 00 00 00 00 00 00 00 00 00  |................|
 CA8C  00 00 00 00 00 00 00 00 00 00 00 00 00 00 00 00  |................|
 CA9C  00 00 00 00 00 00 00 00 00 00 00 00 00 00 00 00  |................|
 CAAC  00 00 00 00 00 00 00 00 00 00 00 00 00 00 00 00  |................|
 CABC  00 00 00 00 00 00 00 00 00 00 00 00 00 00 00 00  |................|
 CACC  00 00 00 00 00 00 00 00 00 00 00 00 00 00 00 00  |................|
 CADC  00 00 00 00 00 00 00 00 00 00 00 00 00 00 00 00  |................|
 CAEC  00 00 00 00 00 00 00 00 00 00 00 00 00 00 00 00  |................|
 CAFC  00 00 00 00 00 00 00 00 00 00 00 00 00 00 00 00  |................|
 CB0C  00 00 00 00 00 00 00 00 00 00 00 00 00 00 00 00  |................|
 CB1C  00 00 00 00 00 00 00 00 00 00 00 00 00 00 00 00  |................|
 CB2C  00 00 00 00 00 00 00 00 00 00 00 00 00 00 00 00  |................|
 CB3C  00 00 00 00 00 00 00 00 00 00 00 00 00 00 00 00  |................|
 CB4C  00 00 00 00 00 00 00 00 00 00 00 00 00 00 00 00  |................|
 CB5C  00 00 00 00 00 00 00 00 00 00 00 00 00 00 00 00  |................|
 CB6C  00 00 00 00 00 00 00 00 00 00 00 00 00 00 00 00  |................|
 CB7C  00 00 00 00 00 00 00 00 00 00 00 00 00 00 00 00  |................|
 CB8C  00 00 00 00 00 00 00 00 00 00 00 00 00 00 00 00  |................|
 CB9C  00 00 00 00 00 00 00 00 00 00 00 00 00 00 00 00  |................|
 CBAC  00 00 00 00 00 00 00 00 00 00 00 00 00 00 00 00  |................|
 CBBC  00 00 00 00 00 00 00 00 00 00 00 00 00 00 00 00  |................|
 CBCC  00 00 00 00 00 00 00 00 00 00 00 00 00 00 00 00  |................|
 CBDC  00 00 00 00 00 00 00 00 00 00 00 00 00 00 00 00  |................|
 CBEC  00 00 00 00 00 00 00 00 00 00 00 00 00 00 00 00  |................|
 CBFC  00 00 00 00 00 00 00 00 00 00 00 00 00 00 00 00  |................|
 CC0C  00 00 00 00 00 00 00 00 00 00 00 00 00 00 00 00  |................|
 CC1C  00 00 00 00 00 00 00 00 00 00 00 00 00 00 00 00  |................|
 CC2C  00 00 00 00 00 00 00 00 00 00 00 00 00 00 00 00  |................|
 CC3C  00 00 00 00 00 00 00 00 00 00 00 00 00 00 00 00  |................|
 CC4C  00 00 00 00 00 00 00 00 00 00 00 00 00 00 00 00  |................|
 CC5C  00 00 00 00 00 00 00 00 00 00 00 00 00 00 00 00  |................|
 CC6C  00 00 00 00 00 00 00 00 00 00 00 00 00 00 00 00  |................|
 CC7C  00 00 00 00 00 00 00 00 00 00 00 00 00 00 00 00  |................|
 CC8C  00 00 00 00 00 00 00 00 00 00 00 00 00 00 00 00  |................|
 CC9C  00 00 00 00 00 00 00 00 00 00 00 00 00 00 00 00  |................|
 CCAC  00 00 00 00 00 00 00 00 00 00 00 00 00 00 00 00  |................|
 CCBC  00 00 00 00 00 00 00 00 00 00 00 00 00 00 00 00  |................|
 CCCC  00 00 00 00 00 00 00 00 00 00 00 00 00 00 00 00  |................|
 CCDC  00 00 00 00 00 00 00 00 00 00 00 00 00 00 00 00  |................|
 CCEC  00 00 00 00 00 00 00 00 00 00 00 00 00 00 00 00  |................|
 CCFC  00 00 00 00 00 00 00 00 00 00 00 00 00 00 00 00  |................|
 CD0C  00 00 00 00 00 00 00 00 00 00 00 00 00 00 00 00  |................|
 CD1C  00 00 00 00 00 00 00 00 00 00 00 00 00 00 00 00  |................|
 CD2C  00 00 00 00 00 00 00 00 00 00 00 00 00 00 00 00  |................|
 CD3C  00 00 00 00 00 00 00 00 00 00 00 00 00 00 00 00  |................|
 CD4C  00 00 00 00 00 00 00 00 00 00 00 00 00 00 00 00  |................|
 CD5C  00 00 00 00 00 00 00 00 00 00 00 00 00 00 00 00  |................|
 CD6C  00 00 00 00 00 00 00 00 00 00 00 00 00 00 00 00  |................|
 CD7C  00 00 00 00 00 00 00 00 00 00 00 00 00 00 00 00  |................|
 CD8C  00 00 00 00 00 00 00 00 00 00 00 00 00 00 00 00  |................|
 CD9C  00 00 00 00 00 00 00 00 00 00 00 00 00 00 00 00  |................|
 CDAC  00 00 00 00 00 00 00 00 00 00 00 00 00 00 00 00  |................|
 CDBC  00 00 00 00 00 00 00 00 00 00 00 00 00 00 00 00  |................|
 CDCC  00 00 00 00 00 00 00 00 00 00 00 00 00 00 00 00  |................|
 CDDC  00 00 00 00 00 00 00 00 00 00 00 00 00 00 00 00  |................|
 CDEC  00 00 00 00 00 00 00 00 00 00 00 00 00 00 00 00  |................|
 CDFC  00 00 00 00 00 00 00 00 00 00 00 00 00 00 00 00  |................|
 CE0C  00 00 00 00 00 00 00 00 00 00 00 00 00 00 00 00  |................|
 CE1C  00 00 00 00 00 00 00 00 00 00 00 00 00 00 00 00  |................|
 CE2C  00 00 00 00 00 00 00 00 00 00 00 00 00 00 00 00  |................|
 CE3C  00 00 00 00 00 00 00 00 00 00 00 00 00 00 00 00  |................|
 CE4C  00 00 00 00 00 00 00 00 00 00 00 00 00 00 00 00  |................|
 CE5C  00 00 00 00 00 00 00 00 00 00 00 00 00 00 00 00  |................|
 CE6C  00 00 00 00 00 00 00 00 00 00 00 00 00 00 00 00  |................|
 CE7C  00 00 00 00 00 00 00 00 00 00 00 00 00 00 00 00  |................|
 CE8C  00 00 00 00 00 00 00 00 00 00 00 00 00 00 00 00  |................|
 CE9C  00 00 00 00 00 00 00 00 00 00 00 00 00 00 00 00  |................|
 CEAC  00 00 00 00 00 00 00 00 00 00 00 00 00 00 00 00  |................|
 CEBC  00 00 00 00 00 00 00 00 00 00 00 00 00 00 00 00  |................|
 CECC  00 00 00 00 00 00 00 00 00 00 00 00 00 00 00 00  |................|
 CEDC  00 00 00 00 00 00 00 00 00 00 00 00 00 00 00 00  |................|
 CEEC  00 00 00 00 00 00 00 00 00 00 00 00 00 00 00 00  |................|
 CEFC  00 00 00 00 00 00 00 00 00 00 00 00 00 00 00 00  |................|
 CF0C  00 00 00 00 00 00 00 00 00 00 00 00 00 00 00 00  |................|
 CF1C  00 00 00 00 00 00 00 00 00 00 00 00 00 00 00 00  |................|
 CF2C  00 00 00 00 00 00 00 00 00 00 00 00 00 00 00 00  |................|
 CF3C  00 00 00 00 00 00 00 00 00 00 00 00 00 00 00 00  |................|
 CF4C  00 00 00 00 00 00 00 00 00 00 00 00 00 00 00 00  |................|
 CF5C  00 00 00 00 00 00 00 00 00 00 00 00 00 00 00 00  |................|
 CF6C  00 00 00 00 00 00 00 00 00 00 00 00 00 00 00 00  |................|
 CF7C  00 00 00 00 00 00 00 00 00 00 00 00 00 00 00 00  |................|
 CF8C  00 00 00 00 00 00 00 00 00 00 00 00 00 00 00 00  |................|
 CF9C  00 00 00 00 00 00 00 00 00 00 00 00 00 00 00 00  |................|
 CFAC  00 00 00 00 00 00 00 00 00 00 00 00 00 00 00 00  |................|
 CFBC  00 00 00 00 00 00 00 00 00 00 00 00 00 00 00 00  |................|
 CFCC  00 00 00 00 00 00 00 00 00 00 00 00 00 00 00 00  |................|
 CFDC  00 00 00 00 00 00 00 00 00 00 00 00 00 00 00 00  |................|
 CFEC  00 00 00 00 00 00 00 00 00 00 00 00 00 00 00 00  |................|
 CFFC  00 00 00 00 00 00 00 00 00 00 00 00 00 00 00 00  |................|
 D00C  00 00 00 00 00 00 00 00 00 00 00 00 00 00 00 00  |................|
 D01C  00 00 00 00 00 00 00 00 00 00 00 00 00 00 00 00  |................|
 D02C  00 00 00 00 00 00 00 00 00 00 00 00 00 00 00 00  |................|
 D03C  00 00 00 00 00 00 00 00 00 00 00 00 00 00 00 00  |................|
 D04C  00 00 00 00 00 00 00 00 00 00 00 00 00 00 00 00  |................|
 D05C  00 00 00 00 00 00 00 00 00 00 00 00 00 00 00 00  |................|
 D06C  00 00 00 00 00 00 00 00 00 00 00 00 00 00 00 00  |................|
 D07C  00 00 00 00 00 00 00 00 00 00 00 00 00 00 00 00  |................|
 D08C  00 00 00 00 00 00 00 00 00 00 00 00 00 00 00 00  |................|
 D09C  00 00 00 00 00 00 00 00 00 00 00 00 00 00 00 00  |................|
 D0AC  00 00 00 00 00 00 00 00 00 00 00 00 00 00 00 00  |................|
 D0BC  00 00 00 00 00 00 00 00 00 00 00 00 00 00 00 00  |................|
 D0CC  00 00 00 00 00 00 00 00 00 00 00 00 00 00 00 00  |................|
 D0DC  00 00 00 00 00 00 00 00 00 00 00 00 00 00 00 00  |................|
 D0EC  00 00 00 00 00 00 00 00 00 00 00 00 00 00 00 00  |................|
 D0FC  00 00 00 00 00 00 00 00 00 00 00 00 00 00 00 00  |................|
 D10C  00 00 00 00 00 00 00 00 00 00 00 00 00 00 00 00  |................|
 D11C  00 00 00 00 00 00 00 00 00 00 00 00 00 00 00 00  |................|
 D12C  00 00 00 00 00 00 00 00 00 00 00 00 00 00 00 00  |................|
 D13C  00 00 00 00 00 00 00 00 00 00 00 00 00 00 00 00  |................|
 D14C  00 00 00 00 00 00 00 00 00 00 00 00 00 00 00 00  |................|
 D15C  00 00 00 00 00 00 00 00 00 00 00 00 00 00 00 00  |................|
 D16C  00 00 00 00 00 00 00 00 00 00 00 00 00 00 00 00  |................|
 D17C  00 00 00 00 00 00 00 00 00 00 00 00 00 00 00 00  |................|
 D18C  00 00 00 00 00 00 00 00 00 00 00 00 00 00 00 00  |................|
 D19C  00 00 00 00 00 00 00 00 00 00 00 00 00 00 00 00  |................|
 D1AC  00 00 00 00 00 00 00 00 00 00 00 00 00 00 00 00  |................|
 D1BC  00 00 00 00 00 00 00 00 00 00 00 00 00 00 00 00  |................|
 D1CC  00 00 00 00 00 00 00 00 00 00 00 00 00 00 00 00  |................|
 D1DC  00 00 00 00 00 00 00 00 00 00 00 00 00 00 00 00  |................|
 D1EC  00 00 00 00 00 00 00 00 00 00 00 00 00 00 00 00  |................|
 D1FC  00 00 00 00 00 00 00 00 00 00 00 00 00 00 00 00  |................|
 D20C  00 00 00 00 00 00 00 00 00 00 00 00 00 00 00 00  |................|
 D21C  00 00 00 00 00 00 00 00 00 00 00 00 00 00 00 00  |................|
 D22C  00 00 00 00 00 00 00 00 00 00 00 00 00 00 00 00  |................|
 D23C  00 00 00 00 00 00 00 00 00 00 00 00 00 00 00 00  |................|
 D24C  00 00 00 00 00 00 00 00 00 00 00 00 00 00 00 00  |................|
 D25C  00 00 00 00 00 00 00 00 00 00 00 00 00 00 00 00  |................|
 D26C  00 00 00 00 00 00 00 00 00 00 00 00 00 00 00 00  |................|
 D27C  00 00 00 00 00 00 00 00 00 00 00 00 00 00 00 00  |................|
 D28C  00 00 00 00 00 00 00 00 00 00 00 00 00 00 00 00  |................|
 D29C  00 00 00 00 00 00 00 00 00 00 00 00 00 00 00 00  |................|
 D2AC  00 00 00 00 00 00 00 00 00 00 00 00 00 00 00 00  |................|
 D2BC  00 00 00 00 00 00 00 00 00 00 00 00 00 00 00 00  |................|
 D2CC  00 00 00 00 00 00 00 00 00 00 00 00 00 00 00 00  |................|
 D2DC  00 00 00 00 00 00 00 00 00 00 00 00 00 00 00 00  |................|
 D2EC  00 00 00 00 00 00 00 00 00 00 00 00 00 00 00 00  |................|
 D2FC  00 00 00 00 00 00 00 00 00 00 00 00 00 00 00 00  |................|
 D30C  00 00 00 00 00 00 00 00 00 00 00 00 00 00 00 00  |................|
 D31C  00 00 00 00 00 00 00 00 00 00 00 00 00 00 00 00  |................|
 D32C  00 00 00 00 00 00 00 00 00 00 00 00 00 00 00 00  |................|
 D33C  00 00 00 00 00 00 00 00 00 00 00 00 00 00 00 00  |................|
 D34C  00 00 00 00 00 00 00 00 00 00 00 00 00 00 00 00  |................|
 D35C  00 00 00 00 00 00 00 00 00 00 00 00 00 00 00 00  |................|
 D36C  00 00 00 00 00 00 00 00 00 00 00 00 00 00 00 00  |................|
 D37C  00 00 00 00 00 00 00 00 00 00 00 00 00 00 00 00  |................|
 D38C  00 00 00 00 00 00 00 00 00 00 00 00 00 00 00 00  |................|
 D39C  00 00 00 00 00 00 00 00 00 00 00 00 00 00 00 00  |................|
 D3AC  00 00 00 00 00 00 00 00 00 00 00 00 00 00 00 00  |................|
 D3BC  00 00 00 00 00 00 00 00 00 00 00 00 00 00 00 00  |................|
 D3CC  00 00 00 00 00 00 00 00 00 00 00 00 00 00 00 00  |................|
 D3DC  00 00 00 00 00 00 00 00 00 00 00 00 00 00 00 00  |................|
 D3EC  00 00 00 00 00 00 00 00 00 00 00 00 00 00 00 00  |................|
 D3FC  00 00 00 00 00 00 00 00 00 00 00 00 00 00 00 00  |................|
 D40C  00 00 00 00 00 00 00 00 00 00 00 00 00 00 00 00  |................|
 D41C  00 00 00 00 00 00 00 00 00 00 00 00 00 00 00 00  |................|
 D42C  00 00 00 00 00 00 00 00 00 00 00 00 00 00 00 00  |................|
 D43C  00 00 00 00 00 00 00 00 00 00 00 00 00 00 00 00  |................|
 D44C  00 00 00 00 00 00 00 00 00 00 00 00 00 00 00 00  |................|
 D45C  00 00 00 00 00 00 00 00 00 00 00 00 00 00 00 00  |................|
 D46C  00 00 00 00 00 00 00 00 00 00 00 00 00 00 00 00  |................|
 D47C  00 00 00 00 00 00 00 00 00 00 00 00 00 00 00 00  |................|
 D48C  00 00 00 00 00 00 00 00 00 00 00 00 00 00 00 00  |................|
 D49C  00 00 00 00 00 00 00 00 00 00 00 00 00 00 00 00  |................|
 D4AC  00 00 00 00 00 00 00 00 00 00 00 00 00 00 00 00  |................|
 D4BC  00 00 00 00 00 00 00 00 00 00 00 00 00 00 00 00  |................|
 D4CC  00 00 00 00 00 00 00 00 00 00 00 00 00 00 00 00  |................|
 D4DC  00 00 00 00 00 00 00 00 00 00 00 00 00 00 00 00  |................|
 D4EC  00 00 00 00 00 00 00 00 00 00 00 00 00 00 00 00  |................|
 D4FC  00 00 00 00 00 00 00 00 00 00 00 00 00 00 00 00  |................|
 D50C  00 00 00 00 00 00 00 00 00 00 00 00 00 00 00 00  |................|
 D51C  00 00 00 00 00 00 00 00 00 00 00 00 00 00 00 00  |................|
 D52C  00 00 00 00 00 00 00 00 00 00 00 00 00 00 00 00  |................|
 D53C  00 00 00 00 00 00 00 00 00 00 00 00 00 00 00 00  |................|
 D54C  00 00 00 00 00 00 00 00 00 00 00 00 00 00 00 00  |................|
 D55C  00 00 00 00 00 00 00 00 00 00 00 00 00 00 00 00  |................|
 D56C  00 00 00 00 00 00 00 00 00 00 00 00 00 00 00 00  |................|
 D57C  00 00 00 00 00 00 00 00 00 00 00 00 00 00 00 00  |................|
 D58C  00 00 00 00 00 00 00 00 00 00 00 00 00 00 00 00  |................|
 D59C  00 00 00 00 00 00 00 00 00 00 00 00 00 00 00 00  |................|
 D5AC  00 00 00 00 00 00 00 00 00 00 00 00 00 00 00 00  |................|
 D5BC  00 00 00 00 00 00 00 00 00 00 00 00 00 00 00 00  |................|
 D5CC  00 00 00 00 00 00 00 00 00 00 00 00 00 00 00 00  |................|
 D5DC  00 00 00 00 00 00 00 00 00 00 00 00 00 00 00 00  |................|
 D5EC  00 00 00 00 00 00 00 00 00 00 00 00 00 00 00 00  |................|
 D5FC  00 00 00 00 00 00 00 00 00 00 00 00 00 00 00 00  |................|
 D60C  00 00 00 00 00 00 00 00 00 00 00 00 00 00 00 00  |................|
 D61C  00 00 00 00 00 00 00 00 00 00 00 00 00 00 00 00  |................|
 D62C  00 00 00 00 00 00 00 00 00 00 00 00 00 00 00 00  |................|
 D63C  00 00 00 00 00 00 00 00 00 00 00 00 00 00 00 00  |................|
 D64C  00 00 00 00 00 00 00 00 00 00 00 00 00 00 00 00  |................|
 D65C  00 00 00 00 00 00 00 00 00 00 00 00 00 00 00 00  |................|
 D66C  00 00 00 00 00 00 00 00 00 00 00 00 00 00 00 00  |................|
 D67C  00 00 00 00 00 00 00 00 00 00 00 00 00 00 00 00  |................|
 D68C  00 00 00 00 00 00 00 00 00 00 00 00 00 00 00 00  |................|
 D69C  00 00 00 00 00 00 00 00 00 00 00 00 00 00 00 00  |................|
 D6AC  00 00 00 00 00 00 00 00 00 00 00 00 00 00 00 00  |................|
 D6BC  00 00 00 00 00 00 00 00 00 00 00 00 00 00 00 00  |................|
 D6CC  00 00 00 00 00 00 00 00 00 00 00 00 00 00 00 00  |................|
 D6DC  00 00 00 00 00 00 00 00 00 00 00 00 00 00 00 00  |................|
 D6EC  00 00 00 00 00 00 00 00 00 00 00 00 00 00 00 00  |................|
 D6FC  00 00 00 00 00 00 00 00 00 00 00 00 00 00 00 00  |................|
 D70C  00 00 00 00 00 00 00 00 00 00 00 00 00 00 00 00  |................|
 D71C  00 00 00 00 00 00 00 00 00 00 00 00 00 00 00 00  |................|
 D72C  00 00 00 00 00 00 00 00 00 00 00 00 00 00 00 00  |................|
 D73C  00 00 00 00 00 00 00 00 00 00 00 00 00 00 00 00  |................|
 D74C  00 00 00 00 00 00 00 00 00 00 00 00 00 00 00 00  |................|
 D75C  00 00 00 00 00 00 00 00 00 00 00 00 00 00 00 00  |................|
 D76C  00 00 00 00 00 00 00 00 00 00 00 00 00 00 00 00  |................|
 D77C  00 00 00 00 00 00 00 00 00 00 00 00 00 00 00 00  |................|
 D78C  00 00 00 00 00 00 00 00 00 00 00 00 00 00 00 00  |................|
 D79C  00 00 00 00 00 00 00 00 00 00 00 00 00 00 00 00  |................|
 D7AC  00 00 00 00 00 00 00 00 00 00 00 00 00 00 00 00  |................|
 D7BC  00 00 00 00 00 00 00 00 00 00 00 00 00 00 00 00  |................|
 D7CC  00 00 00 00 00 00 00 00 00 00 00 00 00 00 00 00  |................|
 D7DC  00 00 00 00 00 00 00 00 00 00 00 00 00 00 00 00  |................|
 D7EC  00 00 00 00 00 00 00 00 00 00 00 00 00 00 00 00  |................|
 D7FC  00 00 00 00 00 00 00 00 00 00 00 00 00 00 00 00  |................|
 D80C  00 00 00 00 00 00 00 00 00 00 00 00 00 00 00 00  |................|
 D81C  00 00 00 00 00 00 00 00 00 00 00 00 00 00 00 00  |................|
 D82C  00 00 00 00 00 00 00 00 00 00 00 00 00 00 00 00  |................|
 D83C  00 00 00 00 00 00 00 00 00 00 00 00 00 00 00 00  |................|
 D84C  00 00 00 00 00 00 00 00 00 00 00 00 00 00 00 00  |................|
 D85C  00 00 00 00 00 00 00 00 00 00 00 00 00 00 00 00  |................|
 D86C  00 00 00 00 00 00 00 00 00 00 00 00 00 00 00 00  |................|
 D87C  00 00 00 00 00 00 00 00 00 00 00 00 00 00 00 00  |................|
 D88C  00 00 00 00 00 00 00 00 00 00 00 00 00 00 00 00  |................|
 D89C  00 00 00 00 00 00 00 00 00 00 00 00 00 00 00 00  |................|
 D8AC  00 00 00 00 00 00 00 00 00 00 00 00 00 00 00 00  |................|
 D8BC  00 00 00 00 00 00 00 00 00 00 00 00 00 00 00 00  |................|
 D8CC  00 00 00 00 00 00 00 00 00 00 00 00 00 00 00 00  |................|
 D8DC  00 00 00 00 00 00 00 00 00 00 00 00 00 00 00 00  |................|
 D8EC  00 00 00 00 00 00 00 00 00 00 00 00 00 00 00 00  |................|
 D8FC  00 00 00 00 00 00 00 00 00 00 00 00 00 00 00 00  |................|
 D90C  00 00 00 00 00 00 00 00 00 00 00 00 00 00 00 00  |................|
 D91C  00 00 00 00 00 00 00 00 00 00 00 00 00 00 00 00  |................|
 D92C  00 00 00 00 00 00 00 00 00 00 00 00 00 00 00 00  |................|
 D93C  00 00 00 00 00 00 00 00 00 00 00 00 00 00 00 00  |................|
 D94C  00 00 00 00 00 00 00 00 00 00 00 00 00 00 00 00  |................|
 D95C  00 00 00 00 00 00 00 00 00 00 00 00 00 00 00 00  |................|
 D96C  00 00 00 00 00 00 00 00 00 00 00 00 00 00 00 00  |................|
 D97C  00 00 00 00 00 00 00 00 00 00 00 00 00 00 00 00  |................|
 D98C  00 00 00 00 00 00 00 00 00 00 00 00 00 00 00 00  |................|
 D99C  00 00 00 00 00 00 00 00 00 00 00 00 00 00 00 00  |................|
 D9AC  00 00 00 00 00 00 00 00 00 00 00 00 00 00 00 00  |................|
 D9BC  00 00 00 00 00 00 00 00 00 00 00 00 00 00 00 00  |................|
 D9CC  00 00 00 00 00 00 00 00 00 00 00 00 00 00 00 00  |................|
 D9DC  00 00 00 00 00 00 00 00 00 00 00 00 00 00 00 00  |................|
 D9EC  00 00 00 00 00 00 00 00 00 00 00 00 00 00 00 00  |................|
 D9FC  00 00 00 00 00 00 00 00 00 00 00 00 00 00 00 00  |................|
 DA0C  00 00 00 00 00 00 00 00 00 00 00 00 00 00 00 00  |................|
 DA1C  00 00 00 00 00 00 00 00 00 00 00 00 00 00 00 00  |................|
 DA2C  00 00 00 00 00 00 00 00 00 00 00 00 00 00 00 00  |................|
 DA3C  00 00 00 00 00 00 00 00 00 00 00 00 00 00 00 00  |................|
 DA4C  00 00 00 00 00 00 00 00 00 00 00 00 00 00 00 00  |................|
 DA5C  00 00 00 00 00 00 00 00 00 00 00 00 00 00 00 00  |................|
 DA6C  00 00 00 00 00 00 00 00 00 00 00 00 00 00 00 00  |................|
 DA7C  00 00 00 00 00 00 00 00 00 00 00 00 00 00 00 00  |................|
 DA8C  00 00 00 00 00 00 00 00 00 00 00 00 00 00 00 00  |................|
 DA9C  00 00 00 00 00 00 00 00 00 00 00 00 00 00 00 00  |................|
 DAAC  00 00 00 00 00 00 00 00 00 00 00 00 00 00 00 00  |................|
 DABC  00 00 00 00 00 00 00 00 00 00 00 00 00 00 00 00  |................|
 DACC  00 00 00 00 00 00 00 00 00 00 00 00 00 00 00 00  |................|
 DADC  00 00 00 00 00 00 00 00 00 00 00 00 00 00 00 00  |................|
 DAEC  00 00 00 00 00 00 00 00 00 00 00 00 00 00 00 00  |................|
 DAFC  00 00 00 00 00 00 00 00 00 00 00 00 00 00 00 00  |................|
 DB0C  00 00 00 00 00 00 00 00 00 00 00 00 00 00 00 00  |................|
 DB1C  00 00 00 00 00 00 00 00 00 00 00 00 00 00 00 00  |................|
 DB2C  00 00 00 00 00 00 00 00 00 00 00 00 00 00 00 00  |................|
 DB3C  00 00 00 00 00 00 00 00 00 00 00 00 00 00 00 00  |................|
 DB4C  00 00 00 00 00 00 00 00 00 00 00 00 00 00 00 00  |................|
 DB5C  00 00 00 00 00 00 00 00 00 00 00 00 00 00 00 00  |................|
 DB6C  00 00 00 00 00 00 00 00 00 00 00 00 00 00 00 00  |................|
 DB7C  00 00 00 00 00 00 00 00 00 00 00 00 00 00 00 00  |................|
 DB8C  00 00 00 00 00 00 00 00 00 00 00 00 00 00 00 00  |................|
 DB9C  00 00 00 00 00 00 00 00 00 00 00 00 00 00 00 00  |................|
 DBAC  00 00 00 00 00 00 00 00 00 00 00 00 00 00 00 00  |................|
 DBBC  00 00 00 00 00 00 00 00 00 00 00 00 00 00 00 00  |................|
 DBCC  00 00 00 00 00 00 00 00 00 00 00 00 00 00 00 00  |................|
 DBDC  00 00 00 00 00 00 00 00 00 00 00 00 00 00 00 00  |................|
 DBEC  00 00 00 00 00 00 00 00 00 00 00 00 00 00 00 00  |................|
 DBFC  00 00 00 00 00 00 00 00 00 00 00 00 00 00 00 00  |................|
 DC0C  00 00 00 00 00 00 00 00 00 00 00 00 00 00 00 00  |................|
 DC1C  00 00 00 00 00 00 00 00 00 00 00 00 00 00 00 00  |................|
 DC2C  00 00 00 00 00 00 00 00 00 00 00 00 00 00 00 00  |................|
 DC3C  00 00 00 00 00 00 00 00 00 00 00 00 00 00 00 00  |................|
 DC4C  00 00 00 00 00 00 00 00 00 00 00 00 00 00 00 00  |................|
 DC5C  00 00 00 00 00 00 00 00 00 00 00 00 00 00 00 00  |................|
 DC6C  00 00 00 00 00 00 00 00 00 00 00 00 00 00 00 00  |................|
 DC7C  00 00 00 00 00 00 00 00 00 00 00 00 00 00 00 00  |................|
 DC8C  00 00 00 00 00 00 00 00 00 00 00 00 00 00 00 00  |................|
 DC9C  00 00 00 00 00 00 00 00 00 00 00 00 00 00 00 00  |................|
 DCAC  00 00 00 00 00 00 00 00 00 00 00 00 00 00 00 00  |................|
 DCBC  00 00 00 00 00 00 00 00 00 00 00 00 00 00 00 00  |................|
 DCCC  00 00 00 00 00 00 00 00 00 00 00 00 00 00 00 00  |................|
 DCDC  00 00 00 00 00 00 00 00 00 00 00 00 00 00 00 00  |................|
 DCEC  00 00 00 00 00 00 00 00 00 00 00 00 00 00 00 00  |................|
 DCFC  00 00 00 00 00 00 00 00 00 00 00 00 00 00 00 00  |................|
 DD0C  00 00 00 00 00 00 00 00 00 00 00 00 00 00 00 00  |................|
 DD1C  00 00 00 00 00 00 00 00 00 00 00 00 00 00 00 00  |................|
 DD2C  00 00 00 00 00 00 00 00 00 00 00 00 00 00 00 00  |................|
 DD3C  00 00 00 00 00 00 00 00 00 00 00 00 00 00 00 00  |................|
 DD4C  00 00 00 00 00 00 00 00 00 00 00 00 00 00 00 00  |................|
 DD5C  00 00 00 00 00 00 00 00 00 00 00 00 00 00 00 00  |................|
 DD6C  00 00 00 00 00 00 00 00 00 00 00 00 00 00 00 00  |................|
 DD7C  00 00 00 00 00 00 00 00 00 00 00 00 00 00 00 00  |................|
 DD8C  00 00 00 00 00 00 00 00 00 00 00 00 00 00 00 00  |................|
 DD9C  00 00 00 00 00 00 00 00 00 00 00 00 00 00 00 00  |................|
 DDAC  00 00 00 00 00 00 00 00 00 00 00 00 00 00 00 00  |................|
 DDBC  00 00 00 00 00 00 00 00 00 00 00 00 00 00 00 00  |................|
 DDCC  00 00 00 00 00 00 00 00 00 00 00 00 00 00 00 00  |................|
 DDDC  00 00 00 00 00 00 00 00 00 00 00 00 00 00 00 00  |................|
 DDEC  00 00 00 00 00 00 00 00 00 00 00 00 00 00 00 00  |................|
 DDFC  00 00 00 00 00 00 00 00 00 00 00 00 00 00 00 00  |................|
 DE0C  00 00 00 00 00 00 00 00 00 00 00 00 00 00 00 00  |................|
 DE1C  00 00 00 00 00 00 00 00 00 00 00 00 00 00 00 00  |................|
 DE2C  00 00 00 00 00 00 00 00 00 00 00 00 00 00 00 00  |................|
 DE3C  00 00 00 00 00 00 00 00 00 00 00 00 00 00 00 00  |................|
 DE4C  00 00 00 00 00 00 00 00 00 00 00 00 00 00 00 00  |................|
 DE5C  00 00 00 00 00 00 00 00 00 00 00 00 00 00 00 00  |................|
 DE6C  00 00 00 00 00 00 00 00 00 00 00 00 00 00 00 00  |................|
 DE7C  00 00 00 00 00 00 00 00 00 00 00 00 00 00 00 00  |................|
 DE8C  00 00 00 00 00 00 00 00 00 00 00 00 00 00 00 00  |................|
 DE9C  00 00 00 00 00 00 00 00 00 00 00 00 00 00 00 00  |................|
 DEAC  00 00 00 00 00 00 00 00 00 00 00 00 00 00 00 00  |................|
 DEBC  00 00 00 00 00 00 00 00 00 00 00 00 00 00 00 00  |................|
 DECC  00 00 00 00 00 00 00 00 00 00 00 00 00 00 00 00  |................|
 DEDC  00 00 00 00 00 00 00 00 00 00 00 00 00 00 00 00  |................|
 DEEC  00 00 00 00 00 00 00 00 00 00 00 00 00 00 00 00  |................|
 DEFC  00 00 00 00 00 00 00 00 00 00 00 00 00 00 00 00  |................|
 DF0C  00 00 00 00 00 00 00 00 00 00 00 00 00 00 00 00  |................|
 DF1C  00 00 00 00 00 00 00 00 00 00 00 00 00 00 00 00  |................|
 DF2C  00 00 00 00 00 00 00 00 00 00 00 00 00 00 00 00  |................|
 DF3C  00 00 00 00 00 00 00 00 00 00 00 00 00 00 00 00  |................|
 DF4C  00 00 00 00 00 00 00 00 00 00 00 00 00 00 00 00  |................|
 DF5C  00 00 00 00 00 00 00 00 00 00 00 00 00 00 00 00  |................|
 DF6C  00 00 00 00 00 00 00 00 00 00 00 00 00 00 00 00  |................|
 DF7C  00 00 00 00 00 00 00 00 00 00 00 00 00 00 00 00  |................|
 DF8C  00 00 00 00 00 00 00 00 00 00 00 00 00 00 00 00  |................|
 DF9C  00 00 00 00 00 00 00 00 00 00 00 00 00 00 00 00  |................|
 DFAC  00 00 00 00 00 00 00 00 00 00 00 00 00 00 00 00  |................|
 DFBC  00 00 00 00 00 00 00 00 00 00 00 00 00 00 00 00  |................|
 DFCC  00 00 00 00 00 00 00 00 00 00 00 00 00 00 00 00  |................|
 DFDC  00 00 00 00 00 00 00 00 00 00 00 00 00 00 00 00  |................|
 DFEC  00 00 00 00 00 00 00 00 00 00 00 00 00 00 00 00  |................|
 DFFC  00 00 00 00                                      |....            |
 E000  00        BRK  
 E001  00 00 00 00 00 00 00 00 00 00 00 00 00 00 00 00  |................|
 E011  00 00 00 00 00 00 00 00 00 00 00 00 00 00 00 00  |................|
 E021  00 00 00 00 00 00 00 00 00 00 00 00 00 00 00 00  |................|
 E031  00 00 00 00 00 00 00 00 00 00 00 00 00 00 00 00  |................|
 E041  00 00 00 00 00 00 00 00 00 00 00 00 00 00 00 00  |................|
 E051  00 00 00 00 00 00 00 00 00 00 00 00 00 00 00 00  |................|
 E061  00 00 00 00 00 00 00 00 00 00 00 00 00 00 00 00  |................|
 E071  00 00 00 00 00 00 00 00 00 00 00 00 00 00 00 00  |................|
 E081  00 00 00 00 00 00 00 00 00 00 00 00 00 00 00 00  |................|
 E091  00 00 00 00 00 00 00 00 00 00 00 00 00 00 00 00  |................|
 E0A1  00 00 00 00 00 00 00 00 00 00 00 00 00 00 00 00  |................|
 E0B1  00 00 00 00 00 00 00 00 00 00 00 00 00 00 00 00  |................|
 E0C1  00 00 00 00 00 00 00 00 00 00 00 00 00 00 00 00  |................|
 E0D1  00 00 00 00 00 00 00 00 00 00 00 00 00 00 00 00  |................|
 E0E1  00 00 00 00 00 00 00 00 00 00 00 00 00 00 00 00  |................|
 E0F1  00 00 00 00 00 00 00 00 00 00 00 00 00 00 00 00  |................|
 E101  00 00 00 00 00 00 00 00 00 00 00 00 00 00 00 00  |................|
 E111  00 00 00 00 00 00 00 00 00 00 00 00 00 00 00 00  |................|
 E121  00 00 00 00 00 00 00 00 00 00 00 00 00 00 00 00  |................|
 E131  00 00 00 00 00 00 00 00 00 00 00 00 00 00 00 00  |................|
 E141  00 00 00 00 00 00 00 00 00 00 00 00 00 00 00 00  |................|
 E151  00 00 00 00 00 00 00 00 00 00 00 00 00 00 00 00  |................|
 E161  00 00 00 00 00 00 00 00 00 00 00 00 00 00 00 00  |................|
 E171  00 00 00 00 00 00 00 00 00 00 00 00 00 00 00 00  |................|
 E181  00 00 00 00 00 00 00 00 00 00 00 00 00 00 00 00  |................|
 E191  00 00 00 00 00 00 00 00 00 00 00 00 00 00 00 00  |................|
 E1A1  00 00 00 00 00 00 00 00 00 00 00 00 00 00 00 00  |................|
 E1B1  00 00 00 00 00 00 00 00 00 00 00 00 00 00 00 00  |................|
 E1C1  00 00 00 00 00 00 00 00 00 00 00 00 00 00 00 00  |................|
 E1D1  00 00 00 00 00 00 00 00 00 00 00 00 00 00 00 00  |................|
 E1E1  00 00 00 00 00 00 00 00 00 00 00 00 00 00 00 00  |................|
 E1F1  00 00 00 00 00 00 00 00 00 00 00 00 00 00 00 00  |................|
 E201  00 00 00 00 00 00 00 00 00 00 00 00 00 00 00 00  |................|
 E211  00 00 00 00 00 00 00 00 00 00 00 00 00 00 00 00  |................|
 E221  00 00 00 00 00 00 00 00 00 00 00 00 00 00 00 00  |................|
 E231  00 00 00 00 00 00 00 00 00 00 00 00 00 00 00 00  |................|
 E241  00 00 00 00 00 00 00 00 00 00 00 00 00 00 00 00  |................|
 E251  00 00 00 00 00 00 00 00 00 00 00 00 00 00 00 00  |................|
 E261  00 00 00 00 00 00 00 00 00 00 00 00 00 00 00 00  |................|
 E271  00 00 00 00 00 00 00 00 00 00 00 00 00 00 00 00  |................|
 E281  00 00 00 00 00 00 00 00 00 00 00 00 00 00 00 00  |................|
 E291  00 00 00 00 00 00 00 00 00 00 00 00 00 00 00 00  |................|
 E2A1  00 00 00 00 00 00 00 00 00 00 00 00 00 00 00 00  |................|
 E2B1  00 00 00 00 00 00 00 00 00 00 00 00 00 00 00 00  |................|
 E2C1  00 00 00 00 00 00 00 00 00 00 00 00 00 00 00 00  |................|
 E2D1  00 00 00 00 00 00 00 00 00 00 00 00 00 00 00 00  |................|
 E2E1  00 00 00 00 00 00 00 00 00 00 00 00 00 00 00 00  |................|
 E2F1  00 00 00 00 00 00 00 00 00 00 00 00 00 00 00 00  |................|
 E301  00 00 00 00 00 00 00 00 00 00 00 00 00 00 00 00  |................|
 E311  00 00 00 00 00 00 00 00 00 00 00 00 00 00 00 00  |................|
 E321  00 00 00 00 00 00 00 00 00 00 00 00 00 00 00 00  |................|
 E331  00 00 00 00 00 00 00 00 00 00 00 00 00 00 00 00  |................|
 E341  00 00 00 00 00 00 00 00 00 00 00 00 00 00 00 00  |................|
 E351  00 00 00 00 00 00 00 00 00 00 00 00 00 00 00 00  |................|
 E361  00 00 00 00 00 00 00 00 00 00 00 00 00 00 00 00  |................|
 E371  00 00 00 00 00 00 00 00 00 00 00 00 00 00 00 00  |................|
 E381  00 00 00 00 00 00 00 00 00 00 00 00 00 00 00 00  |................|
 E391  00 00 00 00 00 00 00 00 00 00 00 00 00 00 00 00  |................|
 E3A1  00 00 00 00 00 00 00 00 00 00 00 00 00 00 00 00  |................|
 E3B1  00 00 00 00 00 00 00 00 00 00 00 00 00 00 00 00  |................|
 E3C1  00 00 00 00 00 00 00 00 00 00 00 00 00 00 00 00  |................|
 E3D1  00 00 00 00 00 00 00 00 00 00 00 00 00 00 00 00  |................|
 E3E1  00 00 00 00 00 00 00 00 00 00 00 00 00 00 00 00  |................|
 E3F1  00 00 00 00 00 00 00 00 00 00 00 00 00 00 00 00  |................|
 E401  00 00 00 00 00 00 00 00 00 00 00 00 00 00 00 00  |................|
 E411  00 00 00 00 00 00 00 00 00 00 00 00 00 00 00 00  |................|
 E421  00 00 00 00 00 00 00 00 00 00 00 00 00 00 00 00  |................|
 E431  00 00 00 00 00 00 00 00 00 00 00 00 00 00 00 00  |................|
 E441  00 00 00 00 00 00 00 00 00 00 00 00 00 00 00 00  |................|
 E451  00 00 00 00 00 00 00 00 00 00 00 00 00 00 00 00  |................|
 E461  00 00 00 00 00 00 00 00 00 00 00 00 00 00 00 00  |................|
 E471  00 00 00 00 00 00 00 00 00 00 00 00 00 00 00 00  |................|
 E481  00 00 00 00 00 00 00 00 00 00 00 00 00 00 00 00  |................|
 E491  00 00 00 00 00 00 00 00 00 00 00 00 00 00 00 00  |................|
 E4A1  00 00 00 00 00 00 00 00 00 00 00 00 00 00 00 00  |................|
 E4B1  00 00 00 00 00 00 00 00 00 00 00 00 00 00 00 00  |................|
 E4C1  00 00 00 00 00 00 00 00 00 00 00 00 00 00 00 00  |................|
 E4D1  00 00 00 00 00 00 00 00 00 00 00 00 00 00 00 00  |................|
 E4E1  00 00 00 00 00 00 00 00 00 00 00 00 00 00 00 00  |................|
 E4F1  00 00 00 00 00 00 00 00 00 00 00 00 00 00 00 00  |................|
 E501  00 00 00 00 00 00 00 00 00 00 00 00 00 00 00 00  |................|
 E511  00 00 00 00 00 00 00 00 00 00 00 00 00 00 00 00  |................|
 E521  00 00 00 00 00 00 00 00 00 00 00 00 00 00 00 00  |................|
 E531  00 00 00 00 00 00 00 00 00 00 00 00 00 00 00 00  |................|
 E541  00 00 00 00 00 00 00 00 00 00 00 00 00 00 00 00  |................|
 E551  00 00 00 00 00 00 00 00 00 00 00 00 00 00 00 00  |................|
 E561  00 00 00 00 00 00 00 00 00 00 00 00 00 00 00 00  |................|
 E571  00 00 00 00 00 00 00 00 00 00 00 00 00 00 00 00  |................|
 E581  00 00 00 00 00 00 00 00 00 00 00 00 00 00 00 00  |................|
 E591  00 00 00 00 00 00 00 00 00 00 00 00 00 00 00 00  |................|
 E5A1  00 00 00 00 00 00 00 00 00 00 00 00 00 00 00 00  |................|
 E5B1  00 00 00 00 00 00 00 00 00 00 00 00 00 00 00 00  |................|
 E5C1  00 00 00 00 00 00 00 00 00 00 00 00 00 00 00 00  |................|
 E5D1  00 00 00 00 00 00 00 00 00 00 00 00 00 00 00 00  |................|
 E5E1  00 00 00 00 00 00 00 00 00 00 00 00 00 00 00 00  |................|
 E5F1  00 00 00 00 00 00 00 00 00 00 00 00 00 00 00 00  |................|
 E601  00 00 00 00 00 00 00 00 00 00 00 00 00 00 00 00  |................|
 E611  00 00 00 00 00 00 00 00 00 00 00 00 00 00 00 00  |................|
 E621  00 00 00 00 00 00 00 00 00 00 00 00 00 00 00 00  |................|
 E631  00 00 00 00 00 00 00 00 00 00 00 00 00 00 00 00  |................|
 E641  00 00 00 00 00 00 00 00 00 00 00 00 00 00 00 00  |................|
 E651  00 00 00 00 00 00 00 00 00 00 00 00 00 00 00 00  |................|
 E661  00 00 00 00 00 00 00 00 00 00 00 00 00 00 00 00  |................|
 E671  00 00 00 00 00 00 00 00 00 00 00 00 00 00 00 00  |................|
 E681  00 00 00 00 00 00 00 00 00 00 00 00 00 00 00 00  |................|
 E691  00 00 00 00 00 00 00 00 00 00 00 00 00 00 00 00  |................|
 E6A1  00 00 00 00 00 00 00 00 00 00 00 00 00 00 00 00  |................|
 E6B1  00 00 00 00 00 00 00 00 00 00 00 00 00 00 00 00  |................|
 E6C1  00 00 00 00 00 00 00 00 00 00 00 00 00 00 00 00  |................|
 E6D1  00 00 00 00 00 00 00 00 00 00 00 00 00 00 00 00  |................|
 E6E1  00 00 00 00 00 00 00 00 00 00 00 00 00 00 00 00  |................|
 E6F1  00 00 00 00 00 00 00 00 00 00 00 00 00 00 00 00  |................|
 E701  00 00 00 00 00 00 00 00 00 00 00 00 00 00 00 00  |................|
 E711  00 00 00 00 00 00 00 00 00 00 00 00 00 00 00 00  |................|
 E721  00 00 00 00 00 00 00 00 00 00 00 00 00 00 00 00  |................|
 E731  00 00 00 00 00 00 00 00 00 00 00 00 00 00 00 00  |................|
 E741  00 00 00 00 00 00 00 00 00 00 00 00 00 00 00 00  |................|
 E751  00 00 00 00 00 00 00 00 00 00 00 00 00 00 00 00  |................|
 E761  00 00 00 00 00 00 00 00 00 00 00 00 00 00 00 00  |................|
 E771  00 00 00 00 00 00 00 00 00 00 00 00 00 00 00 00  |................|
 E781  00 00 00 00 00 00 00 00 00 00 00 00 00 00 00 00  |................|
 E791  00 00 00 00 00 00 00 00 00 00 00 00 00 00 00 00  |................|
 E7A1  00 00 00 00 00 00 00 00 00 00 00 00 00 00 00 00  |................|
 E7B1  00 00 00 00 00 00 00 00 00 00 00 00 00 00 00 00  |................|
 E7C1  00 00 00 00 00 00 00 00 00 00 00 00 00 00 00 00  |................|
 E7D1  00 00 00 00 00 00 00 00 00 00 00 00 00 00 00 00  |................|
 E7E1  00 00 00 00 00 00 00 00 00 00 00 00 00 00 00 00  |................|
 E7F1  00 00 00 00 00 00 00 00 00 00 00 00 00 00 00 00  |................|
 E801  00 00 00 00 00 00 00 00 00 00 00 00 00 00 00 00  |................|
 E811  00 00 00 00 00 00 00 00 00 00 00 00 00 00 00 00  |................|
 E821  00 00 00 00 00 00 00 00 00 00 00 00 00 00 00 00  |................|
 E831  00 00 00 00 00 00 00 00 00 00 00 00 00 00 00 00  |................|
 E841  00 00 00 00 00 00 00 00 00 00 00 00 00 00 00 00  |................|
 E851  00 00 00 00 00 00 00 00 00 00 00 00 00 00 00 00  |................|
 E861  00 00 00 00 00 00 00 00 00 00 00 00 00 00 00 00  |................|
 E871  00 00 00 00 00 00 00 00 00 00 00 00 00 00 00 00  |................|
 E881  00 00 00 00 00 00 00 00 00 00 00 00 00 00 00 00  |................|
 E891  00 00 00 00 00 00 00 00 00 00 00 00 00 00 00 00  |................|
 E8A1  00 00 00 00 00 00 00 00 00 00 00 00 00 00 00 00  |................|
 E8B1  00 00 00 00 00 00 00 00 00 00 00 00 00 00 00 00  |................|
 E8C1  00 00 00 00 00 00 00 00 00 00 00 00 00 00 00 00  |................|
 E8D1  00 00 00 00 00 00 00 00 00 00 00 00 00 00 00 00  |................|
 E8E1  00 00 00 00 00 00 00 00 00 00 00 00 00 00 00 00  |................|
 E8F1  00 00 00 00 00 00 00 00 00 00 00 00 00 00 00 00  |................|
 E901  00 00 00 00 00 00 00 00 00 00 00 00 00 00 00 00  |................|
 E911  00 00 00 00 00 00 00 00 00 00 00 00 00 00 00 00  |................|
 E921  00 00 00 00 00 00 00 00 00 00 00 00 00 00 00 00  |................|
 E931  00 00 00 00 00 00 00 00 00 00 00 00 00 00 00 00  |................|
 E941  00 00 00 00 00 00 00 00 00 00 00 00 00 00 00 00  |................|
 E951  00 00 00 00 00 00 00 00 00 00 00 00 00 00 00 00  |................|
 E961  00 00 00 00 00 00 00 00 00 00 00 00 00 00 00 00  |................|
 E971  00 00 00 00 00 00 00 00 00 00 00 00 00 00 00 00  |................|
 E981  00 00 00 00 00 00 00 00 00 00 00 00 00 00 00 00  |................|
 E991  00 00 00 00 00 00 00 00 00 00 00 00 00 00 00 00  |................|
 E9A1  00 00 00 00 00 00 00 00 00 00 00 00 00 00 00 00  |................|
 E9B1  00 00 00 00 00 00 00 00 00 00 00 00 00 00 00 00  |................|
 E9C1  00 00 00 00 00 00 00 00 00 00 00 00 00 00 00 00  |................|
 E9D1  00 00 00 00 00 00 00 00 00 00 00 00 00 00 00 00  |................|
 E9E1  00 00 00 00 00 00 00 00 00 00 00 00 00 00 00 00  |................|
 E9F1  00 00 00 00 00 00 00 00 00 00 00 00 00 00 00 00  |................|
 EA01  00 00 00 00 00 00 00 00 00 00 00 00 00 00 00 00  |................|
 EA11  00 00 00 00 00 00 00 00 00 00 00 00 00 00 00 00  |................|
 EA21  00 00 00 00 00 00 00 00 00 00 00 00 00 00 00 00  |................|
 EA31  00 00 00 00 00 00 00 00 00 00 00 00 00 00 00 00  |................|
 EA41  00 00 00 00 00 00 00 00 00 00 00 00 00 00 00 00  |................|
 EA51  00 00 00 00 00 00 00 00 00 00 00 00 00 00 00 00  |................|
 EA61  00 00 00 00 00 00 00 00 00 00 00 00 00 00 00 00  |................|
 EA71  00 00 00 00 00 00 00 00 00 00 00 00 00 00 00 00  |................|
 EA81  00 00 00 00 00 00 00 00 00 00 00 00 00 00 00 00  |................|
 EA91  00 00 00 00 00 00 00 00 00 00 00 00 00 00 00 00  |................|
 EAA1  00 00 00 00 00 00 00 00 00 00 00 00 00 00 00 00  |................|
 EAB1  00 00 00 00 00 00 00 00 00 00 00 00 00 00 00 00  |................|
 EAC1  00 00 00 00 00 00 00 00 00 00 00 00 00 00 00 00  |................|
 EAD1  00 00 00 00 00 00 00 00 00 00 00 00 00 00 00 00  |................|
 EAE1  00 00 00 00 00 00 00 00 00 00 00 00 00 00 00 00  |................|
 EAF1  00 00 00 00 00 00 00 00 00 00 00 00 00 00 00 00  |................|
 EB01  00 00 00 00 00 00 00 00 00 00 00 00 00 00 00 00  |................|
 EB11  00 00 00 00 00 00 00 00 00 00 00 00 00 00 00 00  |................|
 EB21  00 00 00 00 00 00 00 00 00 00 00 00 00 00 00 00  |................|
 EB31  00 00 00 00 00 00 00 00 00 00 00 00 00 00 00 00  |................|
 EB41  00 00 00 00 00 00 00 00 00 00 00 00 00 00 00 00  |................|
 EB51  00 00 00 00 00 00 00 00 00 00 00 00 00 00 00 00  |................|
 EB61  00 00 00 00 00 00 00 00 00 00 00 00 00 00 00 00  |................|
 EB71  00 00 00 00 00 00 00 00 00 00 00 00 00 00 00 00  |................|
 EB81  00 00 00 00 00 00 00 00 00 00 00 00 00 00 00 00  |................|
 EB91  00 00 00 00 00 00 00 00 00 00 00 00 00 00 00 00  |................|
 EBA1  00 00 00 00 00 00 00 00 00 00 00 00 00 00 00 00  |................|
 EBB1  00 00 00 00 00 00 00 00 00 00 00 00 00 00 00 00  |................|
 EBC1  00 00 00 00 00 00 00 00 00 00 00 00 00 00 00 00  |................|
 EBD1  00 00 00 00 00 00 00 00 00 00 00 00 00 00 00 00  |................|
 EBE1  00 00 00 00 00 00 00 00 00 00 00 00 00 00 00 00  |................|
 EBF1  00 00 00 00 00 00 00 00 00 00 00 00 00 00 00 00  |................|
 EC01  00 00 00 00 00 00 00 00 00 00 00 00 00 00 00 00  |................|
 EC11  00 00 00 00 00 00 00 00 00 00 00 00 00 00 00 00  |................|
 EC21  00 00 00 00 00 00 00 00 00 00 00 00 00 00 00 00  |................|
 EC31  00 00 00 00 00 00 00 00 00 00 00 00 00 00 00 00  |................|
 EC41  00 00 00 00 00 00 00 00 00 00 00 00 00 00 00 00  |................|
 EC51  00 00 00 00 00 00 00 00 00 00 00 00 00 00 00 00  |................|
 EC61  00 00 00 00 00 00 00 00 00 00 00 00 00 00 00 00  |................|
 EC71  00 00 00 00 00 00 00 00 00 00 00 00 00 00 00 00  |................|
 EC81  00 00 00 00 00 00 00 00 00 00 00 00 00 00 00 00  |................|
 EC91  00 00 00 00 00 00 00 00 00 00 00 00 00 00 00 00  |................|
 ECA1  00 00 00 00 00 00 00 00 00 00 00 00 00 00 00 00  |................|
 ECB1  00 00 00 00 00 00 00 00 00 00 00 00 00 00 00 00  |................|
 ECC1  00 00 00 00 00 00 00 00 00 00 00 00 00 00 00 00  |................|
 ECD1  00 00 00 00 00 00 00 00 00 00 00 00 00 00 00 00  |................|
 ECE1  00 00 00 00 00 00 00 00 00 00 00 00 00 00 00 00  |................|
 ECF1  00 00 00 00 00 00 00 00 00 00 00 00 00 00 00 00  |................|
 ED01  00 00 00 00 00 00 00 00 00 00 00 00 00 00 00 00  |................|
 ED11  00 00 00 00 00 00 00 00 00 00 00 00 00 00 00 00  |................|
 ED21  00 00 00 00 00 00 00 00 00 00 00 00 00 00 00 00  |................|
 ED31  00 00 00 00 00 00 00 00 00 00 00 00 00 00 00 00  |................|
 ED41  00 00 00 00 00 00 00 00 00 00 00 00 00 00 00 00  |................|
 ED51  00 00 00 00 00 00 00 00 00 00 00 00 00 00 00 00  |................|
 ED61  00 00 00 00 00 00 00 00 00 00 00 00 00 00 00 00  |................|
 ED71  00 00 00 00 00 00 00 00 00 00 00 00 00 00 00 00  |................|
 ED81  00 00 00 00 00 00 00 00 00 00 00 00 00 00 00 00  |................|
 ED91  00 00 00 00 00 00 00 00 00 00 00 00 00 00 00 00  |................|
 EDA1  00 00 00 00 00 00 00 00 00 00 00 00 00 00 00 00  |................|
 EDB1  00 00 00 00 00 00 00 00 00 00 00 00 00 00 00 00  |................|
 EDC1  00 00 00 00 00 00 00 00 00 00 00 00 00 00 00 00  |................|
 EDD1  00 00 00 00 00 00 00 00 00 00 00 00 00 00 00 00  |................|
 EDE1  00 00 00 00 00 00 00 00 00 00 00 00 00 00 00 00  |................|
 EDF1  00 00 00 00 00 00 00 00 00 00 00 00 00 00 00 00  |................|
 EE01  00 00 00 00 00 00 00 00 00 00 00 00 00 00 00 00  |................|
 EE11  00 00 00 00 00 00 00 00 00 00 00 00 00 00 00 00  |................|
 EE21  00 00 00 00 00 00 00 00 00 00 00 00 00 00 00 00  |................|
 EE31  00 00 00 00 00 00 00 00 00 00 00 00 00 00 00 00  |................|
 EE41  00 00 00 00 00 00 00 00 00 00 00 00 00 00 00 00  |................|
 EE51  00 00 00 00 00 00 00 00 00 00 00 00 00 00 00 00  |................|
 EE61  00 00 00 00 00 00 00 00 00 00 00 00 00 00 00 00  |................|
 EE71  00 00 00 00 00 00 00 00 00 00 00 00 00 00 00 00  |................|
 EE81  00 00 00 00 00 00 00 00 00 00 00 00 00 00 00 00  |................|
 EE91  00 00 00 00 00 00 00 00 00 00 00 00 00 00 00 00  |................|
 EEA1  00 00 00 00 00 00 00 00 00 00 00 00 00 00 00 00  |................|
 EEB1  00 00 00 00 00 00 00 00 00 00 00 00 00 00 00 00  |................|
 EEC1  00 00 00 00 00 00 00 00 00 00 00 00 00 00 00 00  |................|
 EED1  00 00 00 00 00 00 00 00 00 00 00 00 00 00 00 00  |................|
 EEE1  00 00 00 00 00 00 00 00 00 00 00 00 00 00 00 00  |................|
 EEF1  00 00 00 00 00 00 00 00 00 00 00 00 00 00 00 00  |................|
 EF01  00 00 00 00 00 00 00 00 00 00 00 00 00 00 00 00  |................|
 EF11  00 00 00 00 00 00 00 00 00 00 00 00 00 00 00 00  |................|
 EF21  00 00 00 00 00 00 00 00 00 00 00 00 00 00 00 00  |................|
 EF31  00 00 00 00 00 00 00 00 00 00 00 00 00 00 00 00  |................|
 EF41  00 00 00 00 00 00 00 00 00 00 00 00 00 00 00 00  |................|
 EF51  00 00 00 00 00 00 00 00 00 00 00 00 00 00 00 00  |................|
 EF61  00 00 00 00 00 00 00 00 00 00 00 00 00 00 00 00  |................|
 EF71  00 00 00 00 00 00 00 00 00 00 00 00 00 00 00 00  |................|
 EF81  00 00 00 00 00 00 00 00 00 00 00 00 00 00 00 00  |................|
 EF91  00 00 00 00 00 00 00 00 00 00 00 00 00 00 00 00  |................|
 EFA1  00 00 00 00 00 00 00 00 00 00 00 00 00 00 00 00  |................|
 EFB1  00 00 00 00 00 00 00 00 00 00 00 00 00 00 00 00  |................|
 EFC1  00 00 00 00 00 00 00 00 00 00 00 00 00 00 00 00  |................|
 EFD1  00 00 00 00 00 00 00 00 00 00 00 00 00 00 00 00  |................|
 EFE1  00 00 00 00 00 00 00 00 00 00 00 00 00 00 00 00  |................|
 EFF1  00 00 00 00 00 00 00 00 00 00 00 00 00 00 00 00  |................|
 F001  00 00 00 00 00 00 00 00 00 00 00 00 00 00 00     |............... |
 F010  78        SEI  
 F011  A2 00     LDX  #$00
 F013  BD 2B F0  LDA  $F02B, X
 F016  F0 06     BEQ  $F01E
 F018  20 27 F0  JSR  $F027
 F01B  E8        INX  
 F01C  80 F5     BRA  $F013
 F01E  4C 00 80  JMP  $8000
 F021  AD 04 F0  LDA  $F004
 F024  F0 FB     BEQ  $F021
 F026  60        RTS  
 F027  8D 01 F0  STA  $F001
 F02A  60        RTS  
 F02B  54 61 6C 69 20 46 6F 72 74 68 20 32 20 64 65 66  |Tali Forth 2 def|
 F03B  61 75 6C 74 20 6B 65 72 6E 65 6C 20 66 6F 72 20  |ault kernel for |
 F04B  70 79 36 35 6D 6F 6E 20 28 31 38 2E 20 46 65 62  |py65mon (18. Feb|
 F05B  20 32 30 31 38 29 0A 00 00 00 00 00 00 00 00 00  | 2018)..........|
 F06B  00 00 00 00 00 00 00 00 00 00 00 00 00 00 00 00  |................|
 F07B  00 00 00 00 00 00 00 00 00 00 00 00 00 00 00 00  |................|
 F08B  00 00 00 00 00 00 00 00 00 00 00 00 00 00 00 00  |................|
 F09B  00 00 00 00 00 00 00 00 00 00 00 00 00 00 00 00  |................|
 F0AB  00 00 00 00 00 00 00 00 00 00 00 00 00 00 00 00  |................|
 F0BB  00 00 00 00 00 00 00 00 00 00 00 00 00 00 00 00  |................|
 F0CB  00 00 00 00 00 00 00 00 00 00 00 00 00 00 00 00  |................|
 F0DB  00 00 00 00 00 00 00 00 00 00 00 00 00 00 00 00  |................|
 F0EB  00 00 00 00 00 00 00 00 00 00 00 00 00 00 00 00  |................|
 F0FB  00 00 00 00 00 00 00 00 00 00 00 00 00 00 00 00  |................|
 F10B  00 00 00 00 00 00 00 00 00 00 00 00 00 00 00 00  |................|
 F11B  00 00 00 00 00 00 00 00 00 00 00 00 00 00 00 00  |................|
 F12B  00 00 00 00 00 00 00 00 00 00 00 00 00 00 00 00  |................|
 F13B  00 00 00 00 00 00 00 00 00 00 00 00 00 00 00 00  |................|
 F14B  00 00 00 00 00 00 00 00 00 00 00 00 00 00 00 00  |................|
 F15B  00 00 00 00 00 00 00 00 00 00 00 00 00 00 00 00  |................|
 F16B  00 00 00 00 00 00 00 00 00 00 00 00 00 00 00 00  |................|
 F17B  00 00 00 00 00 00 00 00 00 00 00 00 00 00 00 00  |................|
 F18B  00 00 00 00 00 00 00 00 00 00 00 00 00 00 00 00  |................|
 F19B  00 00 00 00 00 00 00 00 00 00 00 00 00 00 00 00  |................|
 F1AB  00 00 00 00 00 00 00 00 00 00 00 00 00 00 00 00  |................|
 F1BB  00 00 00 00 00 00 00 00 00 00 00 00 00 00 00 00  |................|
 F1CB  00 00 00 00 00 00 00 00 00 00 00 00 00 00 00 00  |................|
 F1DB  00 00 00 00 00 00 00 00 00 00 00 00 00 00 00 00  |................|
 F1EB  00 00 00 00 00 00 00 00 00 00 00 00 00 00 00 00  |................|
 F1FB  00 00 00 00 00 00 00 00 00 00 00 00 00 00 00 00  |................|
 F20B  00 00 00 00 00 00 00 00 00 00 00 00 00 00 00 00  |................|
 F21B  00 00 00 00 00 00 00 00 00 00 00 00 00 00 00 00  |................|
 F22B  00 00 00 00 00 00 00 00 00 00 00 00 00 00 00 00  |................|
 F23B  00 00 00 00 00 00 00 00 00 00 00 00 00 00 00 00  |................|
 F24B  00 00 00 00 00 00 00 00 00 00 00 00 00 00 00 00  |................|
 F25B  00 00 00 00 00 00 00 00 00 00 00 00 00 00 00 00  |................|
 F26B  00 00 00 00 00 00 00 00 00 00 00 00 00 00 00 00  |................|
 F27B  00 00 00 00 00 00 00 00 00 00 00 00 00 00 00 00  |................|
 F28B  00 00 00 00 00 00 00 00 00 00 00 00 00 00 00 00  |................|
 F29B  00 00 00 00 00 00 00 00 00 00 00 00 00 00 00 00  |................|
 F2AB  00 00 00 00 00 00 00 00 00 00 00 00 00 00 00 00  |................|
 F2BB  00 00 00 00 00 00 00 00 00 00 00 00 00 00 00 00  |................|
 F2CB  00 00 00 00 00 00 00 00 00 00 00 00 00 00 00 00  |................|
 F2DB  00 00 00 00 00 00 00 00 00 00 00 00 00 00 00 00  |................|
 F2EB  00 00 00 00 00 00 00 00 00 00 00 00 00 00 00 00  |................|
 F2FB  00 00 00 00 00 00 00 00 00 00 00 00 00 00 00 00  |................|
 F30B  00 00 00 00 00 00 00 00 00 00 00 00 00 00 00 00  |................|
 F31B  00 00 00 00 00 00 00 00 00 00 00 00 00 00 00 00  |................|
 F32B  00 00 00 00 00 00 00 00 00 00 00 00 00 00 00 00  |................|
 F33B  00 00 00 00 00 00 00 00 00 00 00 00 00 00 00 00  |................|
 F34B  00 00 00 00 00 00 00 00 00 00 00 00 00 00 00 00  |................|
 F35B  00 00 00 00 00 00 00 00 00 00 00 00 00 00 00 00  |................|
 F36B  00 00 00 00 00 00 00 00 00 00 00 00 00 00 00 00  |................|
 F37B  00 00 00 00 00 00 00 00 00 00 00 00 00 00 00 00  |................|
 F38B  00 00 00 00 00 00 00 00 00 00 00 00 00 00 00 00  |................|
 F39B  00 00 00 00 00 00 00 00 00 00 00 00 00 00 00 00  |................|
 F3AB  00 00 00 00 00 00 00 00 00 00 00 00 00 00 00 00  |................|
 F3BB  00 00 00 00 00 00 00 00 00 00 00 00 00 00 00 00  |................|
 F3CB  00 00 00 00 00 00 00 00 00 00 00 00 00 00 00 00  |................|
 F3DB  00 00 00 00 00 00 00 00 00 00 00 00 00 00 00 00  |................|
 F3EB  00 00 00 00 00 00 00 00 00 00 00 00 00 00 00 00  |................|
 F3FB  00 00 00 00 00 00 00 00 00 00 00 00 00 00 00 00  |................|
 F40B  00 00 00 00 00 00 00 00 00 00 00 00 00 00 00 00  |................|
 F41B  00 00 00 00 00 00 00 00 00 00 00 00 00 00 00 00  |................|
 F42B  00 00 00 00 00 00 00 00 00 00 00 00 00 00 00 00  |................|
 F43B  00 00 00 00 00 00 00 00 00 00 00 00 00 00 00 00  |................|
 F44B  00 00 00 00 00 00 00 00 00 00 00 00 00 00 00 00  |................|
 F45B  00 00 00 00 00 00 00 00 00 00 00 00 00 00 00 00  |................|
 F46B  00 00 00 00 00 00 00 00 00 00 00 00 00 00 00 00  |................|
 F47B  00 00 00 00 00 00 00 00 00 00 00 00 00 00 00 00  |................|
 F48B  00 00 00 00 00 00 00 00 00 00 00 00 00 00 00 00  |................|
 F49B  00 00 00 00 00 00 00 00 00 00 00 00 00 00 00 00  |................|
 F4AB  00 00 00 00 00 00 00 00 00 00 00 00 00 00 00 00  |................|
 F4BB  00 00 00 00 00 00 00 00 00 00 00 00 00 00 00 00  |................|
 F4CB  00 00 00 00 00 00 00 00 00 00 00 00 00 00 00 00  |................|
 F4DB  00 00 00 00 00 00 00 00 00 00 00 00 00 00 00 00  |................|
 F4EB  00 00 00 00 00 00 00 00 00 00 00 00 00 00 00 00  |................|
 F4FB  00 00 00 00 00 00 00 00 00 00 00 00 00 00 00 00  |................|
 F50B  00 00 00 00 00 00 00 00 00 00 00 00 00 00 00 00  |................|
 F51B  00 00 00 00 00 00 00 00 00 00 00 00 00 00 00 00  |................|
 F52B  00 00 00 00 00 00 00 00 00 00 00 00 00 00 00 00  |................|
 F53B  00 00 00 00 00 00 00 00 00 00 00 00 00 00 00 00  |................|
 F54B  00 00 00 00 00 00 00 00 00 00 00 00 00 00 00 00  |................|
 F55B  00 00 00 00 00 00 00 00 00 00 00 00 00 00 00 00  |................|
 F56B  00 00 00 00 00 00 00 00 00 00 00 00 00 00 00 00  |................|
 F57B  00 00 00 00 00 00 00 00 00 00 00 00 00 00 00 00  |................|
 F58B  00 00 00 00 00 00 00 00 00 00 00 00 00 00 00 00  |................|
 F59B  00 00 00 00 00 00 00 00 00 00 00 00 00 00 00 00  |................|
 F5AB  00 00 00 00 00 00 00 00 00 00 00 00 00 00 00 00  |................|
 F5BB  00 00 00 00 00 00 00 00 00 00 00 00 00 00 00 00  |................|
 F5CB  00 00 00 00 00 00 00 00 00 00 00 00 00 00 00 00  |................|
 F5DB  00 00 00 00 00 00 00 00 00 00 00 00 00 00 00 00  |................|
 F5EB  00 00 00 00 00 00 00 00 00 00 00 00 00 00 00 00  |................|
 F5FB  00 00 00 00 00 00 00 00 00 00 00 00 00 00 00 00  |................|
 F60B  00 00 00 00 00 00 00 00 00 00 00 00 00 00 00 00  |................|
 F61B  00 00 00 00 00 00 00 00 00 00 00 00 00 00 00 00  |................|
 F62B  00 00 00 00 00 00 00 00 00 00 00 00 00 00 00 00  |................|
 F63B  00 00 00 00 00 00 00 00 00 00 00 00 00 00 00 00  |................|
 F64B  00 00 00 00 00 00 00 00 00 00 00 00 00 00 00 00  |................|
 F65B  00 00 00 00 00 00 00 00 00 00 00 00 00 00 00 00  |................|
 F66B  00 00 00 00 00 00 00 00 00 00 00 00 00 00 00 00  |................|
 F67B  00 00 00 00 00 00 00 00 00 00 00 00 00 00 00 00  |................|
 F68B  00 00 00 00 00 00 00 00 00 00 00 00 00 00 00 00  |................|
 F69B  00 00 00 00 00 00 00 00 00 00 00 00 00 00 00 00  |................|
 F6AB  00 00 00 00 00 00 00 00 00 00 00 00 00 00 00 00  |................|
 F6BB  00 00 00 00 00 00 00 00 00 00 00 00 00 00 00 00  |................|
 F6CB  00 00 00 00 00 00 00 00 00 00 00 00 00 00 00 00  |................|
 F6DB  00 00 00 00 00 00 00 00 00 00 00 00 00 00 00 00  |................|
 F6EB  00 00 00 00 00 00 00 00 00 00 00 00 00 00 00 00  |................|
 F6FB  00 00 00 00 00 00 00 00 00 00 00 00 00 00 00 00  |................|
 F70B  00 00 00 00 00 00 00 00 00 00 00 00 00 00 00 00  |................|
 F71B  00 00 00 00 00 00 00 00 00 00 00 00 00 00 00 00  |................|
 F72B  00 00 00 00 00 00 00 00 00 00 00 00 00 00 00 00  |................|
 F73B  00 00 00 00 00 00 00 00 00 00 00 00 00 00 00 00  |................|
 F74B  00 00 00 00 00 00 00 00 00 00 00 00 00 00 00 00  |................|
 F75B  00 00 00 00 00 00 00 00 00 00 00 00 00 00 00 00  |................|
 F76B  00 00 00 00 00 00 00 00 00 00 00 00 00 00 00 00  |................|
 F77B  00 00 00 00 00 00 00 00 00 00 00 00 00 00 00 00  |................|
 F78B  00 00 00 00 00 00 00 00 00 00 00 00 00 00 00 00  |................|
 F79B  00 00 00 00 00 00 00 00 00 00 00 00 00 00 00 00  |................|
 F7AB  00 00 00 00 00 00 00 00 00 00 00 00 00 00 00 00  |................|
 F7BB  00 00 00 00 00 00 00 00 00 00 00 00 00 00 00 00  |................|
 F7CB  00 00 00 00 00 00 00 00 00 00 00 00 00 00 00 00  |................|
 F7DB  00 00 00 00 00 00 00 00 00 00 00 00 00 00 00 00  |................|
 F7EB  00 00 00 00 00 00 00 00 00 00 00 00 00 00 00 00  |................|
 F7FB  00 00 00 00 00 00 00 00 00 00 00 00 00 00 00 00  |................|
 F80B  00 00 00 00 00 00 00 00 00 00 00 00 00 00 00 00  |................|
 F81B  00 00 00 00 00 00 00 00 00 00 00 00 00 00 00 00  |................|
 F82B  00 00 00 00 00 00 00 00 00 00 00 00 00 00 00 00  |................|
 F83B  00 00 00 00 00 00 00 00 00 00 00 00 00 00 00 00  |................|
 F84B  00 00 00 00 00 00 00 00 00 00 00 00 00 00 00 00  |................|
 F85B  00 00 00 00 00 00 00 00 00 00 00 00 00 00 00 00  |................|
 F86B  00 00 00 00 00 00 00 00 00 00 00 00 00 00 00 00  |................|
 F87B  00 00 00 00 00 00 00 00 00 00 00 00 00 00 00 00  |................|
 F88B  00 00 00 00 00 00 00 00 00 00 00 00 00 00 00 00  |................|
 F89B  00 00 00 00 00 00 00 00 00 00 00 00 00 00 00 00  |................|
 F8AB  00 00 00 00 00 00 00 00 00 00 00 00 00 00 00 00  |................|
 F8BB  00 00 00 00 00 00 00 00 00 00 00 00 00 00 00 00  |................|
 F8CB  00 00 00 00 00 00 00 00 00 00 00 00 00 00 00 00  |................|
 F8DB  00 00 00 00 00 00 00 00 00 00 00 00 00 00 00 00  |................|
 F8EB  00 00 00 00 00 00 00 00 00 00 00 00 00 00 00 00  |................|
 F8FB  00 00 00 00 00 00 00 00 00 00 00 00 00 00 00 00  |................|
 F90B  00 00 00 00 00 00 00 00 00 00 00 00 00 00 00 00  |................|
 F91B  00 00 00 00 00 00 00 00 00 00 00 00 00 00 00 00  |................|
 F92B  00 00 00 00 00 00 00 00 00 00 00 00 00 00 00 00  |................|
 F93B  00 00 00 00 00 00 00 00 00 00 00 00 00 00 00 00  |................|
 F94B  00 00 00 00 00 00 00 00 00 00 00 00 00 00 00 00  |................|
 F95B  00 00 00 00 00 00 00 00 00 00 00 00 00 00 00 00  |................|
 F96B  00 00 00 00 00 00 00 00 00 00 00 00 00 00 00 00  |................|
 F97B  00 00 00 00 00 00 00 00 00 00 00 00 00 00 00 00  |................|
 F98B  00 00 00 00 00 00 00 00 00 00 00 00 00 00 00 00  |................|
 F99B  00 00 00 00 00 00 00 00 00 00 00 00 00 00 00 00  |................|
 F9AB  00 00 00 00 00 00 00 00 00 00 00 00 00 00 00 00  |................|
 F9BB  00 00 00 00 00 00 00 00 00 00 00 00 00 00 00 00  |................|
 F9CB  00 00 00 00 00 00 00 00 00 00 00 00 00 00 00 00  |................|
 F9DB  00 00 00 00 00 00 00 00 00 00 00 00 00 00 00 00  |................|
 F9EB  00 00 00 00 00 00 00 00 00 00 00 00 00 00 00 00  |................|
 F9FB  00 00 00 00 00 00 00 00 00 00 00 00 00 00 00 00  |................|
 FA0B  00 00 00 00 00 00 00 00 00 00 00 00 00 00 00 00  |................|
 FA1B  00 00 00 00 00 00 00 00 00 00 00 00 00 00 00 00  |................|
 FA2B  00 00 00 00 00 00 00 00 00 00 00 00 00 00 00 00  |................|
 FA3B  00 00 00 00 00 00 00 00 00 00 00 00 00 00 00 00  |................|
 FA4B  00 00 00 00 00 00 00 00 00 00 00 00 00 00 00 00  |................|
 FA5B  00 00 00 00 00 00 00 00 00 00 00 00 00 00 00 00  |................|
 FA6B  00 00 00 00 00 00 00 00 00 00 00 00 00 00 00 00  |................|
 FA7B  00 00 00 00 00 00 00 00 00 00 00 00 00 00 00 00  |................|
 FA8B  00 00 00 00 00 00 00 00 00 00 00 00 00 00 00 00  |................|
 FA9B  00 00 00 00 00 00 00 00 00 00 00 00 00 00 00 00  |................|
 FAAB  00 00 00 00 00 00 00 00 00 00 00 00 00 00 00 00  |................|
 FABB  00 00 00 00 00 00 00 00 00 00 00 00 00 00 00 00  |................|
 FACB  00 00 00 00 00 00 00 00 00 00 00 00 00 00 00 00  |................|
 FADB  00 00 00 00 00 00 00 00 00 00 00 00 00 00 00 00  |................|
 FAEB  00 00 00 00 00 00 00 00 00 00 00 00 00 00 00 00  |................|
 FAFB  00 00 00 00 00 00 00 00 00 00 00 00 00 00 00 00  |................|
 FB0B  00 00 00 00 00 00 00 00 00 00 00 00 00 00 00 00  |................|
 FB1B  00 00 00 00 00 00 00 00 00 00 00 00 00 00 00 00  |................|
 FB2B  00 00 00 00 00 00 00 00 00 00 00 00 00 00 00 00  |................|
 FB3B  00 00 00 00 00 00 00 00 00 00 00 00 00 00 00 00  |................|
 FB4B  00 00 00 00 00 00 00 00 00 00 00 00 00 00 00 00  |................|
 FB5B  00 00 00 00 00 00 00 00 00 00 00 00 00 00 00 00  |................|
 FB6B  00 00 00 00 00 00 00 00 00 00 00 00 00 00 00 00  |................|
 FB7B  00 00 00 00 00 00 00 00 00 00 00 00 00 00 00 00  |................|
 FB8B  00 00 00 00 00 00 00 00 00 00 00 00 00 00 00 00  |................|
 FB9B  00 00 00 00 00 00 00 00 00 00 00 00 00 00 00 00  |................|
 FBAB  00 00 00 00 00 00 00 00 00 00 00 00 00 00 00 00  |................|
 FBBB  00 00 00 00 00 00 00 00 00 00 00 00 00 00 00 00  |................|
 FBCB  00 00 00 00 00 00 00 00 00 00 00 00 00 00 00 00  |................|
 FBDB  00 00 00 00 00 00 00 00 00 00 00 00 00 00 00 00  |................|
 FBEB  00 00 00 00 00 00 00 00 00 00 00 00 00 00 00 00  |................|
 FBFB  00 00 00 00 00 00 00 00 00 00 00 00 00 00 00 00  |................|
 FC0B  00 00 00 00 00 00 00 00 00 00 00 00 00 00 00 00  |................|
 FC1B  00 00 00 00 00 00 00 00 00 00 00 00 00 00 00 00  |................|
 FC2B  00 00 00 00 00 00 00 00 00 00 00 00 00 00 00 00  |................|
 FC3B  00 00 00 00 00 00 00 00 00 00 00 00 00 00 00 00  |................|
 FC4B  00 00 00 00 00 00 00 00 00 00 00 00 00 00 00 00  |................|
 FC5B  00 00 00 00 00 00 00 00 00 00 00 00 00 00 00 00  |................|
 FC6B  00 00 00 00 00 00 00 00 00 00 00 00 00 00 00 00  |................|
 FC7B  00 00 00 00 00 00 00 00 00 00 00 00 00 00 00 00  |................|
 FC8B  00 00 00 00 00 00 00 00 00 00 00 00 00 00 00 00  |................|
 FC9B  00 00 00 00 00 00 00 00 00 00 00 00 00 00 00 00  |................|
 FCAB  00 00 00 00 00 00 00 00 00 00 00 00 00 00 00 00  |................|
 FCBB  00 00 00 00 00 00 00 00 00 00 00 00 00 00 00 00  |................|
 FCCB  00 00 00 00 00 00 00 00 00 00 00 00 00 00 00 00  |................|
 FCDB  00 00 00 00 00 00 00 00 00 00 00 00 00 00 00 00  |................|
 FCEB  00 00 00 00 00 00 00 00 00 00 00 00 00 00 00 00  |................|
 FCFB  00 00 00 00 00 00 00 00 00 00 00 00 00 00 00 00  |................|
 FD0B  00 00 00 00 00 00 00 00 00 00 00 00 00 00 00 00  |................|
 FD1B  00 00 00 00 00 00 00 00 00 00 00 00 00 00 00 00  |................|
 FD2B  00 00 00 00 00 00 00 00 00 00 00 00 00 00 00 00  |................|
 FD3B  00 00 00 00 00 00 00 00 00 00 00 00 00 00 00 00  |................|
 FD4B  00 00 00 00 00 00 00 00 00 00 00 00 00 00 00 00  |................|
 FD5B  00 00 00 00 00 00 00 00 00 00 00 00 00 00 00 00  |................|
 FD6B  00 00 00 00 00 00 00 00 00 00 00 00 00 00 00 00  |................|
 FD7B  00 00 00 00 00 00 00 00 00 00 00 00 00 00 00 00  |................|
 FD8B  00 00 00 00 00 00 00 00 00 00 00 00 00 00 00 00  |................|
 FD9B  00 00 00 00 00 00 00 00 00 00 00 00 00 00 00 00  |................|
 FDAB  00 00 00 00 00 00 00 00 00 00 00 00 00 00 00 00  |................|
 FDBB  00 00 00 00 00 00 00 00 00 00 00 00 00 00 00 00  |................|
 FDCB  00 00 00 00 00 00 00 00 00 00 00 00 00 00 00 00  |................|
 FDDB  00 00 00 00 00 00 00 00 00 00 00 00 00 00 00 00  |................|
 FDEB  00 00 00 00 00 00 00 00 00 00 00 00 00 00 00 00  |................|
 FDFB  00 00 00 00 00 00 00 00 00 00 00 00 00 00 00 00  |................|
 FE0B  00 00 00 00 00 00 00 00 00 00 00 00 00 00 00 00  |................|
 FE1B  00 00 00 00 00 00 00 00 00 00 00 00 00 00 00 00  |................|
 FE2B  00 00 00 00 00 00 00 00 00 00 00 00 00 00 00 00  |................|
 FE3B  00 00 00 00 00 00 00 00 00 00 00 00 00 00 00 00  |................|
 FE4B  00 00 00 00 00 00 00 00 00 00 00 00 00 00 00 00  |................|
 FE5B  00 00 00 00 00 00 00 00 00 00 00 00 00 00 00 00  |................|
 FE6B  00 00 00 00 00 00 00 00 00 00 00 00 00 00 00 00  |................|
 FE7B  00 00 00 00 00 00 00 00 00 00 00 00 00 00 00 00  |................|
 FE8B  00 00 00 00 00 00 00 00 00 00 00 00 00 00 00 00  |................|
 FE9B  00 00 00 00 00 00 00 00 00 00 00 00 00 00 00 00  |................|
 FEAB  00 00 00 00 00 00 00 00 00 00 00 00 00 00 00 00  |................|
 FEBB  00 00 00 00 00 00 00 00 00 00 00 00 00 00 00 00  |................|
 FECB  00 00 00 00 00 00 00 00 00 00 00 00 00 00 00 00  |................|
 FEDB  00 00 00 00 00 00 00 00 00 00 00 00 00 00 00 00  |................|
 FEEB  00 00 00 00 00 00 00 00 00 00 00 00 00 00 00 00  |................|
 FEFB  00 00 00 00 00 00 00 00 00 00 00 00 00 00 00 00  |................|
 FF0B  00 00 00 00 00 00 00 00 00 00 00 00 00 00 00 00  |................|
 FF1B  00 00 00 00 00 00 00 00 00 00 00 00 00 00 00 00  |................|
 FF2B  00 00 00 00 00 00 00 00 00 00 00 00 00 00 00 00  |................|
 FF3B  00 00 00 00 00 00 00 00 00 00 00 00 00 00 00 00  |................|
 FF4B  00 00 00 00 00 00 00 00 00 00 00 00 00 00 00 00  |................|
 FF5B  00 00 00 00 00 00 00 00 00 00 00 00 00 00 00 00  |................|
 FF6B  00 00 00 00 00 00 00 00 00 00 00 00 00 00 00 00  |................|
 FF7B  00 00 00 00 00 00 00 00 00 00 00 00 00 00 00 00  |................|
 FF8B  00 00 00 00 00 00 00 00 00 00 00 00 00 00 00 00  |................|
 FF9B  00 00 00 00 00 00 00 00 00 00 00 00 00 00 00 00  |................|
 FFAB  00 00 00 00 00 00 00 00 00 00 00 00 00 00 00 00  |................|
 FFBB  00 00 00 00 00 00 00 00 00 00 00 00 00 00 00 00  |................|
 FFCB  00 00 00 00 00 00 00 00 00 00 00 00 00 00 00 00  |................|
 FFDB  00 00 00 00 00 00 00 00 00 00 00 00 00 00 00 00  |................|
 FFEB  00 00 00 00 00 00 00 00 00 00 00 00 00 00 00 10  |................|
 FFFB  F0 10 F0 10 F0                                   |.....           |
