 8000  78        SEI  
 8001  D8        CLD  
 8002  A9 82     LDA  #$82
 8004  85 10     STA  $10
 8006  A9 F0     LDA  #$F0
 8008  85 11     STA  $11
 800A  A9 7C     LDA  #$7C
 800C  85 12     STA  $12
 800E  A9 F0     LDA  #$F0
 8010  85 13     STA  $13
 8012  A2 FF     LDX  #$FF
 8014  9A        TXS  
 8015  A2 78     LDX  #$78
 8017  A9 0A     LDA  #$0A
 8019  85 18     STA  $18
 801B  64 19     STZ  $19
 801D  A9 14     LDA  #$14
 801F  85 1A     STA  $1A
 8021  64 1B     STZ  $1B
 8023  64 1C     STZ  $1C
 8025  64 1D     STZ  $1D
 8027  A9 FF     LDA  #$FF
 8029  85 00     STA  $00
 802B  A9 02     LDA  #$02
 802D  85 01     STA  $01
 802F  A9 00     LDA  #$00
 8031  85 08     STA  $08
 8033  A9 02     LDA  #$02
 8035  85 09     STA  $09
 8037  64 0A     STZ  $0A
 8039  64 0B     STZ  $0B
 803B  64 06     STZ  $06
 803D  64 07     STZ  $07
 803F  64 16     STZ  $16
 8041  64 17     STZ  $17
 8043  A9 F4     LDA  #$F4
 8045  85 02     STA  $02
 8047  A9 B7     LDA  #$B7
 8049  85 03     STA  $03
 804B  20 AF 86  JSR  $86AF
 804E  CA        DEX  
 804F  CA        DEX  
 8050  CA        DEX  
 8051  CA        DEX  
 8052  A9 A6     LDA  #$A6
 8054  95 02     STA  $02, X
 8056  A9 A6     LDA  #$A6
 8058  95 03     STA  $03, X
 805A  A9 58     LDA  #$58
 805C  38        SEC  
 805D  E9 A6     SBC  #$A6
 805F  95 00     STA  $00, X
 8061  A9 AC     LDA  #$AC
 8063  E9 A6     SBC  #$A6
 8065  95 01     STA  $01, X
 8067  20 9A 8B  JSR  $8B9A
 806A  CA        DEX  
 806B  CA        DEX  
 806C  CA        DEX  
 806D  CA        DEX  
 806E  A9 58     LDA  #$58
 8070  95 02     STA  $02, X
 8072  A9 AC     LDA  #$AC
 8074  95 03     STA  $03, X
 8076  A9 32     LDA  #$32
 8078  38        SEC  
 8079  E9 58     SBC  #$58
 807B  95 00     STA  $00, X
 807D  A9 AE     LDA  #$AE
 807F  E9 AC     SBC  #$AC
 8081  95 01     STA  $01, X
 8083  20 9A 8B  JSR  $8B9A
 8086  9C 00 7B  STZ  $7B00
 8089  9C 80 7B  STZ  $7B80
 808C  9C 00 7C  STZ  $7C00
 808F  9C 80 7C  STZ  $7C80
 8092  9C 00 7D  STZ  $7D00
 8095  9C 80 7D  STZ  $7D80
 8098  9C 00 7E  STZ  $7E00
 809B  9C 80 7E  STZ  $7E80
 809E  58        CLI  
 809F  A2 78     LDX  #$78
 80A1  8A        TXA  
 80A2  A2 FF     LDX  #$FF
 80A4  9A        TXS  
 80A5  AA        TAX  
 80A6  64 0E     STZ  $0E
 80A8  64 0F     STZ  $0F
 80AA  64 06     STZ  $06
 80AC  64 07     STZ  $07
 80AE  64 16     STZ  $16
 80B0  64 17     STZ  $17
 80B2  A9 00     LDA  #$00
 80B4  85 08     STA  $08
 80B6  A9 02     LDA  #$02
 80B8  85 09     STA  $09
 80BA  64 0A     STZ  $0A
 80BC  64 0B     STZ  $0B
 80BE  20 C3 94  JSR  $94C3
 80C1  B5 00     LDA  $00, X
 80C3  D0 05     BNE  $80CA
 80C5  A9 06     LDA  #$06
 80C7  4C 29 BB  JMP  $BB29
 80CA  E8        INX  
 80CB  E8        INX  
 80CC  20 9C BA  JSR  $BA9C
 80CF  E0 78     CPX  #$78
 80D1  F0 05     BEQ  $80D8
 80D3  90 03     BCC  $80D8
 80D5  4C 27 BB  JMP  $BB27
 80D8  A5 16     LDA  $16
 80DA  F0 02     BEQ  $80DE
 80DC  A9 01     LDA  #$01
 80DE  20 3C BB  JSR  $BB3C
 80E1  80 CF     BRA  $80B2
 80E3  20 44 95  JSR  $9544
 80E6  A0 80     LDY  #$80
 80E8  A9 EE     LDA  #$EE
 80EA  20 FC B9  JSR  $B9FC
 80ED  60        RTS  
 80EE  B5 04     LDA  $04, X
 80F0  15 05     ORA  $05, X
 80F2  F0 09     BEQ  $80FD
 80F4  20 D4 9B  JSR  $9BD4
 80F7  20 AF 86  JSR  $86AF
 80FA  4C 9F 80  JMP  $809F
 80FD  8A        TXA  
 80FE  18        CLC  
 80FF  69 06     ADC  #$06
 8101  AA        TAX  
 8102  60        RTS  
 8103  E0 77     CPX  #$77
 8105  30 03     BMI  $810A
 8107  4C 27 BB  JMP  $BB27
 810A  B5 01     LDA  $01, X
 810C  10 0D     BPL  $811B
 810E  38        SEC  
 810F  A9 00     LDA  #$00
 8111  F5 00     SBC  $00, X
 8113  95 00     STA  $00, X
 8115  A9 00     LDA  #$00
 8117  F5 01     SBC  $01, X
 8119  95 01     STA  $01, X
 811B  60        RTS  
 811C  E0 75     CPX  #$75
 811E  30 03     BMI  $8123
 8120  4C 27 BB  JMP  $BB27
 8123  B5 00     LDA  $00, X
 8125  15 01     ORA  $01, X
 8127  D0 09     BNE  $8132
 8129  E8        INX  
 812A  E8        INX  
 812B  74 00     STZ  $00, X
 812D  74 01     STZ  $01, X
 812F  4C 1E 82  JMP  $821E
 8132  B5 00     LDA  $00, X
 8134  85 22     STA  $22
 8136  64 23     STZ  $23
 8138  B5 02     LDA  $02, X
 813A  85 20     STA  $20
 813C  B5 03     LDA  $03, X
 813E  85 21     STA  $21
 8140  E8        INX  
 8141  E8        INX  
 8142  A0 00     LDY  #$00
 8144  A5 34     LDA  $34
 8146  29 F7     AND  #$F7
 8148  1A        INC  
 8149  09 08     ORA  #$08
 814B  85 34     STA  $34
 814D  20 3B 8E  JSR  $8E3B
 8150  C9 0A     CMP  #$0A
 8152  F0 20     BEQ  $8174
 8154  C9 0D     CMP  #$0D
 8156  F0 1C     BEQ  $8174
 8158  C9 08     CMP  #$08
 815A  F0 22     BEQ  $817E
 815C  C9 7F     CMP  #$7F
 815E  F0 1E     BEQ  $817E
 8160  C9 10     CMP  #$10
 8162  F0 36     BEQ  $819A
 8164  C9 0E     CMP  #$0E
 8166  F0 44     BEQ  $81AC
 8168  20 67 8A  JSR  $8A67
 816B  91 20     STA  ($20), Y
 816D  C8        INY  
 816E  C4 22     CPY  $22
 8170  D0 DB     BNE  $814D
 8172  80 03     BRA  $8177
 8174  20 4C 98  JSR  $984C
 8177  94 00     STY  $00, X
 8179  74 01     STZ  $01, X
 817B  4C 1E 82  JMP  $821E
 817E  C0 00     CPY  #$00
 8180  D0 06     BNE  $8188
 8182  A9 07     LDA  #$07
 8184  20 67 8A  JSR  $8A67
 8187  C8        INY  
 8188  88        DEY  
 8189  A9 08     LDA  #$08
 818B  20 67 8A  JSR  $8A67
 818E  A9 20     LDA  #$20
 8190  20 67 8A  JSR  $8A67
 8193  A9 08     LDA  #$08
 8195  20 67 8A  JSR  $8A67
 8198  80 B3     BRA  $814D
 819A  A5 34     LDA  $34
 819C  29 07     AND  #$07
 819E  D0 08     BNE  $81A8
 81A0  A5 34     LDA  $34
 81A2  09 07     ORA  #$07
 81A4  85 34     STA  $34
 81A6  80 11     BRA  $81B9
 81A8  C6 34     DEC  $34
 81AA  80 0D     BRA  $81B9
 81AC  A9 08     LDA  #$08
 81AE  24 34     BIT  $34
 81B0  D0 07     BNE  $81B9
 81B2  A5 34     LDA  $34
 81B4  29 F7     AND  #$F7
 81B6  1A        INC  
 81B7  85 34     STA  $34
 81B9  A5 34     LDA  $34
 81BB  29 F7     AND  #$F7
 81BD  85 34     STA  $34
 81BF  A9 00     LDA  #$00
 81C1  85 24     STA  $24
 81C3  A9 7B     LDA  #$7B
 81C5  85 25     STA  $25
 81C7  A5 34     LDA  $34
 81C9  6A        ROR  
 81CA  29 03     AND  #$03
 81CC  18        CLC  
 81CD  65 25     ADC  $25
 81CF  85 25     STA  $25
 81D1  A5 34     LDA  $34
 81D3  6A        ROR  
 81D4  6A        ROR  
 81D5  29 80     AND  #$80
 81D7  18        CLC  
 81D8  65 24     ADC  $24
 81DA  85 24     STA  $24
 81DC  90 02     BCC  $81E0
 81DE  E6 25     INC  $25
 81E0  A9 0D     LDA  #$0D
 81E2  20 67 8A  JSR  $8A67
 81E5  C0 00     CPY  #$00
 81E7  F0 08     BEQ  $81F1
 81E9  A9 20     LDA  #$20
 81EB  20 67 8A  JSR  $8A67
 81EE  88        DEY  
 81EF  80 F4     BRA  $81E5
 81F1  A9 0D     LDA  #$0D
 81F3  20 67 8A  JSR  $8A67
 81F6  B1 24     LDA  ($24), Y
 81F8  85 35     STA  $35
 81FA  E6 24     INC  $24
 81FC  D0 02     BNE  $8200
 81FE  E6 25     INC  $25
 8200  A9 0D     LDA  #$0D
 8202  20 67 8A  JSR  $8A67
 8205  C4 35     CPY  $35
 8207  D0 03     BNE  $820C
 8209  4C 4D 81  JMP  $814D
 820C  C4 22     CPY  $22
 820E  F0 0A     BEQ  $821A
 8210  B1 24     LDA  ($24), Y
 8212  91 20     STA  ($20), Y
 8214  20 67 8A  JSR  $8A67
 8217  C8        INY  
 8218  80 EB     BRA  $8205
 821A  88        DEY  
 821B  4C 4D 81  JMP  $814D
 821E  A9 00     LDA  #$00
 8220  85 24     STA  $24
 8222  A9 7B     LDA  #$7B
 8224  85 25     STA  $25
 8226  A5 34     LDA  $34
 8228  6A        ROR  
 8229  29 03     AND  #$03
 822B  18        CLC  
 822C  65 25     ADC  $25
 822E  85 25     STA  $25
 8230  A5 34     LDA  $34
 8232  6A        ROR  
 8233  6A        ROR  
 8234  29 80     AND  #$80
 8236  18        CLC  
 8237  65 24     ADC  $24
 8239  85 24     STA  $24
 823B  90 02     BCC  $823F
 823D  E6 25     INC  $25
 823F  98        TYA  
 8240  C9 80     CMP  #$80
 8242  90 02     BCC  $8246
 8244  A9 7F     LDA  #$7F
 8246  85 35     STA  $35
 8248  A0 00     LDY  #$00
 824A  91 24     STA  ($24), Y
 824C  E6 24     INC  $24
 824E  D0 02     BNE  $8252
 8250  E6 25     INC  $25
 8252  C4 35     CPY  $35
 8254  F0 07     BEQ  $825D
 8256  B1 20     LDA  ($20), Y
 8258  91 24     STA  ($24), Y
 825A  C8        INY  
 825B  80 F5     BRA  $8252
 825D  60        RTS  
 825E  E0 77     CPX  #$77
 8260  30 03     BMI  $8265
 8262  4C 27 BB  JMP  $BB27
 8265  A0 00     LDY  #$00
 8267  A9 4C     LDA  #$4C
 8269  91 00     STA  ($00), Y
 826B  C8        INY  
 826C  B5 00     LDA  $00, X
 826E  91 00     STA  ($00), Y
 8270  C8        INY  
 8271  B5 01     LDA  $01, X
 8273  91 00     STA  ($00), Y
 8275  C8        INY  
 8276  98        TYA  
 8277  18        CLC  
 8278  65 00     ADC  $00
 827A  85 00     STA  $00
 827C  90 02     BCC  $8280
 827E  E6 01     INC  $01
 8280  E8        INX  
 8281  E8        INX  
 8282  60        RTS  
 8283  60        RTS  
 8284  E0 77     CPX  #$77
 8286  30 03     BMI  $828B
 8288  4C 27 BB  JMP  $BB27
 828B  18        CLC  
 828C  A5 00     LDA  $00
 828E  75 00     ADC  $00, X
 8290  85 00     STA  $00
 8292  A5 01     LDA  $01
 8294  75 01     ADC  $01, X
 8296  85 01     STA  $01
 8298  B5 01     LDA  $01, X
 829A  30 15     BMI  $82B1
 829C  A0 FE     LDY  #$FE
 829E  C4 00     CPY  $00
 82A0  A9 79     LDA  #$79
 82A2  E5 01     SBC  $01
 82A4  B0 1B     BCS  $82C1
 82A6  84 00     STY  $00
 82A8  A9 79     LDA  #$79
 82AA  85 01     STA  $01
 82AC  A9 00     LDA  #$00
 82AE  4C 29 BB  JMP  $BB29
 82B1  A0 FF     LDY  #$FF
 82B3  C4 00     CPY  $00
 82B5  A9 02     LDA  #$02
 82B7  E5 01     SBC  $01
 82B9  90 06     BCC  $82C1
 82BB  84 00     STY  $00
 82BD  A9 02     LDA  #$02
 82BF  85 01     STA  $01
 82C1  E8        INX  
 82C2  E8        INX  
 82C3  60        RTS  
 82C4  A0 01     LDY  #$01
 82C6  B1 02     LDA  ($02), Y
 82C8  09 02     ORA  #$02
 82CA  91 02     STA  ($02), Y
 82CC  60        RTS  
 82CD  E0 75     CPX  #$75
 82CF  30 03     BMI  $82D4
 82D1  4C 27 BB  JMP  $BB27
 82D4  B5 00     LDA  $00, X
 82D6  35 02     AND  $02, X
 82D8  95 02     STA  $02, X
 82DA  B5 01     LDA  $01, X
 82DC  35 03     AND  $03, X
 82DE  95 03     STA  $03, X
 82E0  E8        INX  
 82E1  E8        INX  
 82E2  60        RTS  
 82E3  E0 75     CPX  #$75
 82E5  30 03     BMI  $82EA
 82E7  4C 27 BB  JMP  $BB27
 82EA  A9 1B     LDA  #$1B
 82EC  20 67 8A  JSR  $8A67
 82EF  A9 5B     LDA  #$5B
 82F1  20 67 8A  JSR  $8A67
 82F4  20 5F BB  JSR  $BB5F
 82F7  A9 3B     LDA  #$3B
 82F9  20 67 8A  JSR  $8A67
 82FC  20 5F BB  JSR  $BB5F
 82FF  A9 48     LDA  #$48
 8301  20 67 8A  JSR  $8A67
 8304  60        RTS  
 8305  A5 0A     LDA  $0A
 8307  85 0C     STA  $0C
 8309  A5 0B     LDA  $0B
 830B  85 0D     STA  $0D
 830D  60        RTS  
 830E  CA        DEX  
 830F  CA        DEX  
 8310  A9 18     LDA  #$18
 8312  95 00     STA  $00, X
 8314  A9 00     LDA  #$00
 8316  95 01     STA  $01, X
 8318  60        RTS  
 8319  20 57 8D  JSR  $8D57
 831C  60        RTS  
 831D  A9 07     LDA  #$07
 831F  20 67 8A  JSR  $8A67
 8322  60        RTS  
 8323  CA        DEX  
 8324  CA        DEX  
 8325  A9 20     LDA  #$20
 8327  95 00     STA  $00, X
 8329  74 01     STZ  $01, X
 832B  60        RTS  
 832C  E0 75     CPX  #$75
 832E  30 03     BMI  $8333
 8330  4C 27 BB  JMP  $BB27
 8333  18        CLC  
 8334  B5 00     LDA  $00, X
 8336  B4 02     LDY  $02, X
 8338  75 02     ADC  $02, X
 833A  95 02     STA  $02, X
 833C  94 00     STY  $00, X
 833E  B5 01     LDA  $01, X
 8340  B4 03     LDY  $03, X
 8342  75 03     ADC  $03, X
 8344  95 03     STA  $03, X
 8346  94 01     STY  $01, X
 8348  60        RTS  
 8349  20 B6 83  JSR  $83B6
 834C  20 81 8E  JSR  $8E81
 834F  60        RTS  
 8350  20 EF 98  JSR  $98EF
 8353  20 81 8E  JSR  $8E81
 8356  60        RTS  
 8357  A0 83     LDY  #$83
 8359  A9 5F     LDA  #$5F
 835B  20 FC B9  JSR  $B9FC
 835E  60        RTS  
 835F  68        PLA  
 8360  85 1E     STA  $1E
 8362  68        PLA  
 8363  85 1F     STA  $1F
 8365  A0 01     LDY  #$01
 8367  B1 1E     LDA  ($1E), Y
 8369  85 20     STA  $20
 836B  C8        INY  
 836C  B1 1E     LDA  ($1E), Y
 836E  85 21     STA  $21
 8370  6C 20 00  JMP  ($0020)
 8373  00        BRK  
 8374  60        RTS  
 8375  E0 77     CPX  #$77
 8377  30 03     BMI  $837C
 8379  4C 27 BB  JMP  $BB27
 837C  B5 00     LDA  $00, X
 837E  20 0C BA  JSR  $BA0C
 8381  E8        INX  
 8382  E8        INX  
 8383  60        RTS  
 8384  E0 77     CPX  #$77
 8386  30 03     BMI  $838B
 8388  4C 27 BB  JMP  $BB27
 838B  A1 00     LDA  ($00, X)
 838D  95 00     STA  $00, X
 838F  74 01     STZ  $01, X
 8391  60        RTS  
 8392  E0 75     CPX  #$75
 8394  30 03     BMI  $8399
 8396  4C 27 BB  JMP  $BB27
 8399  B5 02     LDA  $02, X
 839B  81 00     STA  ($00, X)
 839D  E8        INX  
 839E  E8        INX  
 839F  E8        INX  
 83A0  E8        INX  
 83A1  60        RTS  
 83A2  E0 77     CPX  #$77
 83A4  30 03     BMI  $83A9
 83A6  4C 27 BB  JMP  $BB27
 83A9  F6 00     INC  $00, X
 83AB  D0 02     BNE  $83AF
 83AD  F6 01     INC  $01, X
 83AF  F6 00     INC  $00, X
 83B1  D0 02     BNE  $83B5
 83B3  F6 01     INC  $01, X
 83B5  60        RTS  
 83B6  20 C5 92  JSR  $92C5
 83B9  B5 00     LDA  $00, X
 83BB  15 01     ORA  $01, X
 83BD  D0 05     BNE  $83C4
 83BF  A9 05     LDA  #$05
 83C1  4C 29 BB  JMP  $BB29
 83C4  E8        INX  
 83C5  E8        INX  
 83C6  A1 00     LDA  ($00, X)
 83C8  95 00     STA  $00, X
 83CA  74 01     STZ  $01, X
 83CC  60        RTS  
 83CD  E0 77     CPX  #$77
 83CF  30 03     BMI  $83D4
 83D1  4C 27 BB  JMP  $BB27
 83D4  60        RTS  
 83D5  E0 73     CPX  #$73
 83D7  30 03     BMI  $83DC
 83D9  4C 27 BB  JMP  $BB27
 83DC  B5 02     LDA  $02, X
 83DE  85 22     STA  $22
 83E0  B5 03     LDA  $03, X
 83E2  85 23     STA  $23
 83E4  B5 04     LDA  $04, X
 83E6  85 20     STA  $20
 83E8  B5 05     LDA  $05, X
 83EA  85 21     STA  $21
 83EC  A0 00     LDY  #$00
 83EE  B5 01     LDA  $01, X
 83F0  F0 0F     BEQ  $8401
 83F2  B1 20     LDA  ($20), Y
 83F4  91 22     STA  ($22), Y
 83F6  C8        INY  
 83F7  D0 F9     BNE  $83F2
 83F9  E6 21     INC  $21
 83FB  E6 23     INC  $23
 83FD  D6 01     DEC  $01, X
 83FF  D0 F1     BNE  $83F2
 8401  B5 00     LDA  $00, X
 8403  F0 09     BEQ  $840E
 8405  B1 20     LDA  ($20), Y
 8407  91 22     STA  ($22), Y
 8409  C8        INY  
 840A  D6 00     DEC  $00, X
 840C  D0 F7     BNE  $8405
 840E  8A        TXA  
 840F  18        CLC  
 8410  69 06     ADC  #$06
 8412  AA        TAX  
 8413  60        RTS  
 8414  E0 73     CPX  #$73
 8416  30 03     BMI  $841B
 8418  4C 27 BB  JMP  $BB27
 841B  B5 02     LDA  $02, X
 841D  85 22     STA  $22
 841F  B5 03     LDA  $03, X
 8421  18        CLC  
 8422  75 01     ADC  $01, X
 8424  85 23     STA  $23
 8426  B5 04     LDA  $04, X
 8428  85 20     STA  $20
 842A  B5 05     LDA  $05, X
 842C  18        CLC  
 842D  75 01     ADC  $01, X
 842F  85 21     STA  $21
 8431  F6 01     INC  $01, X
 8433  B4 00     LDY  $00, X
 8435  F0 0E     BEQ  $8445
 8437  88        DEY  
 8438  F0 07     BEQ  $8441
 843A  B1 20     LDA  ($20), Y
 843C  91 22     STA  ($22), Y
 843E  88        DEY  
 843F  D0 F9     BNE  $843A
 8441  B2 20     LDA  ($20)
 8443  92 22     STA  ($22)
 8445  C6 21     DEC  $21
 8447  C6 23     DEC  $23
 8449  D6 01     DEC  $01, X
 844B  D0 EA     BNE  $8437
 844D  8A        TXA  
 844E  18        CLC  
 844F  69 06     ADC  #$06
 8451  AA        TAX  
 8452  60        RTS  
 8453  A5 16     LDA  $16
 8455  05 17     ORA  $17
 8457  F0 05     BEQ  $845E
 8459  A9 07     LDA  #$07
 845B  4C 29 BB  JMP  $BB29
 845E  C6 16     DEC  $16
 8460  C6 17     DEC  $17
 8462  A9 40     LDA  #$40
 8464  05 34     ORA  $34
 8466  85 34     STA  $34
 8468  A5 03     LDA  $03
 846A  48        PHA  
 846B  A5 02     LDA  $02
 846D  48        PHA  
 846E  20 B5 86  JSR  $86B5
 8471  A5 02     LDA  $02
 8473  85 04     STA  $04
 8475  A5 03     LDA  $03
 8477  85 05     STA  $05
 8479  68        PLA  
 847A  85 02     STA  $02
 847C  68        PLA  
 847D  85 03     STA  $03
 847F  A5 00     LDA  $00
 8481  38        SEC  
 8482  E9 03     SBC  #$03
 8484  85 00     STA  $00
 8486  B0 02     BCS  $848A
 8488  C6 01     DEC  $01
 848A  60        RTS  
 848B  A5 16     LDA  $16
 848D  05 17     ORA  $17
 848F  F0 05     BEQ  $8496
 8491  A9 07     LDA  #$07
 8493  4C 29 BB  JMP  $BB29
 8496  C6 16     DEC  $16
 8498  C6 17     DEC  $17
 849A  A9 BF     LDA  #$BF
 849C  25 34     AND  $34
 849E  85 34     STA  $34
 84A0  A5 00     LDA  $00
 84A2  85 04     STA  $04
 84A4  A5 01     LDA  $01
 84A6  85 05     STA  $05
 84A8  60        RTS  
 84A9  E0 77     CPX  #$77
 84AB  D0 03     BNE  $84B0
 84AD  4C 27 BB  JMP  $BB27
 84B0  B5 00     LDA  $00, X
 84B2  92 00     STA  ($00)
 84B4  E6 00     INC  $00
 84B6  D0 02     BNE  $84BA
 84B8  E6 01     INC  $01
 84BA  B5 01     LDA  $01, X
 84BC  92 00     STA  ($00)
 84BE  E6 00     INC  $00
 84C0  D0 02     BNE  $84C4
 84C2  E6 01     INC  $01
 84C4  E8        INX  
 84C5  E8        INX  
 84C6  60        RTS  
 84C7  E0 71     CPX  #$71
 84C9  D0 03     BNE  $84CE
 84CB  4C 27 BB  JMP  $BB27
 84CE  B5 02     LDA  $02, X
 84D0  85 22     STA  $22
 84D2  B5 03     LDA  $03, X
 84D4  85 23     STA  $23
 84D6  B5 06     LDA  $06, X
 84D8  85 20     STA  $20
 84DA  B5 07     LDA  $07, X
 84DC  85 21     STA  $21
 84DE  B5 04     LDA  $04, X
 84E0  15 05     ORA  $05, X
 84E2  F0 2C     BEQ  $8510
 84E4  B5 00     LDA  $00, X
 84E6  15 01     ORA  $01, X
 84E8  F0 3A     BEQ  $8524
 84EA  B2 20     LDA  ($20)
 84EC  D2 22     CMP  ($22)
 84EE  90 26     BCC  $8516
 84F0  D0 32     BNE  $8524
 84F2  E6 20     INC  $20
 84F4  D0 02     BNE  $84F8
 84F6  E6 21     INC  $21
 84F8  E6 22     INC  $22
 84FA  D0 02     BNE  $84FE
 84FC  E6 23     INC  $23
 84FE  B5 04     LDA  $04, X
 8500  D0 02     BNE  $8504
 8502  D6 05     DEC  $05, X
 8504  D6 04     DEC  $04, X
 8506  B5 00     LDA  $00, X
 8508  D0 02     BNE  $850C
 850A  D6 01     DEC  $01, X
 850C  D6 00     DEC  $00, X
 850E  80 CE     BRA  $84DE
 8510  B5 00     LDA  $00, X
 8512  15 01     ORA  $01, X
 8514  F0 08     BEQ  $851E
 8516  A9 FF     LDA  #$FF
 8518  95 06     STA  $06, X
 851A  95 07     STA  $07, X
 851C  80 0C     BRA  $852A
 851E  74 06     STZ  $06, X
 8520  74 07     STZ  $07, X
 8522  80 06     BRA  $852A
 8524  A9 01     LDA  #$01
 8526  95 06     STA  $06, X
 8528  74 07     STZ  $07, X
 852A  8A        TXA  
 852B  18        CLC  
 852C  69 06     ADC  #$06
 852E  AA        TAX  
 852F  60        RTS  
 8530  E0 77     CPX  #$77
 8532  30 03     BMI  $8537
 8534  4C 27 BB  JMP  $BB27
 8537  B5 01     LDA  $01, X
 8539  48        PHA  
 853A  B5 00     LDA  $00, X
 853C  48        PHA  
 853D  20 AD 8D  JSR  $8DAD
 8540  B5 00     LDA  $00, X
 8542  15 01     ORA  $01, X
 8544  D0 03     BNE  $8549
 8546  4C 31 86  JMP  $8631
 8549  B5 00     LDA  $00, X
 854B  85 28     STA  $28
 854D  B5 01     LDA  $01, X
 854F  85 29     STA  $29
 8551  F6 00     INC  $00, X
 8553  D0 02     BNE  $8557
 8555  F6 01     INC  $01, X
 8557  A1 00     LDA  ($00, X)
 8559  85 24     STA  $24
 855B  29 02     AND  #$02
 855D  F0 0D     BEQ  $856C
 855F  A5 28     LDA  $28
 8561  95 00     STA  $00, X
 8563  A5 29     LDA  $29
 8565  95 01     STA  $01, X
 8567  20 AF 9D  JSR  $9DAF
 856A  80 27     BRA  $8593
 856C  A5 24     LDA  $24
 856E  29 08     AND  #$08
 8570  F0 03     BEQ  $8575
 8572  4C 31 86  JMP  $8631
 8575  A5 28     LDA  $28
 8577  95 00     STA  $00, X
 8579  A5 29     LDA  $29
 857B  95 01     STA  $01, X
 857D  20 AF 9D  JSR  $9DAF
 8580  B5 01     LDA  $01, X
 8582  C5 1B     CMP  $1B
 8584  90 0D     BCC  $8593
 8586  D0 08     BNE  $8590
 8588  B5 00     LDA  $00, X
 858A  C5 1A     CMP  $1A
 858C  90 05     BCC  $8593
 858E  F0 03     BEQ  $8593
 8590  4C 31 86  JMP  $8631
 8593  CA        DEX  
 8594  CA        DEX  
 8595  CA        DEX  
 8596  CA        DEX  
 8597  B5 04     LDA  $04, X
 8599  95 00     STA  $00, X
 859B  B5 05     LDA  $05, X
 859D  95 01     STA  $01, X
 859F  68        PLA  
 85A0  95 04     STA  $04, X
 85A2  68        PLA  
 85A3  95 05     STA  $05, X
 85A5  A5 00     LDA  $00
 85A7  95 02     STA  $02, X
 85A9  A5 01     LDA  $01
 85AB  95 03     STA  $03, X
 85AD  A0 00     LDY  #$00
 85AF  B9 1F 86  LDA  $861F, Y
 85B2  D5 04     CMP  $04, X
 85B4  D0 07     BNE  $85BD
 85B6  B9 20 86  LDA  $8620, Y
 85B9  D5 05     CMP  $05, X
 85BB  F0 0C     BEQ  $85C9
 85BD  B9 1F 86  LDA  $861F, Y
 85C0  19 20 86  ORA  $8620, Y
 85C3  F0 22     BEQ  $85E7
 85C5  C8        INY  
 85C6  C8        INY  
 85C7  80 E6     BRA  $85AF
 85C9  98        TYA  
 85CA  4A        LSR  
 85CB  A8        TAY  
 85CC  B9 2B 86  LDA  $862B, Y
 85CF  85 28     STA  $28
 85D1  18        CLC  
 85D2  75 04     ADC  $04, X
 85D4  95 04     STA  $04, X
 85D6  90 02     BCC  $85DA
 85D8  F6 05     INC  $05, X
 85DA  06 28     ASL  $28
 85DC  38        SEC  
 85DD  B5 00     LDA  $00, X
 85DF  E5 28     SBC  $28
 85E1  95 00     STA  $00, X
 85E3  B0 02     BCS  $85E7
 85E5  D6 01     DEC  $01, X
 85E7  A5 1C     LDA  $1C
 85E9  05 1D     ORA  $1D
 85EB  F0 1C     BEQ  $8609
 85ED  A5 24     LDA  $24
 85EF  29 10     AND  #$10
 85F1  F0 16     BEQ  $8609
 85F3  18        CLC  
 85F4  B5 04     LDA  $04, X
 85F6  69 07     ADC  #$07
 85F8  95 04     STA  $04, X
 85FA  90 02     BCC  $85FE
 85FC  F6 05     INC  $05, X
 85FE  38        SEC  
 85FF  B5 00     LDA  $00, X
 8601  E9 07     SBC  #$07
 8603  95 00     STA  $00, X
 8605  B0 02     BCS  $8609
 8607  D6 01     DEC  $01, X
 8609  B5 01     LDA  $01, X
 860B  48        PHA  
 860C  B5 00     LDA  $00, X
 860E  48        PHA  
 860F  20 57 90  JSR  $9057
 8612  18        CLC  
 8613  68        PLA  
 8614  65 00     ADC  $00
 8616  85 00     STA  $00
 8618  68        PLA  
 8619  65 01     ADC  $01
 861B  85 01     STA  $01
 861D  80 2C     BRA  $864B
 861F  75 94 60 94 47 9A A1 9B 17 9B 00 00 04 04 04 06  |u.`.G...........|
 862F  06 00                                            |..              |
 8631  A9 20     LDA  #$20
 8633  92 00     STA  ($00)
 8635  A0 01     LDY  #$01
 8637  68        PLA  
 8638  91 00     STA  ($00), Y
 863A  C8        INY  
 863B  68        PLA  
 863C  91 00     STA  ($00), Y
 863E  A9 03     LDA  #$03
 8640  18        CLC  
 8641  65 00     ADC  $00
 8643  85 00     STA  $00
 8645  90 02     BCC  $8649
 8647  E6 01     INC  $01
 8649  E8        INX  
 864A  E8        INX  
 864B  60        RTS  
 864C  A0 01     LDY  #$01
 864E  B1 02     LDA  ($02), Y
 8650  09 01     ORA  #$01
 8652  91 02     STA  ($02), Y
 8654  60        RTS  
 8655  E0 77     CPX  #$77
 8657  30 03     BMI  $865C
 8659  4C 27 BB  JMP  $BB27
 865C  20 B5 86  JSR  $86B5
 865F  38        SEC  
 8660  A5 00     LDA  $00
 8662  E9 02     SBC  #$02
 8664  85 20     STA  $20
 8666  A5 01     LDA  $01
 8668  E9 00     SBC  #$00
 866A  85 21     STA  $21
 866C  A9 15     LDA  #$15
 866E  92 20     STA  ($20)
 8670  A0 01     LDY  #$01
 8672  A9 BA     LDA  #$BA
 8674  91 20     STA  ($20), Y
 8676  20 A9 84  JSR  $84A9
 8679  20 3E 8E  JSR  $8E3E
 867C  B5 00     LDA  $00, X
 867E  85 20     STA  $20
 8680  B5 01     LDA  $01, X
 8682  85 21     STA  $21
 8684  A0 06     LDY  #$06
 8686  B1 20     LDA  ($20), Y
 8688  18        CLC  
 8689  69 02     ADC  #$02
 868B  91 20     STA  ($20), Y
 868D  C8        INY  
 868E  B1 20     LDA  ($20), Y
 8690  69 00     ADC  #$00
 8692  91 20     STA  ($20), Y
 8694  E8        INX  
 8695  E8        INX  
 8696  60        RTS  
 8697  E0 77     CPX  #$77
 8699  30 03     BMI  $869E
 869B  4C 27 BB  JMP  $BB27
 869E  A1 00     LDA  ($00, X)
 86A0  A8        TAY  
 86A1  F6 00     INC  $00, X
 86A3  D0 02     BNE  $86A7
 86A5  F6 01     INC  $01, X
 86A7  98        TYA  
 86A8  CA        DEX  
 86A9  CA        DEX  
 86AA  95 00     STA  $00, X
 86AC  74 01     STZ  $01, X
 86AE  60        RTS  
 86AF  A9 0A     LDA  #$0A
 86B1  20 67 8A  JSR  $8A67
 86B4  60        RTS  
 86B5  20 C5 92  JSR  $92C5
 86B8  B5 00     LDA  $00, X
 86BA  15 01     ORA  $01, X
 86BC  D0 05     BNE  $86C3
 86BE  A9 05     LDA  #$05
 86C0  4C 29 BB  JMP  $BB29
 86C3  74 01     STZ  $01, X
 86C5  B5 00     LDA  $00, X
 86C7  85 22     STA  $22
 86C9  A5 00     LDA  $00
 86CB  85 20     STA  $20
 86CD  A5 01     LDA  $01
 86CF  85 21     STA  $21
 86D1  B5 00     LDA  $00, X
 86D3  18        CLC  
 86D4  69 08     ADC  #$08
 86D6  85 24     STA  $24
 86D8  18        CLC  
 86D9  69 03     ADC  #$03
 86DB  95 00     STA  $00, X
 86DD  74 01     STZ  $01, X
 86DF  20 84 82  JSR  $8284
 86E2  A0 00     LDY  #$00
 86E4  A5 22     LDA  $22
 86E6  91 20     STA  ($20), Y
 86E8  A9 08     LDA  #$08
 86EA  09 20     ORA  #$20
 86EC  C8        INY  
 86ED  91 20     STA  ($20), Y
 86EF  C8        INY  
 86F0  A5 02     LDA  $02
 86F2  91 20     STA  ($20), Y
 86F4  C8        INY  
 86F5  A5 03     LDA  $03
 86F7  91 20     STA  ($20), Y
 86F9  C8        INY  
 86FA  A5 21     LDA  $21
 86FC  85 03     STA  $03
 86FE  A5 20     LDA  $20
 8700  85 02     STA  $02
 8702  18        CLC  
 8703  65 24     ADC  $24
 8705  91 20     STA  ($20), Y
 8707  48        PHA  
 8708  C8        INY  
 8709  A5 21     LDA  $21
 870B  69 00     ADC  #$00
 870D  91 20     STA  ($20), Y
 870F  C8        INY  
 8710  68        PLA  
 8711  18        CLC  
 8712  69 03     ADC  #$03
 8714  91 20     STA  ($20), Y
 8716  88        DEY  
 8717  B1 20     LDA  ($20), Y
 8719  69 00     ADC  #$00
 871B  C8        INY  
 871C  C8        INY  
 871D  91 20     STA  ($20), Y
 871F  C8        INY  
 8720  B5 00     LDA  $00, X
 8722  38        SEC  
 8723  E9 08     SBC  #$08
 8725  85 28     STA  $28
 8727  B5 01     LDA  $01, X
 8729  E9 00     SBC  #$00
 872B  85 29     STA  $29
 872D  B1 28     LDA  ($28), Y
 872F  C9 5B     CMP  #$5B
 8731  B0 07     BCS  $873A
 8733  C9 41     CMP  #$41
 8735  90 03     BCC  $873A
 8737  18        CLC  
 8738  69 20     ADC  #$20
 873A  91 20     STA  ($20), Y
 873C  C8        INY  
 873D  C6 22     DEC  $22
 873F  D0 EC     BNE  $872D
 8741  A9 20     LDA  #$20
 8743  91 20     STA  ($20), Y
 8745  C8        INY  
 8746  A9 5C     LDA  #$5C
 8748  91 20     STA  ($20), Y
 874A  C8        INY  
 874B  A9 BA     LDA  #$BA
 874D  91 20     STA  ($20), Y
 874F  E8        INX  
 8750  E8        INX  
 8751  60        RTS  
 8752  E0 71     CPX  #$71
 8754  30 03     BMI  $8759
 8756  4C 27 BB  JMP  $BB27
 8759  38        SEC  
 875A  B5 06     LDA  $06, X
 875C  F5 02     SBC  $02, X
 875E  95 06     STA  $06, X
 8760  B5 07     LDA  $07, X
 8762  F5 03     SBC  $03, X
 8764  95 07     STA  $07, X
 8766  B5 04     LDA  $04, X
 8768  F5 00     SBC  $00, X
 876A  95 04     STA  $04, X
 876C  B5 05     LDA  $05, X
 876E  F5 01     SBC  $01, X
 8770  95 05     STA  $05, X
 8772  E8        INX  
 8773  E8        INX  
 8774  E8        INX  
 8775  E8        INX  
 8776  60        RTS  
 8777  E0 71     CPX  #$71
 8779  30 03     BMI  $877E
 877B  4C 27 BB  JMP  $BB27
 877E  18        CLC  
 877F  B5 02     LDA  $02, X
 8781  75 06     ADC  $06, X
 8783  95 06     STA  $06, X
 8785  B5 03     LDA  $03, X
 8787  75 07     ADC  $07, X
 8789  95 07     STA  $07, X
 878B  B5 00     LDA  $00, X
 878D  75 04     ADC  $04, X
 878F  95 04     STA  $04, X
 8791  B5 01     LDA  $01, X
 8793  75 05     ADC  $05, X
 8795  95 05     STA  $05, X
 8797  E8        INX  
 8798  E8        INX  
 8799  E8        INX  
 879A  E8        INX  
 879B  60        RTS  
 879C  E0 75     CPX  #$75
 879E  30 03     BMI  $87A3
 87A0  4C 27 BB  JMP  $BB27
 87A3  E8        INX  
 87A4  E8        INX  
 87A5  60        RTS  
 87A6  E0 75     CPX  #$75
 87A8  30 03     BMI  $87AD
 87AA  4C 27 BB  JMP  $BB27
 87AD  B5 01     LDA  $01, X
 87AF  10 17     BPL  $87C8
 87B1  A0 00     LDY  #$00
 87B3  38        SEC  
 87B4  98        TYA  
 87B5  F5 02     SBC  $02, X
 87B7  95 02     STA  $02, X
 87B9  98        TYA  
 87BA  F5 03     SBC  $03, X
 87BC  95 03     STA  $03, X
 87BE  98        TYA  
 87BF  F5 00     SBC  $00, X
 87C1  95 00     STA  $00, X
 87C3  98        TYA  
 87C4  F5 01     SBC  $01, X
 87C6  95 01     STA  $01, X
 87C8  60        RTS  
 87C9  A9 0A     LDA  #$0A
 87CB  85 18     STA  $18
 87CD  64 19     STZ  $19
 87CF  60        RTS  
 87D0  20 B5 86  JSR  $86B5
 87D3  A5 00     LDA  $00
 87D5  38        SEC  
 87D6  E9 02     SBC  #$02
 87D8  85 20     STA  $20
 87DA  A5 01     LDA  $01
 87DC  E9 00     SBC  #$00
 87DE  85 21     STA  $21
 87E0  A0 00     LDY  #$00
 87E2  A9 29     LDA  #$29
 87E4  91 20     STA  ($20), Y
 87E6  C8        INY  
 87E7  A9 BA     LDA  #$BA
 87E9  91 20     STA  ($20), Y
 87EB  A9 3D     LDA  #$3D
 87ED  92 00     STA  ($00)
 87EF  E6 00     INC  $00
 87F1  D0 02     BNE  $87F5
 87F3  E6 01     INC  $01
 87F5  A9 BA     LDA  #$BA
 87F7  92 00     STA  ($00)
 87F9  E6 00     INC  $00
 87FB  D0 02     BNE  $87FF
 87FD  E6 01     INC  $01
 87FF  20 79 86  JSR  $8679
 8802  60        RTS  
 8803  A9 78     LDA  #$78
 8805  86 26     STX  $26
 8807  38        SEC  
 8808  E5 26     SBC  $26
 880A  4A        LSR  
 880B  CA        DEX  
 880C  CA        DEX  
 880D  95 00     STA  $00, X
 880F  74 01     STZ  $01, X
 8811  60        RTS  
 8812  E0 77     CPX  #$77
 8814  30 03     BMI  $8819
 8816  4C 27 BB  JMP  $BB27
 8819  CA        DEX  
 881A  CA        DEX  
 881B  74 00     STZ  $00, X
 881D  74 01     STZ  $01, X
 881F  74 03     STZ  $03, X
 8821  B5 02     LDA  $02, X
 8823  C9 30     CMP  #$30
 8825  90 23     BCC  $884A
 8827  C9 3A     CMP  #$3A
 8829  90 12     BCC  $883D
 882B  C9 41     CMP  #$41
 882D  90 1B     BCC  $884A
 882F  C9 61     CMP  #$61
 8831  90 07     BCC  $883A
 8833  C9 7B     CMP  #$7B
 8835  B0 03     BCS  $883A
 8837  18        CLC  
 8838  69 E0     ADC  #$E0
 883A  38        SEC  
 883B  E9 07     SBC  #$07
 883D  38        SEC  
 883E  E9 30     SBC  #$30
 8840  C5 18     CMP  $18
 8842  B0 06     BCS  $884A
 8844  95 02     STA  $02, X
 8846  D6 00     DEC  $00, X
 8848  D6 01     DEC  $01, X
 884A  60        RTS  
 884B  E0 75     CPX  #$75
 884D  30 03     BMI  $8852
 884F  4C 27 BB  JMP  $BB27
 8852  20 8A 9E  JSR  $9E8A
 8855  60        RTS  
 8856  E0 75     CPX  #$75
 8858  30 03     BMI  $885D
 885A  4C 27 BB  JMP  $BB27
 885D  A0 00     LDY  #$00
 885F  38        SEC  
 8860  98        TYA  
 8861  F5 02     SBC  $02, X
 8863  95 02     STA  $02, X
 8865  98        TYA  
 8866  F5 03     SBC  $03, X
 8868  95 03     STA  $03, X
 886A  98        TYA  
 886B  F5 00     SBC  $00, X
 886D  95 00     STA  $00, X
 886F  98        TYA  
 8870  F5 01     SBC  $01, X
 8872  95 01     STA  $01, X
 8874  60        RTS  
 8875  A9 FF     LDA  #$FF
 8877  85 20     STA  $20
 8879  80 02     BRA  $887D
 887B  64 20     STZ  $20
 887D  CA        DEX  
 887E  CA        DEX  
 887F  A5 00     LDA  $00
 8881  95 00     STA  $00, X
 8883  A5 01     LDA  $01
 8885  95 01     STA  $01, X
 8887  A9 05     LDA  #$05
 8889  A8        TAY  
 888A  91 00     STA  ($00), Y
 888C  88        DEY  
 888D  10 FB     BPL  $888A
 888F  1A        INC  
 8890  18        CLC  
 8891  65 00     ADC  $00
 8893  85 00     STA  $00
 8895  90 02     BCC  $8899
 8897  E6 01     INC  $01
 8899  A5 20     LDA  $20
 889B  F0 17     BEQ  $88B4
 889D  A0 14     LDY  #$14
 889F  5A        PHY  
 88A0  B9 FA 88  LDA  $88FA, Y
 88A3  91 00     STA  ($00), Y
 88A5  88        DEY  
 88A6  10 F8     BPL  $88A0
 88A8  68        PLA  
 88A9  18        CLC  
 88AA  65 00     ADC  $00
 88AC  85 00     STA  $00
 88AE  A5 01     LDA  $01
 88B0  69 00     ADC  #$00
 88B2  85 01     STA  $01
 88B4  A0 24     LDY  #$24
 88B6  5A        PHY  
 88B7  B9 D6 88  LDA  $88D6, Y
 88BA  91 00     STA  ($00), Y
 88BC  88        DEY  
 88BD  10 F8     BPL  $88B7
 88BF  68        PLA  
 88C0  18        CLC  
 88C1  65 00     ADC  $00
 88C3  85 00     STA  $00
 88C5  A5 01     LDA  $01
 88C7  69 00     ADC  #$00
 88C9  85 01     STA  $01
 88CB  CA        DEX  
 88CC  CA        DEX  
 88CD  A5 00     LDA  $00
 88CF  95 00     STA  $00, X
 88D1  A5 01     LDA  $01
 88D3  95 01     STA  $01, X
 88D5  60        RTS  
 88D6  38        SEC  
 88D7  A9 00     LDA  #$00
 88D9  F5 02     SBC  $02, X
 88DB  95 02     STA  $02, X
 88DD  A9 80     LDA  #$80
 88DF  F5 03     SBC  $03, X
 88E1  95 03     STA  $03, X
 88E3  48        PHA  
 88E4  B5 02     LDA  $02, X
 88E6  48        PHA  
 88E7  18        CLC  
 88E8  B5 00     LDA  $00, X
 88EA  75 02     ADC  $02, X
 88EC  95 00     STA  $00, X
 88EE  B5 01     LDA  $01, X
 88F0  75 03     ADC  $03, X
 88F2  48        PHA  
 88F3  B5 00     LDA  $00, X
 88F5  48        PHA  
 88F6  E8        INX  
 88F7  E8        INX  
 88F8  E8        INX  
 88F9  E8        INX  
 88FA  20 9B 9A  JSR  $9A9B
 88FD  20 23 8B  JSR  $8B23
 8900  B5 00     LDA  $00, X
 8902  15 01     ORA  $01, X
 8904  F0 06     BEQ  $890C
 8906  8A        TXA  
 8907  18        CLC  
 8908  69 06     ADC  #$06
 890A  AA        TAX  
 890B  60        RTS  
 890C  E8        INX  
 890D  E8        INX  
 890E  A0 89     LDY  #$89
 8910  A9 1D     LDA  #$1D
 8912  20 FC B9  JSR  $B9FC
 8915  A0 BA     LDY  #$BA
 8917  A9 42     LDA  #$42
 8919  20 FC B9  JSR  $B9FC
 891C  60        RTS  
 891D  7A        PLY  
 891E  68        PLA  
 891F  C8        INY  
 8920  D0 01     BNE  $8923
 8922  1A        INC  
 8923  84 20     STY  $20
 8925  85 21     STA  $21
 8927  A5 02     LDA  $02
 8929  18        CLC  
 892A  69 04     ADC  #$04
 892C  85 22     STA  $22
 892E  A5 03     LDA  $03
 8930  69 00     ADC  #$00
 8932  85 23     STA  $23
 8934  B2 22     LDA  ($22)
 8936  18        CLC  
 8937  69 01     ADC  #$01
 8939  85 24     STA  $24
 893B  A0 01     LDY  #$01
 893D  B1 22     LDA  ($22), Y
 893F  69 00     ADC  #$00
 8941  85 25     STA  $25
 8943  A5 20     LDA  $20
 8945  92 24     STA  ($24)
 8947  A5 21     LDA  $21
 8949  91 24     STA  ($24), Y
 894B  60        RTS  
 894C  E0 77     CPX  #$77
 894E  30 03     BMI  $8953
 8950  4C 27 BB  JMP  $BB27
 8953  20 4A 8A  JSR  $8A4A
 8956  20 03 81  JSR  $8103
 8959  20 EA 9D  JSR  $9DEA
 895C  20 5A 8E  JSR  $8E5A
 895F  20 28 92  JSR  $9228
 8962  20 0C 95  JSR  $950C
 8965  20 05 97  JSR  $9705
 8968  20 02 92  JSR  $9202
 896B  20 D4 9B  JSR  $9BD4
 896E  20 4C 98  JSR  $984C
 8971  60        RTS  
 8972  20 44 95  JSR  $9544
 8975  A0 9B     LDY  #$9B
 8977  A9 D4     LDA  #$D4
 8979  20 FC B9  JSR  $B9FC
 897C  60        RTS  
 897D  20 03 88  JSR  $8803
 8980  A9 3C     LDA  #$3C
 8982  20 67 8A  JSR  $8A67
 8985  B5 00     LDA  $00, X
 8987  48        PHA  
 8988  CA        DEX  
 8989  CA        DEX  
 898A  95 00     STA  $00, X
 898C  74 01     STZ  $01, X
 898E  20 5F BB  JSR  $BB5F
 8991  A9 3E     LDA  #$3E
 8993  20 67 8A  JSR  $8A67
 8996  A9 20     LDA  #$20
 8998  20 67 8A  JSR  $8A67
 899B  E8        INX  
 899C  E8        INX  
 899D  E0 78     CPX  #$78
 899F  F0 1E     BEQ  $89BF
 89A1  7A        PLY  
 89A2  A9 77     LDA  #$77
 89A4  85 24     STA  $24
 89A6  64 25     STZ  $25
 89A8  CA        DEX  
 89A9  CA        DEX  
 89AA  B2 24     LDA  ($24)
 89AC  95 01     STA  $01, X
 89AE  C6 24     DEC  $24
 89B0  B2 24     LDA  ($24)
 89B2  95 00     STA  $00, X
 89B4  C6 24     DEC  $24
 89B6  5A        PHY  
 89B7  20 4C 89  JSR  $894C
 89BA  7A        PLY  
 89BB  88        DEY  
 89BC  D0 EA     BNE  $89A8
 89BE  48        PHA  
 89BF  68        PLA  
 89C0  60        RTS  
 89C1  E0 77     CPX  #$77
 89C3  30 03     BMI  $89C8
 89C5  4C 27 BB  JMP  $BB27
 89C8  E8        INX  
 89C9  E8        INX  
 89CA  60        RTS  
 89CB  E0 75     CPX  #$75
 89CD  30 03     BMI  $89D2
 89CF  4C 27 BB  JMP  $BB27
 89D2  A0 10     LDY  #$10
 89D4  64 22     STZ  $22
 89D6  20 AF 86  JSR  $86AF
 89D9  B5 03     LDA  $03, X
 89DB  20 6A BA  JSR  $BA6A
 89DE  B5 02     LDA  $02, X
 89E0  20 6A BA  JSR  $BA6A
 89E3  20 4C 98  JSR  $984C
 89E6  20 4C 98  JSR  $984C
 89E9  B5 00     LDA  $00, X
 89EB  15 01     ORA  $01, X
 89ED  F0 39     BEQ  $8A28
 89EF  A1 02     LDA  ($02, X)
 89F1  48        PHA  
 89F2  20 6A BA  JSR  $BA6A
 89F5  20 4C 98  JSR  $984C
 89F8  68        PLA  
 89F9  20 1A BB  JSR  $BB1A
 89FC  B0 02     BCS  $8A00
 89FE  A9 2E     LDA  #$2E
 8A00  5A        PHY  
 8A01  A4 22     LDY  $22
 8A03  91 00     STA  ($00), Y
 8A05  E6 22     INC  $22
 8A07  7A        PLY  
 8A08  C0 09     CPY  #$09
 8A0A  D0 03     BNE  $8A0F
 8A0C  20 4C 98  JSR  $984C
 8A0F  F6 02     INC  $02, X
 8A11  D0 02     BNE  $8A15
 8A13  F6 03     INC  $03, X
 8A15  B5 00     LDA  $00, X
 8A17  D0 02     BNE  $8A1B
 8A19  D6 01     DEC  $01, X
 8A1B  D6 00     DEC  $00, X
 8A1D  88        DEY  
 8A1E  D0 C9     BNE  $89E9
 8A20  20 4C 98  JSR  $984C
 8A23  20 36 8A  JSR  $8A36
 8A26  80 AA     BRA  $89D2
 8A28  A5 22     LDA  $22
 8A2A  F0 06     BEQ  $8A32
 8A2C  20 4C 98  JSR  $984C
 8A2F  20 36 8A  JSR  $8A36
 8A32  20 8F 9A  JSR  $9A8F
 8A35  60        RTS  
 8A36  A0 00     LDY  #$00
 8A38  B1 00     LDA  ($00), Y
 8A3A  20 67 8A  JSR  $8A67
 8A3D  C8        INY  
 8A3E  C0 08     CPY  #$08
 8A40  D0 03     BNE  $8A45
 8A42  20 4C 98  JSR  $984C
 8A45  C6 22     DEC  $22
 8A47  D0 EF     BNE  $8A38
 8A49  60        RTS  
 8A4A  E0 77     CPX  #$77
 8A4C  30 03     BMI  $8A51
 8A4E  4C 27 BB  JMP  $BB27
 8A51  CA        DEX  
 8A52  CA        DEX  
 8A53  B5 02     LDA  $02, X
 8A55  95 00     STA  $00, X
 8A57  B5 03     LDA  $03, X
 8A59  95 01     STA  $01, X
 8A5B  60        RTS  
 8A5C  E0 77     CPX  #$77
 8A5E  30 03     BMI  $8A63
 8A60  4C 27 BB  JMP  $BB27
 8A63  B5 00     LDA  $00, X
 8A65  E8        INX  
 8A66  E8        INX  
 8A67  6C 10 00  JMP  ($0010)
 8A6A  E0 75     CPX  #$75
 8A6C  30 03     BMI  $8A71
 8A6E  4C 27 BB  JMP  $BB27
 8A71  A0 00     LDY  #$00
 8A73  5A        PHY  
 8A74  20 9B 9A  JSR  $9A9B
 8A77  CA        DEX  
 8A78  CA        DEX  
 8A79  B9 EB 8A  LDA  $8AEB, Y
 8A7C  95 00     STA  $00, X
 8A7E  C8        INY  
 8A7F  B9 EB 8A  LDA  $8AEB, Y
 8A82  95 01     STA  $01, X
 8A84  C8        INY  
 8A85  15 00     ORA  $00, X
 8A87  F0 4D     BEQ  $8AD6
 8A89  5A        PHY  
 8A8A  20 97 86  JSR  $8697
 8A8D  20 C7 84  JSR  $84C7
 8A90  7A        PLY  
 8A91  B5 00     LDA  $00, X
 8A93  15 01     ORA  $01, X
 8A95  F0 04     BEQ  $8A9B
 8A97  E8        INX  
 8A98  E8        INX  
 8A99  80 D9     BRA  $8A74
 8A9B  E8        INX  
 8A9C  E8        INX  
 8A9D  88        DEY  
 8A9E  88        DEY  
 8A9F  68        PLA  
 8AA0  D0 0D     BNE  $8AAF
 8AA2  B9 07 8B  LDA  $8B07, Y
 8AA5  95 02     STA  $02, X
 8AA7  C8        INY  
 8AA8  B9 07 8B  LDA  $8B07, Y
 8AAB  95 03     STA  $03, X
 8AAD  80 1F     BRA  $8ACE
 8AAF  CA        DEX  
 8AB0  CA        DEX  
 8AB1  98        TYA  
 8AB2  38        SEC  
 8AB3  E9 16     SBC  #$16
 8AB5  0A        ASL  
 8AB6  A8        TAY  
 8AB7  B9 1B 8B  LDA  $8B1B, Y
 8ABA  95 02     STA  $02, X
 8ABC  C8        INY  
 8ABD  B9 1B 8B  LDA  $8B1B, Y
 8AC0  95 03     STA  $03, X
 8AC2  C8        INY  
 8AC3  B9 1B 8B  LDA  $8B1B, Y
 8AC6  95 04     STA  $04, X
 8AC8  C8        INY  
 8AC9  B9 1B 8B  LDA  $8B1B, Y
 8ACC  95 05     STA  $05, X
 8ACE  A9 FF     LDA  #$FF
 8AD0  95 00     STA  $00, X
 8AD2  95 01     STA  $01, X
 8AD4  80 14     BRA  $8AEA
 8AD6  68        PLA  
 8AD7  D0 09     BNE  $8AE2
 8AD9  1A        INC  
 8ADA  48        PHA  
 8ADB  8A        TXA  
 8ADC  18        CLC  
 8ADD  69 06     ADC  #$06
 8ADF  AA        TAX  
 8AE0  80 92     BRA  $8A74
 8AE2  8A        TXA  
 8AE3  18        CLC  
 8AE4  69 0A     ADC  #$0A
 8AE6  AA        TAX  
 8AE7  20 18 8C  JSR  $8C18
 8AEA  60        RTS  
 8AEB  86 B9 96 B9 9C B9 A1 B9 B3 B9 BB B9 C4 B9 CA B9  |................|
 8AFB  D0 B9 E3 B9 00 00 EF B9 F5 B9 00 00 FF 7F FF 00  |................|
 8B0B  54 00 08 00 00 00 FF 00 FF 7F FF FF 80 00 20 00  |T............. .|
 8B1B  FF 7F FF FF FF FF FF FF                          |........        |
 8B23  E0 75     CPX  #$75
 8B25  30 03     BMI  $8B2A
 8B27  4C 27 BB  JMP  $BB27
 8B2A  B5 00     LDA  $00, X
 8B2C  D5 02     CMP  $02, X
 8B2E  D0 0A     BNE  $8B3A
 8B30  B5 01     LDA  $01, X
 8B32  D5 03     CMP  $03, X
 8B34  D0 04     BNE  $8B3A
 8B36  A9 FF     LDA  #$FF
 8B38  80 02     BRA  $8B3C
 8B3A  A9 00     LDA  #$00
 8B3C  95 02     STA  $02, X
 8B3E  95 03     STA  $03, X
 8B40  E8        INX  
 8B41  E8        INX  
 8B42  60        RTS  
 8B43  CA        DEX  
 8B44  CA        DEX  
 8B45  A9 20     LDA  #$20
 8B47  95 00     STA  $00, X
 8B49  74 01     STZ  $01, X
 8B4B  80 06     BRA  $8B53
 8B4D  CA        DEX  
 8B4E  CA        DEX  
 8B4F  74 00     STZ  $00, X
 8B51  74 01     STZ  $01, X
 8B53  E0 73     CPX  #$73
 8B55  30 03     BMI  $8B5A
 8B57  4C 27 BB  JMP  $BB27
 8B5A  B5 04     LDA  $04, X
 8B5C  85 20     STA  $20
 8B5E  B5 05     LDA  $05, X
 8B60  85 21     STA  $21
 8B62  B5 02     LDA  $02, X
 8B64  85 22     STA  $22
 8B66  B5 03     LDA  $03, X
 8B68  85 23     STA  $23
 8B6A  B5 00     LDA  $00, X
 8B6C  A8        TAY  
 8B6D  A9 7E     LDA  #$7E
 8B6F  C5 21     CMP  $21
 8B71  90 21     BCC  $8B94
 8B73  D0 06     BNE  $8B7B
 8B75  A9 FF     LDA  #$FF
 8B77  C5 20     CMP  $20
 8B79  90 19     BCC  $8B94
 8B7B  A5 22     LDA  $22
 8B7D  05 23     ORA  $23
 8B7F  F0 13     BEQ  $8B94
 8B81  98        TYA  
 8B82  92 20     STA  ($20)
 8B84  A5 22     LDA  $22
 8B86  D0 02     BNE  $8B8A
 8B88  C6 23     DEC  $23
 8B8A  C6 22     DEC  $22
 8B8C  E6 20     INC  $20
 8B8E  D0 DD     BNE  $8B6D
 8B90  E6 21     INC  $21
 8B92  80 D9     BRA  $8B6D
 8B94  8A        TXA  
 8B95  18        CLC  
 8B96  69 06     ADC  #$06
 8B98  AA        TAX  
 8B99  60        RTS  
 8B9A  E0 75     CPX  #$75
 8B9C  30 03     BMI  $8BA1
 8B9E  4C 27 BB  JMP  $BB27
 8BA1  B5 00     LDA  $00, X
 8BA3  15 01     ORA  $01, X
 8BA5  D0 06     BNE  $8BAD
 8BA7  E8        INX  
 8BA8  E8        INX  
 8BA9  E8        INX  
 8BAA  E8        INX  
 8BAB  80 51     BRA  $8BFE
 8BAD  A5 0D     LDA  $0D
 8BAF  48        PHA  
 8BB0  A5 0C     LDA  $0C
 8BB2  48        PHA  
 8BB3  A5 07     LDA  $07
 8BB5  48        PHA  
 8BB6  A5 06     LDA  $06
 8BB8  48        PHA  
 8BB9  A5 09     LDA  $09
 8BBB  48        PHA  
 8BBC  A5 08     LDA  $08
 8BBE  48        PHA  
 8BBF  A5 0B     LDA  $0B
 8BC1  48        PHA  
 8BC2  A5 0A     LDA  $0A
 8BC4  48        PHA  
 8BC5  A9 FF     LDA  #$FF
 8BC7  85 06     STA  $06
 8BC9  85 07     STA  $07
 8BCB  64 0C     STZ  $0C
 8BCD  64 0D     STZ  $0D
 8BCF  B5 00     LDA  $00, X
 8BD1  85 0A     STA  $0A
 8BD3  B5 01     LDA  $01, X
 8BD5  85 0B     STA  $0B
 8BD7  B5 02     LDA  $02, X
 8BD9  85 08     STA  $08
 8BDB  B5 03     LDA  $03, X
 8BDD  85 09     STA  $09
 8BDF  E8        INX  
 8BE0  E8        INX  
 8BE1  E8        INX  
 8BE2  E8        INX  
 8BE3  20 9C BA  JSR  $BA9C
 8BE6  68        PLA  
 8BE7  85 0A     STA  $0A
 8BE9  68        PLA  
 8BEA  85 0B     STA  $0B
 8BEC  68        PLA  
 8BED  85 08     STA  $08
 8BEF  68        PLA  
 8BF0  85 09     STA  $09
 8BF2  68        PLA  
 8BF3  85 06     STA  $06
 8BF5  68        PLA  
 8BF6  85 07     STA  $07
 8BF8  68        PLA  
 8BF9  85 0C     STA  $0C
 8BFB  68        PLA  
 8BFC  85 0D     STA  $0D
 8BFE  60        RTS  
 8BFF  E0 77     CPX  #$77
 8C01  30 03     BMI  $8C06
 8C03  4C 27 BB  JMP  $BB27
 8C06  20 0A 8C  JSR  $8C0A
 8C09  60        RTS  
 8C0A  B5 00     LDA  $00, X
 8C0C  85 0E     STA  $0E
 8C0E  B5 01     LDA  $01, X
 8C10  85 0F     STA  $0F
 8C12  E8        INX  
 8C13  E8        INX  
 8C14  6C 0E 00  JMP  ($000E)
 8C17  60        RTS  
 8C18  CA        DEX  
 8C19  CA        DEX  
 8C1A  74 00     STZ  $00, X
 8C1C  74 01     STZ  $01, X
 8C1E  60        RTS  
 8C1F  E0 77     CPX  #$77
 8C21  30 03     BMI  $8C26
 8C23  4C 27 BB  JMP  $BB27
 8C26  A1 00     LDA  ($00, X)
 8C28  A8        TAY  
 8C29  F6 00     INC  $00, X
 8C2B  D0 02     BNE  $8C2F
 8C2D  F6 01     INC  $01, X
 8C2F  A1 00     LDA  ($00, X)
 8C31  95 01     STA  $01, X
 8C33  94 00     STY  $00, X
 8C35  60        RTS  
 8C36  E0 77     CPX  #$77
 8C38  30 03     BMI  $8C3D
 8C3A  4C 27 BB  JMP  $BB27
 8C3D  20 97 86  JSR  $8697
 8C40  B5 03     LDA  $03, X
 8C42  48        PHA  
 8C43  B5 02     LDA  $02, X
 8C45  48        PHA  
 8C46  20 82 8C  JSR  $8C82
 8C49  B5 00     LDA  $00, X
 8C4B  15 01     ORA  $01, X
 8C4D  D0 0B     BNE  $8C5A
 8C4F  20 18 8C  JSR  $8C18
 8C52  68        PLA  
 8C53  95 02     STA  $02, X
 8C55  68        PLA  
 8C56  95 03     STA  $03, X
 8C58  80 27     BRA  $8C81
 8C5A  68        PLA  
 8C5B  68        PLA  
 8C5C  20 4A 8A  JSR  $8A4A
 8C5F  20 76 90  JSR  $9076
 8C62  20 D7 98  JSR  $98D7
 8C65  A0 00     LDY  #$00
 8C67  F6 00     INC  $00, X
 8C69  D0 02     BNE  $8C6D
 8C6B  F6 01     INC  $01, X
 8C6D  A1 00     LDA  ($00, X)
 8C6F  29 04     AND  #$04
 8C71  D0 08     BNE  $8C7B
 8C73  A9 FF     LDA  #$FF
 8C75  95 00     STA  $00, X
 8C77  95 01     STA  $01, X
 8C79  80 06     BRA  $8C81
 8C7B  A9 01     LDA  #$01
 8C7D  95 00     STA  $00, X
 8C7F  74 01     STZ  $01, X
 8C81  60        RTS  
 8C82  E0 75     CPX  #$75
 8C84  30 03     BMI  $8C89
 8C86  4C 27 BB  JMP  $BB27
 8C89  B5 00     LDA  $00, X
 8C8B  15 01     ORA  $01, X
 8C8D  F0 6D     BEQ  $8CFC
 8C8F  A5 02     LDA  $02
 8C91  85 20     STA  $20
 8C93  A5 03     LDA  $03
 8C95  85 21     STA  $21
 8C97  B5 02     LDA  $02, X
 8C99  85 22     STA  $22
 8C9B  B5 03     LDA  $03, X
 8C9D  85 23     STA  $23
 8C9F  B2 20     LDA  ($20)
 8CA1  D5 00     CMP  $00, X
 8CA3  D0 46     BNE  $8CEB
 8CA5  B2 22     LDA  ($22)
 8CA7  C9 5B     CMP  #$5B
 8CA9  B0 07     BCS  $8CB2
 8CAB  C9 41     CMP  #$41
 8CAD  90 03     BCC  $8CB2
 8CAF  18        CLC  
 8CB0  69 20     ADC  #$20
 8CB2  A0 08     LDY  #$08
 8CB4  D1 20     CMP  ($20), Y
 8CB6  D0 33     BNE  $8CEB
 8CB8  B5 00     LDA  $00, X
 8CBA  3A        DEC  
 8CBB  F0 24     BEQ  $8CE1
 8CBD  A5 20     LDA  $20
 8CBF  18        CLC  
 8CC0  69 08     ADC  #$08
 8CC2  85 24     STA  $24
 8CC4  A5 21     LDA  $21
 8CC6  69 00     ADC  #$00
 8CC8  85 25     STA  $25
 8CCA  B4 00     LDY  $00, X
 8CCC  88        DEY  
 8CCD  B1 22     LDA  ($22), Y
 8CCF  C9 5B     CMP  #$5B
 8CD1  B0 07     BCS  $8CDA
 8CD3  C9 41     CMP  #$41
 8CD5  90 03     BCC  $8CDA
 8CD7  18        CLC  
 8CD8  69 20     ADC  #$20
 8CDA  D1 24     CMP  ($24), Y
 8CDC  D0 0D     BNE  $8CEB
 8CDE  88        DEY  
 8CDF  D0 EC     BNE  $8CCD
 8CE1  A5 20     LDA  $20
 8CE3  95 02     STA  $02, X
 8CE5  A5 21     LDA  $21
 8CE7  95 03     STA  $03, X
 8CE9  80 15     BRA  $8D00
 8CEB  A0 02     LDY  #$02
 8CED  B1 20     LDA  ($20), Y
 8CEF  48        PHA  
 8CF0  C8        INY  
 8CF1  B1 20     LDA  ($20), Y
 8CF3  85 21     STA  $21
 8CF5  68        PLA  
 8CF6  85 20     STA  $20
 8CF8  05 21     ORA  $21
 8CFA  D0 A3     BNE  $8C9F
 8CFC  74 02     STZ  $02, X
 8CFE  74 03     STZ  $03, X
 8D00  E8        INX  
 8D01  E8        INX  
 8D02  60        RTS  
 8D03  E0 73     CPX  #$73
 8D05  30 03     BMI  $8D0A
 8D07  4C 27 BB  JMP  $BB27
 8D0A  64 22     STZ  $22
 8D0C  B5 01     LDA  $01, X
 8D0E  10 0E     BPL  $8D1E
 8D10  E6 22     INC  $22
 8D12  20 C0 90  JSR  $90C0
 8D15  20 47 9A  JSR  $9A47
 8D18  20 56 88  JSR  $8856
 8D1B  20 75 94  JSR  $9475
 8D1E  B5 03     LDA  $03, X
 8D20  10 0D     BPL  $8D2F
 8D22  18        CLC  
 8D23  B5 00     LDA  $00, X
 8D25  75 02     ADC  $02, X
 8D27  95 02     STA  $02, X
 8D29  B5 01     LDA  $01, X
 8D2B  75 03     ADC  $03, X
 8D2D  95 03     STA  $03, X
 8D2F  20 52 9C  JSR  $9C52
 8D32  A5 22     LDA  $22
 8D34  F0 07     BEQ  $8D3D
 8D36  E8        INX  
 8D37  E8        INX  
 8D38  20 C0 90  JSR  $90C0
 8D3B  CA        DEX  
 8D3C  CA        DEX  
 8D3D  60        RTS  
 8D3E  E0 75     CPX  #$75
 8D40  30 03     BMI  $8D45
 8D42  4C 27 BB  JMP  $BB27
 8D45  A0 00     LDY  #$00
 8D47  20 81 BA  JSR  $BA81
 8D4A  F0 03     BEQ  $8D4F
 8D4C  10 01     BPL  $8D4F
 8D4E  88        DEY  
 8D4F  98        TYA  
 8D50  E8        INX  
 8D51  E8        INX  
 8D52  95 00     STA  $00, X
 8D54  95 01     STA  $01, X
 8D56  60        RTS  
 8D57  CA        DEX  
 8D58  CA        DEX  
 8D59  A5 00     LDA  $00
 8D5B  95 00     STA  $00, X
 8D5D  A5 01     LDA  $01
 8D5F  95 01     STA  $01, X
 8D61  60        RTS  
 8D62  A9 10     LDA  #$10
 8D64  85 18     STA  $18
 8D66  64 19     STZ  $19
 8D68  60        RTS  
 8D69  E0 77     CPX  #$77
 8D6B  30 03     BMI  $8D70
 8D6D  4C 27 BB  JMP  $BB27
 8D70  A5 2A     LDA  $2A
 8D72  D0 02     BNE  $8D76
 8D74  C6 2B     DEC  $2B
 8D76  C6 2A     DEC  $2A
 8D78  B5 00     LDA  $00, X
 8D7A  92 2A     STA  ($2A)
 8D7C  E8        INX  
 8D7D  E8        INX  
 8D7E  60        RTS  
 8D7F  CA        DEX  
 8D80  CA        DEX  
 8D81  86 26     STX  $26
 8D83  BA        TSX  
 8D84  38        SEC  
 8D85  BD 01 01  LDA  $0101, X
 8D88  FD 03 01  SBC  $0103, X
 8D8B  A8        TAY  
 8D8C  BD 02 01  LDA  $0102, X
 8D8F  FD 04 01  SBC  $0104, X
 8D92  A6 26     LDX  $26
 8D94  95 01     STA  $01, X
 8D96  94 00     STY  $00, X
 8D98  60        RTS  
 8D99  A0 01     LDY  #$01
 8D9B  B1 02     LDA  ($02), Y
 8D9D  09 04     ORA  #$04
 8D9F  91 02     STA  ($02), Y
 8DA1  60        RTS  
 8DA2  CA        DEX  
 8DA3  CA        DEX  
 8DA4  A9 12     LDA  #$12
 8DA6  95 00     STA  $00, X
 8DA8  A9 00     LDA  #$00
 8DAA  95 01     STA  $01, X
 8DAC  60        RTS  
 8DAD  E0 77     CPX  #$77
 8DAF  30 03     BMI  $8DB4
 8DB1  4C 27 BB  JMP  $BB27
 8DB4  A5 02     LDA  $02
 8DB6  85 22     STA  $22
 8DB8  A5 03     LDA  $03
 8DBA  85 23     STA  $23
 8DBC  B5 00     LDA  $00, X
 8DBE  85 24     STA  $24
 8DC0  B5 01     LDA  $01, X
 8DC2  85 25     STA  $25
 8DC4  A0 04     LDY  #$04
 8DC6  B1 22     LDA  ($22), Y
 8DC8  C5 24     CMP  $24
 8DCA  D0 07     BNE  $8DD3
 8DCC  C8        INY  
 8DCD  B1 22     LDA  ($22), Y
 8DCF  C5 25     CMP  $25
 8DD1  F0 27     BEQ  $8DFA
 8DD3  18        CLC  
 8DD4  A5 22     LDA  $22
 8DD6  69 02     ADC  #$02
 8DD8  85 22     STA  $22
 8DDA  A5 23     LDA  $23
 8DDC  69 00     ADC  #$00
 8DDE  85 23     STA  $23
 8DE0  A0 00     LDY  #$00
 8DE2  B1 22     LDA  ($22), Y
 8DE4  48        PHA  
 8DE5  C8        INY  
 8DE6  11 22     ORA  ($22), Y
 8DE8  F0 09     BEQ  $8DF3
 8DEA  B1 22     LDA  ($22), Y
 8DEC  85 23     STA  $23
 8DEE  68        PLA  
 8DEF  85 22     STA  $22
 8DF1  80 D1     BRA  $8DC4
 8DF3  68        PLA  
 8DF4  74 00     STZ  $00, X
 8DF6  74 01     STZ  $01, X
 8DF8  80 08     BRA  $8E02
 8DFA  A5 22     LDA  $22
 8DFC  95 00     STA  $00, X
 8DFE  A5 23     LDA  $23
 8E00  95 01     STA  $01, X
 8E02  60        RTS  
 8E03  E0 77     CPX  #$77
 8E05  30 03     BMI  $8E0A
 8E07  4C 27 BB  JMP  $BB27
 8E0A  A9 FF     LDA  #$FF
 8E0C  55 00     EOR  $00, X
 8E0E  95 00     STA  $00, X
 8E10  A9 FF     LDA  #$FF
 8E12  55 01     EOR  $01, X
 8E14  95 01     STA  $01, X
 8E16  60        RTS  
 8E17  CA        DEX  
 8E18  CA        DEX  
 8E19  86 26     STX  $26
 8E1B  BA        TSX  
 8E1C  38        SEC  
 8E1D  BD 07 01  LDA  $0107, X
 8E20  FD 09 01  SBC  $0109, X
 8E23  A8        TAY  
 8E24  BD 08 01  LDA  $0108, X
 8E27  FD 0A 01  SBC  $010A, X
 8E2A  A6 26     LDX  $26
 8E2C  95 01     STA  $01, X
 8E2E  94 00     STY  $00, X
 8E30  60        RTS  
 8E31  20 3B 8E  JSR  $8E3B
 8E34  CA        DEX  
 8E35  CA        DEX  
 8E36  95 00     STA  $00, X
 8E38  74 01     STZ  $01, X
 8E3A  60        RTS  
 8E3B  6C 12 00  JMP  ($0012)
 8E3E  CA        DEX  
 8E3F  CA        DEX  
 8E40  A5 02     LDA  $02
 8E42  95 00     STA  $00, X
 8E44  A5 03     LDA  $03
 8E46  95 01     STA  $01, X
 8E48  60        RTS  
 8E49  20 3E 8E  JSR  $8E3E
 8E4C  20 76 90  JSR  $9076
 8E4F  60        RTS  
 8E50  68        PLA  
 8E51  68        PLA  
 8E52  68        PLA  
 8E53  68        PLA  
 8E54  60        RTS  
 8E55  64 16     STZ  $16
 8E57  64 17     STZ  $17
 8E59  60        RTS  
 8E5A  20 97 92  JSR  $9297
 8E5D  B5 00     LDA  $00, X
 8E5F  85 2A     STA  $2A
 8E61  B5 01     LDA  $01, X
 8E63  85 2B     STA  $2B
 8E65  E8        INX  
 8E66  E8        INX  
 8E67  60        RTS  
 8E68  E0 75     CPX  #$75
 8E6A  30 03     BMI  $8E6F
 8E6C  4C 27 BB  JMP  $BB27
 8E6F  A0 00     LDY  #$00
 8E71  20 81 BA  JSR  $BA81
 8E74  F0 03     BEQ  $8E79
 8E76  30 01     BMI  $8E79
 8E78  88        DEY  
 8E79  98        TYA  
 8E7A  E8        INX  
 8E7B  E8        INX  
 8E7C  95 00     STA  $00, X
 8E7E  95 01     STA  $01, X
 8E80  60        RTS  
 8E81  E0 77     CPX  #$77
 8E83  30 03     BMI  $8E88
 8E85  4C 27 BB  JMP  $BB27
 8E88  A0 8E     LDY  #$8E
 8E8A  A9 93     LDA  #$93
 8E8C  20 FC B9  JSR  $B9FC
 8E8F  20 A9 84  JSR  $84A9
 8E92  60        RTS  
 8E93  CA        DEX  
 8E94  CA        DEX  
 8E95  68        PLA  
 8E96  85 20     STA  $20
 8E98  68        PLA  
 8E99  85 21     STA  $21
 8E9B  A0 01     LDY  #$01
 8E9D  B1 20     LDA  ($20), Y
 8E9F  95 00     STA  $00, X
 8EA1  C8        INY  
 8EA2  B1 20     LDA  ($20), Y
 8EA4  95 01     STA  $01, X
 8EA6  98        TYA  
 8EA7  18        CLC  
 8EA8  65 20     ADC  $20
 8EAA  A8        TAY  
 8EAB  A5 21     LDA  $21
 8EAD  69 00     ADC  #$00
 8EAF  48        PHA  
 8EB0  5A        PHY  
 8EB1  60        RTS  
 8EB2  A0 92     LDY  #$92
 8EB4  A9 3D     LDA  #$3D
 8EB6  20 FC B9  JSR  $B9FC
 8EB9  A0 11     LDY  #$11
 8EBB  5A        PHY  
 8EBC  B9 20 8F  LDA  $8F20, Y
 8EBF  91 00     STA  ($00), Y
 8EC1  88        DEY  
 8EC2  10 F8     BPL  $8EBC
 8EC4  68        PLA  
 8EC5  18        CLC  
 8EC6  65 00     ADC  $00
 8EC8  85 00     STA  $00
 8ECA  A5 01     LDA  $01
 8ECC  69 00     ADC  #$00
 8ECE  85 01     STA  $01
 8ED0  20 A9 84  JSR  $84A9
 8ED3  A9 68     LDA  #$68
 8ED5  A0 06     LDY  #$06
 8ED7  91 00     STA  ($00), Y
 8ED9  88        DEY  
 8EDA  10 FB     BPL  $8ED7
 8EDC  A9 06     LDA  #$06
 8EDE  18        CLC  
 8EDF  65 00     ADC  $00
 8EE1  85 00     STA  $00
 8EE3  A5 01     LDA  $01
 8EE5  69 00     ADC  #$00
 8EE7  85 01     STA  $01
 8EE9  B5 00     LDA  $00, X
 8EEB  85 20     STA  $20
 8EED  B5 01     LDA  $01, X
 8EEF  85 21     STA  $21
 8EF1  E8        INX  
 8EF2  E8        INX  
 8EF3  A5 00     LDA  $00
 8EF5  38        SEC  
 8EF6  E9 01     SBC  #$01
 8EF8  85 22     STA  $22
 8EFA  A5 01     LDA  $01
 8EFC  E9 00     SBC  #$00
 8EFE  85 23     STA  $23
 8F00  A0 00     LDY  #$00
 8F02  A9 A9     LDA  #$A9
 8F04  91 20     STA  ($20), Y
 8F06  C8        INY  
 8F07  A5 23     LDA  $23
 8F09  91 20     STA  ($20), Y
 8F0B  C8        INY  
 8F0C  A9 48     LDA  #$48
 8F0E  91 20     STA  ($20), Y
 8F10  C8        INY  
 8F11  A9 A9     LDA  #$A9
 8F13  91 20     STA  ($20), Y
 8F15  C8        INY  
 8F16  A5 22     LDA  $22
 8F18  91 20     STA  ($20), Y
 8F1A  C8        INY  
 8F1B  A9 48     LDA  #$48
 8F1D  91 20     STA  ($20), Y
 8F1F  60        RTS  
 8F20  18        CLC  
 8F21  68        PLA  
 8F22  75 00     ADC  $00, X
 8F24  A8        TAY  
 8F25  B8        CLV  
 8F26  68        PLA  
 8F27  75 01     ADC  $01, X
 8F29  48        PHA  
 8F2A  98        TYA  
 8F2B  48        PHA  
 8F2C  E8        INX  
 8F2D  E8        INX  
 8F2E  70 03     BVS  $8F33
 8F30  4C                                               |L               |
 8F31  E0 75     CPX  #$75
 8F33  30 03     BMI  $8F38
 8F35  4C 27 BB  JMP  $BB27
 8F38  B5 00     LDA  $00, X
 8F3A  29 0F     AND  #$0F
 8F3C  F0 08     BEQ  $8F46
 8F3E  A8        TAY  
 8F3F  16 02     ASL  $02, X
 8F41  36 03     ROL  $03, X
 8F43  88        DEY  
 8F44  D0 F9     BNE  $8F3F
 8F46  E8        INX  
 8F47  E8        INX  
 8F48  60        RTS  
 8F49  E0 75     CPX  #$75
 8F4B  30 03     BMI  $8F50
 8F4D  4C 27 BB  JMP  $BB27
 8F50  B5 01     LDA  $01, X
 8F52  55 03     EOR  $03, X
 8F54  48        PHA  
 8F55  20 03 81  JSR  $8103
 8F58  20 D7 98  JSR  $98D7
 8F5B  20 03 81  JSR  $8103
 8F5E  20 98 9C  JSR  $9C98
 8F61  68        PLA  
 8F62  10 03     BPL  $8F67
 8F64  20 56 88  JSR  $8856
 8F67  60        RTS  
 8F68  A5 02     LDA  $02
 8F6A  48        PHA  
 8F6B  A5 03     LDA  $03
 8F6D  48        PHA  
 8F6E  A5 00     LDA  $00
 8F70  48        PHA  
 8F71  A5 01     LDA  $01
 8F73  48        PHA  
 8F74  20 B5 86  JSR  $86B5
 8F77  A5 00     LDA  $00
 8F79  38        SEC  
 8F7A  E9 02     SBC  #$02
 8F7C  85 00     STA  $00
 8F7E  A5 01     LDA  $01
 8F80  E9 00     SBC  #$00
 8F82  85 01     STA  $01
 8F84  A0 8F     LDY  #$8F
 8F86  A9 96     LDA  #$96
 8F88  20 08 BA  JSR  $BA08
 8F8B  7A        PLY  
 8F8C  68        PLA  
 8F8D  20 08 BA  JSR  $BA08
 8F90  7A        PLY  
 8F91  68        PLA  
 8F92  20 08 BA  JSR  $BA08
 8F95  60        RTS  
 8F96  68        PLA  
 8F97  85 20     STA  $20
 8F99  68        PLA  
 8F9A  85 21     STA  $21
 8F9C  E6 20     INC  $20
 8F9E  D0 02     BNE  $8FA2
 8FA0  E6 21     INC  $21
 8FA2  A0 00     LDY  #$00
 8FA4  B1 20     LDA  ($20), Y
 8FA6  85 00     STA  $00
 8FA8  C8        INY  
 8FA9  B1 20     LDA  ($20), Y
 8FAB  85 01     STA  $01
 8FAD  C8        INY  
 8FAE  B1 20     LDA  ($20), Y
 8FB0  85 02     STA  $02
 8FB2  C8        INY  
 8FB3  B1 20     LDA  ($20), Y
 8FB5  85 03     STA  $03
 8FB7  60        RTS  
 8FB8  E0 75     CPX  #$75
 8FBA  30 03     BMI  $8FBF
 8FBC  4C 27 BB  JMP  $BB27
 8FBF  B5 00     LDA  $00, X
 8FC1  D5 02     CMP  $02, X
 8FC3  B5 01     LDA  $01, X
 8FC5  F5 03     SBC  $03, X
 8FC7  50 02     BVC  $8FCB
 8FC9  49 80     EOR  #$80
 8FCB  30 08     BMI  $8FD5
 8FCD  B5 00     LDA  $00, X
 8FCF  95 02     STA  $02, X
 8FD1  B5 01     LDA  $01, X
 8FD3  95 03     STA  $03, X
 8FD5  E8        INX  
 8FD6  E8        INX  
 8FD7  60        RTS  
 8FD8  E0 75     CPX  #$75
 8FDA  30 03     BMI  $8FDF
 8FDC  4C 27 BB  JMP  $BB27
 8FDF  B5 00     LDA  $00, X
 8FE1  D5 02     CMP  $02, X
 8FE3  B5 01     LDA  $01, X
 8FE5  F5 03     SBC  $03, X
 8FE7  50 02     BVC  $8FEB
 8FE9  49 80     EOR  #$80
 8FEB  10 08     BPL  $8FF5
 8FED  B5 00     LDA  $00, X
 8FEF  95 02     STA  $02, X
 8FF1  B5 01     LDA  $01, X
 8FF3  95 03     STA  $03, X
 8FF5  E8        INX  
 8FF6  E8        INX  
 8FF7  60        RTS  
 8FF8  E0 75     CPX  #$75
 8FFA  30 03     BMI  $8FFF
 8FFC  4C 27 BB  JMP  $BB27
 8FFF  38        SEC  
 9000  B5 02     LDA  $02, X
 9002  F5 00     SBC  $00, X
 9004  95 02     STA  $02, X
 9006  B5 03     LDA  $03, X
 9008  F5 01     SBC  $01, X
 900A  95 03     STA  $03, X
 900C  E8        INX  
 900D  E8        INX  
 900E  60        RTS  
 900F  E0 75     CPX  #$75
 9011  30 03     BMI  $9016
 9013  4C 27 BB  JMP  $BB27
 9016  B5 00     LDA  $00, X
 9018  15 01     ORA  $01, X
 901A  F0 2D     BEQ  $9049
 901C  18        CLC  
 901D  B5 02     LDA  $02, X
 901F  75 00     ADC  $00, X
 9021  85 20     STA  $20
 9023  B5 03     LDA  $03, X
 9025  75 01     ADC  $01, X
 9027  85 21     STA  $21
 9029  A5 20     LDA  $20
 902B  D0 02     BNE  $902F
 902D  C6 21     DEC  $21
 902F  C6 20     DEC  $20
 9031  B2 20     LDA  ($20)
 9033  C9 20     CMP  #$20
 9035  D0 12     BNE  $9049
 9037  A5 20     LDA  $20
 9039  D0 02     BNE  $903D
 903B  C6 21     DEC  $21
 903D  C6 20     DEC  $20
 903F  B5 00     LDA  $00, X
 9041  D0 02     BNE  $9045
 9043  D6 01     DEC  $01, X
 9045  D6 00     DEC  $00, X
 9047  80 E8     BRA  $9031
 9049  60        RTS  
 904A  E0 77     CPX  #$77
 904C  30 03     BMI  $9051
 904E  4C 27 BB  JMP  $BB27
 9051  20 23 97  JSR  $9723
 9054  E8        INX  
 9055  E8        INX  
 9056  60        RTS  
 9057  B5 03     LDA  $03, X
 9059  D5 05     CMP  $05, X
 905B  F0 05     BEQ  $9062
 905D  B0 0E     BCS  $906D
 905F  4C D5 83  JMP  $83D5
 9062  B5 02     LDA  $02, X
 9064  D5 04     CMP  $04, X
 9066  F0 08     BEQ  $9070
 9068  B0 03     BCS  $906D
 906A  4C D5 83  JMP  $83D5
 906D  4C 14 84  JMP  $8414
 9070  8A        TXA  
 9071  18        CLC  
 9072  69 06     ADC  #$06
 9074  AA        TAX  
 9075  60        RTS  
 9076  E0 77     CPX  #$77
 9078  30 03     BMI  $907D
 907A  4C 27 BB  JMP  $BB27
 907D  B5 00     LDA  $00, X
 907F  18        CLC  
 9080  69 04     ADC  #$04
 9082  85 24     STA  $24
 9084  B5 01     LDA  $01, X
 9086  90 01     BCC  $9089
 9088  1A        INC  
 9089  85 25     STA  $25
 908B  A0 00     LDY  #$00
 908D  B1 24     LDA  ($24), Y
 908F  95 00     STA  $00, X
 9091  C8        INY  
 9092  B1 24     LDA  ($24), Y
 9094  95 01     STA  $01, X
 9096  60        RTS  
 9097  E0 77     CPX  #$77
 9099  30 03     BMI  $909E
 909B  4C 27 BB  JMP  $BB27
 909E  CA        DEX  
 909F  CA        DEX  
 90A0  A1 02     LDA  ($02, X)
 90A2  95 00     STA  $00, X
 90A4  74 01     STZ  $01, X
 90A6  B5 02     LDA  $02, X
 90A8  18        CLC  
 90A9  69 08     ADC  #$08
 90AB  A8        TAY  
 90AC  B5 03     LDA  $03, X
 90AE  69 00     ADC  #$00
 90B0  95 03     STA  $03, X
 90B2  94 02     STY  $02, X
 90B4  60        RTS  
 90B5  CA        DEX  
 90B6  CA        DEX  
 90B7  A9 1A     LDA  #$1A
 90B9  95 00     STA  $00, X
 90BB  A9 00     LDA  #$00
 90BD  95 01     STA  $01, X
 90BF  60        RTS  
 90C0  E0 77     CPX  #$77
 90C2  30 03     BMI  $90C7
 90C4  4C 27 BB  JMP  $BB27
 90C7  A9 00     LDA  #$00
 90C9  38        SEC  
 90CA  F5 00     SBC  $00, X
 90CC  95 00     STA  $00, X
 90CE  A9 00     LDA  #$00
 90D0  F5 01     SBC  $01, X
 90D2  95 01     STA  $01, X
 90D4  60        RTS  
 90D5  A0 01     LDY  #$01
 90D7  B1 02     LDA  ($02), Y
 90D9  09 08     ORA  #$08
 90DB  91 02     STA  ($02), Y
 90DD  60        RTS  
 90DE  E0 75     CPX  #$75
 90E0  30 03     BMI  $90E5
 90E2  4C 27 BB  JMP  $BB27
 90E5  B5 00     LDA  $00, X
 90E7  95 02     STA  $02, X
 90E9  B5 01     LDA  $01, X
 90EB  95 03     STA  $03, X
 90ED  E8        INX  
 90EE  E8        INX  
 90EF  60        RTS  
 90F0  E0 75     CPX  #$75
 90F2  30 03     BMI  $90F7
 90F4  4C 27 BB  JMP  $BB27
 90F7  A0 00     LDY  #$00
 90F9  B5 00     LDA  $00, X
 90FB  D5 02     CMP  $02, X
 90FD  D0 0A     BNE  $9109
 90FF  B5 01     LDA  $01, X
 9101  D5 03     CMP  $03, X
 9103  D0 04     BNE  $9109
 9105  A9 FF     LDA  #$FF
 9107  80 01     BRA  $910A
 9109  88        DEY  
 910A  98        TYA  
 910B  E8        INX  
 910C  E8        INX  
 910D  95 00     STA  $00, X
 910F  95 01     STA  $01, X
 9111  60        RTS  
 9112  E0 73     CPX  #$73
 9114  30 03     BMI  $9119
 9116  4C 27 BB  JMP  $BB27
 9119  B4 01     LDY  $01, X
 911B  B5 03     LDA  $03, X
 911D  95 01     STA  $01, X
 911F  B5 05     LDA  $05, X
 9121  95 03     STA  $03, X
 9123  94 05     STY  $05, X
 9125  B4 00     LDY  $00, X
 9127  B5 02     LDA  $02, X
 9129  95 00     STA  $00, X
 912B  B5 04     LDA  $04, X
 912D  95 02     STA  $02, X
 912F  94 04     STY  $04, X
 9131  60        RTS  
 9132  E0 75     CPX  #$75
 9134  30 03     BMI  $9139
 9136  4C 27 BB  JMP  $BB27
 9139  64 26     STZ  $26
 913B  64 27     STZ  $27
 913D  A1 02     LDA  ($02, X)
 913F  C9 2D     CMP  #$2D
 9141  D0 0A     BNE  $914D
 9143  C6 27     DEC  $27
 9145  F6 02     INC  $02, X
 9147  D0 02     BNE  $914B
 9149  F6 03     INC  $03, X
 914B  D6 00     DEC  $00, X
 914D  B5 02     LDA  $02, X
 914F  18        CLC  
 9150  75 00     ADC  $00, X
 9152  85 28     STA  $28
 9154  B5 03     LDA  $03, X
 9156  69 00     ADC  #$00
 9158  85 29     STA  $29
 915A  A5 28     LDA  $28
 915C  D0 02     BNE  $9160
 915E  C6 29     DEC  $29
 9160  C6 28     DEC  $28
 9162  B2 28     LDA  ($28)
 9164  C9 2E     CMP  #$2E
 9166  D0 04     BNE  $916C
 9168  C6 26     DEC  $26
 916A  D6 00     DEC  $00, X
 916C  CA        DEX  
 916D  CA        DEX  
 916E  CA        DEX  
 916F  CA        DEX  
 9170  B5 04     LDA  $04, X
 9172  95 00     STA  $00, X
 9174  74 01     STZ  $01, X
 9176  B5 06     LDA  $06, X
 9178  95 02     STA  $02, X
 917A  B5 07     LDA  $07, X
 917C  95 03     STA  $03, X
 917E  74 04     STZ  $04, X
 9180  74 05     STZ  $05, X
 9182  74 06     STZ  $06, X
 9184  74 07     STZ  $07, X
 9186  20 A3 99  JSR  $99A3
 9189  B5 00     LDA  $00, X
 918B  F0 15     BEQ  $91A2
 918D  A9 3E     LDA  #$3E
 918F  20 67 8A  JSR  $8A67
 9192  20 D4 9B  JSR  $9BD4
 9195  A9 3C     LDA  #$3C
 9197  20 67 8A  JSR  $8A67
 919A  20 4C 98  JSR  $984C
 919D  A9 08     LDA  #$08
 919F  4C 29 BB  JMP  $BB29
 91A2  E8        INX  
 91A3  E8        INX  
 91A4  E8        INX  
 91A5  E8        INX  
 91A6  A5 26     LDA  $26
 91A8  F0 0F     BEQ  $91B9
 91AA  A5 34     LDA  $34
 91AC  09 20     ORA  #$20
 91AE  85 34     STA  $34
 91B0  A5 27     LDA  $27
 91B2  F0 14     BEQ  $91C8
 91B4  20 56 88  JSR  $8856
 91B7  80 0F     BRA  $91C8
 91B9  E8        INX  
 91BA  E8        INX  
 91BB  A5 34     LDA  $34
 91BD  29 DF     AND  #$DF
 91BF  85 34     STA  $34
 91C1  A5 27     LDA  $27
 91C3  F0 03     BEQ  $91C8
 91C5  20 C0 90  JSR  $90C0
 91C8  60        RTS  
 91C9  E0 75     CPX  #$75
 91CB  30 03     BMI  $91D0
 91CD  4C 27 BB  JMP  $BB27
 91D0  20 0E 83  JSR  $830E
 91D3  20 1F 8C  JSR  $8C1F
 91D6  20 47 9A  JSR  $9A47
 91D9  20 EA 9D  JSR  $9DEA
 91DC  20 60 94  JSR  $9460
 91DF  20 52 9C  JSR  $9C52
 91E2  20 0C 95  JSR  $950C
 91E5  20 0C 95  JSR  $950C
 91E8  20 75 94  JSR  $9475
 91EB  20 52 9C  JSR  $9C52
 91EE  20 0C 95  JSR  $950C
 91F1  20 0C 95  JSR  $950C
 91F4  B5 00     LDA  $00, X
 91F6  A8        TAY  
 91F7  B9 49 B8  LDA  $B849, Y
 91FA  95 00     STA  $00, X
 91FC  74 01     STZ  $01, X
 91FE  20 69 8D  JSR  $8D69
 9201  60        RTS  
 9202  E0 75     CPX  #$75
 9204  30 03     BMI  $9209
 9206  4C 27 BB  JMP  $BB27
 9209  A5 2A     LDA  $2A
 920B  95 00     STA  $00, X
 920D  95 02     STA  $02, X
 920F  A5 2B     LDA  $2B
 9211  95 01     STA  $01, X
 9213  95 03     STA  $03, X
 9215  20 97 92  JSR  $9297
 9218  38        SEC  
 9219  B5 00     LDA  $00, X
 921B  F5 02     SBC  $02, X
 921D  95 02     STA  $02, X
 921F  B5 01     LDA  $01, X
 9221  F5 03     SBC  $03, X
 9223  95 03     STA  $03, X
 9225  E8        INX  
 9226  E8        INX  
 9227  60        RTS  
 9228  E0 75     CPX  #$75
 922A  30 03     BMI  $922F
 922C  4C 27 BB  JMP  $BB27
 922F  20 C9 91  JSR  $91C9
 9232  B5 00     LDA  $00, X
 9234  15 01     ORA  $01, X
 9236  15 02     ORA  $02, X
 9238  15 03     ORA  $03, X
 923A  D0 F3     BNE  $922F
 923C  60        RTS  
 923D  CA        DEX  
 923E  CA        DEX  
 923F  A9 01     LDA  #$01
 9241  95 00     STA  $00, X
 9243  74 01     STZ  $01, X
 9245  60        RTS  
 9246  E0 77     CPX  #$77
 9248  30 03     BMI  $924D
 924A  4C 27 BB  JMP  $BB27
 924D  B5 00     LDA  $00, X
 924F  D0 02     BNE  $9253
 9251  D6 01     DEC  $01, X
 9253  D6 00     DEC  $00, X
 9255  60        RTS  
 9256  E0 77     CPX  #$77
 9258  30 03     BMI  $925D
 925A  4C 27 BB  JMP  $BB27
 925D  F6 00     INC  $00, X
 925F  D0 02     BNE  $9263
 9261  F6 01     INC  $01, X
 9263  60        RTS  
 9264  E0 75     CPX  #$75
 9266  30 03     BMI  $926B
 9268  4C 27 BB  JMP  $BB27
 926B  B5 00     LDA  $00, X
 926D  15 02     ORA  $02, X
 926F  95 02     STA  $02, X
 9271  B5 01     LDA  $01, X
 9273  15 03     ORA  $03, X
 9275  95 03     STA  $03, X
 9277  E8        INX  
 9278  E8        INX  
 9279  60        RTS  
 927A  CA        DEX  
 927B  CA        DEX  
 927C  A9 10     LDA  #$10
 927E  95 00     STA  $00, X
 9280  A9 00     LDA  #$00
 9282  95 01     STA  $01, X
 9284  60        RTS  
 9285  E0 75     CPX  #$75
 9287  30 03     BMI  $928C
 9289  4C 27 BB  JMP  $BB27
 928C  CA        DEX  
 928D  CA        DEX  
 928E  B5 04     LDA  $04, X
 9290  95 00     STA  $00, X
 9292  B5 05     LDA  $05, X
 9294  95 01     STA  $01, X
 9296  60        RTS  
 9297  CA        DEX  
 9298  CA        DEX  
 9299  A5 00     LDA  $00
 929B  18        CLC  
 929C  69 FF     ADC  #$FF
 929E  95 00     STA  $00, X
 92A0  A5 01     LDA  $01
 92A2  69 00     ADC  #$00
 92A4  95 01     STA  $01, X
 92A6  60        RTS  
 92A7  A9 1B     LDA  #$1B
 92A9  20 67 8A  JSR  $8A67
 92AC  A9 5B     LDA  #$5B
 92AE  20 67 8A  JSR  $8A67
 92B1  A9 32     LDA  #$32
 92B3  20 67 8A  JSR  $8A67
 92B6  A9 4A     LDA  #$4A
 92B8  20 67 8A  JSR  $8A67
 92BB  20 EA 9D  JSR  $9DEA
 92BE  20 EA 9D  JSR  $9DEA
 92C1  20 E3 82  JSR  $82E3
 92C4  60        RTS  
 92C5  A5 0A     LDA  $0A
 92C7  38        SEC  
 92C8  E5 0C     SBC  $0C
 92CA  85 20     STA  $20
 92CC  A5 0B     LDA  $0B
 92CE  E5 0D     SBC  $0D
 92D0  85 21     STA  $21
 92D2  A5 20     LDA  $20
 92D4  05 21     ORA  $21
 92D6  F0 2F     BEQ  $9307
 92D8  A5 20     LDA  $20
 92DA  F0 02     BEQ  $92DE
 92DC  C6 21     DEC  $21
 92DE  C6 20     DEC  $20
 92E0  A5 08     LDA  $08
 92E2  18        CLC  
 92E3  65 0C     ADC  $0C
 92E5  85 22     STA  $22
 92E7  A5 09     LDA  $09
 92E9  65 0D     ADC  $0D
 92EB  85 23     STA  $23
 92ED  B2 22     LDA  ($22)
 92EF  C9 20     CMP  #$20
 92F1  D0 1F     BNE  $9312
 92F3  E6 22     INC  $22
 92F5  D0 02     BNE  $92F9
 92F7  E6 23     INC  $23
 92F9  A5 20     LDA  $20
 92FB  D0 02     BNE  $92FF
 92FD  C6 21     DEC  $21
 92FF  C6 20     DEC  $20
 9301  A5 20     LDA  $20
 9303  05 21     ORA  $21
 9305  D0 E6     BNE  $92ED
 9307  CA        DEX  
 9308  CA        DEX  
 9309  CA        DEX  
 930A  CA        DEX  
 930B  74 00     STZ  $00, X
 930D  74 01     STZ  $01, X
 930F  4C B5 93  JMP  $93B5
 9312  A5 22     LDA  $22
 9314  38        SEC  
 9315  E5 08     SBC  $08
 9317  85 0C     STA  $0C
 9319  A5 23     LDA  $23
 931B  E5 09     SBC  $09
 931D  85 0D     STA  $0D
 931F  CA        DEX  
 9320  CA        DEX  
 9321  A9 20     LDA  #$20
 9323  95 00     STA  $00, X
 9325  74 01     STZ  $01, X
 9327  E0 77     CPX  #$77
 9329  30 03     BMI  $932E
 932B  4C 27 BB  JMP  $BB27
 932E  A5 0A     LDA  $0A
 9330  05 0B     ORA  $0B
 9332  F0 0C     BEQ  $9340
 9334  A5 0D     LDA  $0D
 9336  C5 0B     CMP  $0B
 9338  90 0E     BCC  $9348
 933A  A5 0C     LDA  $0C
 933C  C5 0A     CMP  $0A
 933E  90 08     BCC  $9348
 9340  CA        DEX  
 9341  CA        DEX  
 9342  74 00     STZ  $00, X
 9344  74 01     STZ  $01, X
 9346  80 6D     BRA  $93B5
 9348  B5 00     LDA  $00, X
 934A  85 28     STA  $28
 934C  CA        DEX  
 934D  CA        DEX  
 934E  A5 08     LDA  $08
 9350  18        CLC  
 9351  65 0C     ADC  $0C
 9353  85 20     STA  $20
 9355  85 22     STA  $22
 9357  95 02     STA  $02, X
 9359  A5 09     LDA  $09
 935B  65 0D     ADC  $0D
 935D  85 21     STA  $21
 935F  85 23     STA  $23
 9361  95 03     STA  $03, X
 9363  A5 08     LDA  $08
 9365  18        CLC  
 9366  65 0A     ADC  $0A
 9368  85 24     STA  $24
 936A  A5 09     LDA  $09
 936C  65 0B     ADC  $0B
 936E  85 25     STA  $25
 9370  64 29     STZ  $29
 9372  A5 22     LDA  $22
 9374  C5 24     CMP  $24
 9376  D0 06     BNE  $937E
 9378  A5 23     LDA  $23
 937A  C5 25     CMP  $25
 937C  F0 10     BEQ  $938E
 937E  B2 22     LDA  ($22)
 9380  C5 28     CMP  $28
 9382  F0 08     BEQ  $938C
 9384  E6 22     INC  $22
 9386  D0 EA     BNE  $9372
 9388  E6 23     INC  $23
 938A  80 E6     BRA  $9372
 938C  E6 29     INC  $29
 938E  A5 22     LDA  $22
 9390  38        SEC  
 9391  E5 20     SBC  $20
 9393  95 00     STA  $00, X
 9395  A5 23     LDA  $23
 9397  E5 21     SBC  $21
 9399  95 01     STA  $01, X
 939B  A5 22     LDA  $22
 939D  38        SEC  
 939E  E5 08     SBC  $08
 93A0  85 0C     STA  $0C
 93A2  A5 23     LDA  $23
 93A4  E5 09     SBC  $09
 93A6  85 0D     STA  $0D
 93A8  A5 0C     LDA  $0C
 93AA  18        CLC  
 93AB  65 29     ADC  $29
 93AD  85 0C     STA  $0C
 93AF  A5 0D     LDA  $0D
 93B1  69 00     ADC  #$00
 93B3  85 0D     STA  $0D
 93B5  60        RTS  
 93B6  16 00     ASL  $00, X
 93B8  8A        TXA  
 93B9  75 00     ADC  $00, X
 93BB  A8        TAY  
 93BC  B9 02 00  LDA  $0002, Y
 93BF  95 00     STA  $00, X
 93C1  B9 03 00  LDA  $0003, Y
 93C4  95 01     STA  $01, X
 93C6  60        RTS  
 93C7  E0 75     CPX  #$75
 93C9  30 03     BMI  $93CE
 93CB  4C 27 BB  JMP  $BB27
 93CE  18        CLC  
 93CF  B5 00     LDA  $00, X
 93D1  75 02     ADC  $02, X
 93D3  95 02     STA  $02, X
 93D5  B5 01     LDA  $01, X
 93D7  75 03     ADC  $03, X
 93D9  95 03     STA  $03, X
 93DB  E8        INX  
 93DC  E8        INX  
 93DD  60        RTS  
 93DE  E0 75     CPX  #$75
 93E0  30 03     BMI  $93E5
 93E2  4C 27 BB  JMP  $BB27
 93E5  B5 00     LDA  $00, X
 93E7  85 20     STA  $20
 93E9  B5 01     LDA  $01, X
 93EB  85 21     STA  $21
 93ED  A0 00     LDY  #$00
 93EF  B1 20     LDA  ($20), Y
 93F1  18        CLC  
 93F2  75 02     ADC  $02, X
 93F4  91 20     STA  ($20), Y
 93F6  C8        INY  
 93F7  B1 20     LDA  ($20), Y
 93F9  75 03     ADC  $03, X
 93FB  91 20     STA  ($20), Y
 93FD  E8        INX  
 93FE  E8        INX  
 93FF  E8        INX  
 9400  E8        INX  
 9401  60        RTS  
 9402  20 C5 92  JSR  $92C5
 9405  B5 00     LDA  $00, X
 9407  15 01     ORA  $01, X
 9409  D0 05     BNE  $9410
 940B  A9 05     LDA  #$05
 940D  4C 29 BB  JMP  $BB29
 9410  20 82 8C  JSR  $8C82
 9413  D0 05     BNE  $941A
 9415  A9 05     LDA  #$05
 9417  4C 29 BB  JMP  $BB29
 941A  B5 00     LDA  $00, X
 941C  85 20     STA  $20
 941E  B5 01     LDA  $01, X
 9420  85 21     STA  $21
 9422  20 76 90  JSR  $9076
 9425  E6 20     INC  $20
 9427  D0 02     BNE  $942B
 9429  E6 21     INC  $21
 942B  B2 20     LDA  ($20)
 942D  29 04     AND  #$04
 942F  F0 05     BEQ  $9436
 9431  20 30 85  JSR  $8530
 9434  80 0A     BRA  $9440
 9436  20 81 8E  JSR  $8E81
 9439  A0 85     LDY  #$85
 943B  A9 30     LDA  #$30
 943D  20 FC B9  JSR  $B9FC
 9440  60        RTS  
 9441  20 1F 8C  JSR  $8C1F
 9444  20 4C 89  JSR  $894C
 9447  60        RTS  
 9448  E0 77     CPX  #$77
 944A  30 03     BMI  $944F
 944C  4C 27 BB  JMP  $BB27
 944F  B5 00     LDA  $00, X
 9451  15 01     ORA  $01, X
 9453  F0 0A     BEQ  $945F
 9455  CA        DEX  
 9456  CA        DEX  
 9457  B5 02     LDA  $02, X
 9459  95 00     STA  $00, X
 945B  B5 03     LDA  $03, X
 945D  95 01     STA  $01, X
 945F  60        RTS  
 9460  7A        PLY  
 9461  84 20     STY  $20
 9463  7A        PLY  
 9464  CA        DEX  
 9465  CA        DEX  
 9466  68        PLA  
 9467  95 00     STA  $00, X
 9469  68        PLA  
 946A  95 01     STA  $01, X
 946C  48        PHA  
 946D  B5 00     LDA  $00, X
 946F  48        PHA  
 9470  5A        PHY  
 9471  A4 20     LDY  $20
 9473  5A        PHY  
 9474  60        RTS  
 9475  68        PLA  
 9476  85 28     STA  $28
 9478  7A        PLY  
 9479  CA        DEX  
 947A  CA        DEX  
 947B  68        PLA  
 947C  95 00     STA  $00, X
 947E  68        PLA  
 947F  95 01     STA  $01, X
 9481  5A        PHY  
 9482  A5 28     LDA  $28
 9484  48        PHA  
 9485  60        RTS  
 9486  A0 00     LDY  #$00
 9488  A9 20     LDA  #$20
 948A  91 00     STA  ($00), Y
 948C  C8        INY  
 948D  24 34     BIT  $34
 948F  70 0C     BVS  $949D
 9491  A5 04     LDA  $04
 9493  91 00     STA  ($00), Y
 9495  C8        INY  
 9496  A5 05     LDA  $05
 9498  91 00     STA  ($00), Y
 949A  C8        INY  
 949B  80 1B     BRA  $94B8
 949D  A5 04     LDA  $04
 949F  18        CLC  
 94A0  69 04     ADC  #$04
 94A2  85 20     STA  $20
 94A4  A5 05     LDA  $05
 94A6  69 00     ADC  #$00
 94A8  85 21     STA  $21
 94AA  B2 20     LDA  ($20)
 94AC  91 00     STA  ($00), Y
 94AE  5A        PHY  
 94AF  A0 01     LDY  #$01
 94B1  B1 20     LDA  ($20), Y
 94B3  7A        PLY  
 94B4  C8        INY  
 94B5  91 00     STA  ($00), Y
 94B7  C8        INY  
 94B8  98        TYA  
 94B9  18        CLC  
 94BA  65 00     ADC  $00
 94BC  85 00     STA  $00
 94BE  90 02     BCC  $94C2
 94C0  E6 01     INC  $01
 94C2  60        RTS  
 94C3  A5 06     LDA  $06
 94C5  D0 2D     BNE  $94F4
 94C7  CA        DEX  
 94C8  CA        DEX  
 94C9  CA        DEX  
 94CA  CA        DEX  
 94CB  A5 08     LDA  $08
 94CD  95 02     STA  $02, X
 94CF  A5 09     LDA  $09
 94D1  95 03     STA  $03, X
 94D3  64 0A     STZ  $0A
 94D5  64 0B     STZ  $0B
 94D7  A9 FF     LDA  #$FF
 94D9  95 00     STA  $00, X
 94DB  74 01     STZ  $01, X
 94DD  20 1C 81  JSR  $811C
 94E0  B5 00     LDA  $00, X
 94E2  85 0A     STA  $0A
 94E4  B5 01     LDA  $01, X
 94E6  85 0B     STA  $0B
 94E8  64 0C     STZ  $0C
 94EA  64 0D     STZ  $0D
 94EC  A9 FF     LDA  #$FF
 94EE  95 00     STA  $00, X
 94F0  95 01     STA  $01, X
 94F2  80 10     BRA  $9504
 94F4  1A        INC  
 94F5  D0 08     BNE  $94FF
 94F7  CA        DEX  
 94F8  CA        DEX  
 94F9  74 00     STZ  $00, X
 94FB  74 01     STZ  $01, X
 94FD  80 05     BRA  $9504
 94FF  A9 01     LDA  #$01
 9501  4C 29 BB  JMP  $BB29
 9504  60        RTS  
 9505  A9 FF     LDA  #$FF
 9507  85 16     STA  $16
 9509  85 17     STA  $17
 950B  60        RTS  
 950C  E0 73     CPX  #$73
 950E  30 03     BMI  $9513
 9510  4C 27 BB  JMP  $BB27
 9513  B4 05     LDY  $05, X
 9515  B5 03     LDA  $03, X
 9517  95 05     STA  $05, X
 9519  B5 01     LDA  $01, X
 951B  95 03     STA  $03, X
 951D  94 01     STY  $01, X
 951F  B4 04     LDY  $04, X
 9521  B5 02     LDA  $02, X
 9523  95 04     STA  $04, X
 9525  B5 00     LDA  $00, X
 9527  95 02     STA  $02, X
 9529  94 00     STY  $00, X
 952B  60        RTS  
 952C  E0 75     CPX  #$75
 952E  30 03     BMI  $9533
 9530  4C 27 BB  JMP  $BB27
 9533  B5 00     LDA  $00, X
 9535  29 0F     AND  #$0F
 9537  F0 08     BEQ  $9541
 9539  A8        TAY  
 953A  56 03     LSR  $03, X
 953C  76 02     ROR  $02, X
 953E  88        DEY  
 953F  D0 F9     BNE  $953A
 9541  E8        INX  
 9542  E8        INX  
 9543  60        RTS  
 9544  CA        DEX  
 9545  CA        DEX  
 9546  CA        DEX  
 9547  CA        DEX  
 9548  A9 4C     LDA  #$4C
 954A  20 0C BA  JSR  $BA0C
 954D  20 0C BA  JSR  $BA0C
 9550  20 0C BA  JSR  $BA0C
 9553  A5 00     LDA  $00
 9555  95 02     STA  $02, X
 9557  A5 01     LDA  $01
 9559  95 03     STA  $03, X
 955B  A5 0D     LDA  $0D
 955D  C5 0B     CMP  $0B
 955F  90 18     BCC  $9579
 9561  A5 0C     LDA  $0C
 9563  C5 0A     CMP  $0A
 9565  90 12     BCC  $9579
 9567  20 C3 94  JSR  $94C3
 956A  B5 00     LDA  $00, X
 956C  15 01     ORA  $01, X
 956E  D0 05     BNE  $9575
 9570  A9 06     LDA  #$06
 9572  4C 29 BB  JMP  $BB29
 9575  E8        INX  
 9576  E8        INX  
 9577  80 E2     BRA  $955B
 9579  A5 08     LDA  $08
 957B  18        CLC  
 957C  65 0C     ADC  $0C
 957E  85 20     STA  $20
 9580  A5 09     LDA  $09
 9582  65 0D     ADC  $0D
 9584  85 21     STA  $21
 9586  B2 20     LDA  ($20)
 9588  C9 22     CMP  #$22
 958A  F0 0B     BEQ  $9597
 958C  20 0C BA  JSR  $BA0C
 958F  E6 0C     INC  $0C
 9591  D0 C8     BNE  $955B
 9593  E6 0D     INC  $0D
 9595  80 C4     BRA  $955B
 9597  E6 0C     INC  $0C
 9599  D0 02     BNE  $959D
 959B  E6 0D     INC  $0D
 959D  A5 00     LDA  $00
 959F  38        SEC  
 95A0  F5 02     SBC  $02, X
 95A2  95 00     STA  $00, X
 95A4  A5 01     LDA  $01
 95A6  F5 03     SBC  $03, X
 95A8  95 01     STA  $01, X
 95AA  B5 02     LDA  $02, X
 95AC  38        SEC  
 95AD  E9 02     SBC  #$02
 95AF  85 20     STA  $20
 95B1  B5 03     LDA  $03, X
 95B3  E9 00     SBC  #$00
 95B5  85 21     STA  $21
 95B7  A5 00     LDA  $00
 95B9  92 20     STA  ($20)
 95BB  A0 01     LDY  #$01
 95BD  A5 01     LDA  $01
 95BF  91 20     STA  ($20), Y
 95C1  A5 16     LDA  $16
 95C3  05 17     ORA  $17
 95C5  F0 03     BEQ  $95CA
 95C7  20 B9 97  JSR  $97B9
 95CA  60        RTS  
 95CB  E0 77     CPX  #$77
 95CD  30 03     BMI  $95D2
 95CF  4C 27 BB  JMP  $BB27
 95D2  CA        DEX  
 95D3  CA        DEX  
 95D4  74 00     STZ  $00, X
 95D6  74 01     STZ  $01, X
 95D8  B5 03     LDA  $03, X
 95DA  10 04     BPL  $95E0
 95DC  D6 00     DEC  $00, X
 95DE  D6 01     DEC  $01, X
 95E0  60        RTS  
 95E1  E0 71     CPX  #$71
 95E3  D0 03     BNE  $95E8
 95E5  4C 27 BB  JMP  $BB27
 95E8  B5 00     LDA  $00, X
 95EA  15 01     ORA  $01, X
 95EC  D0 0B     BNE  $95F9
 95EE  E8        INX  
 95EF  E8        INX  
 95F0  A9 FF     LDA  #$FF
 95F2  95 00     STA  $00, X
 95F4  95 01     STA  $01, X
 95F6  4C 83 96  JMP  $9683
 95F9  20 EA 9D  JSR  $9DEA
 95FC  18        CLC  
 95FD  B5 00     LDA  $00, X
 95FF  75 02     ADC  $02, X
 9601  85 20     STA  $20
 9603  B5 01     LDA  $01, X
 9605  75 03     ADC  $03, X
 9607  D5 07     CMP  $07, X
 9609  90 12     BCC  $961D
 960B  D0 06     BNE  $9613
 960D  B5 06     LDA  $06, X
 960F  C5 20     CMP  $20
 9611  B0 0A     BCS  $961D
 9613  E8        INX  
 9614  E8        INX  
 9615  E8        INX  
 9616  E8        INX  
 9617  74 00     STZ  $00, X
 9619  74 01     STZ  $01, X
 961B  80 66     BRA  $9683
 961D  18        CLC  
 961E  B5 08     LDA  $08, X
 9620  75 00     ADC  $00, X
 9622  85 20     STA  $20
 9624  B5 09     LDA  $09, X
 9626  75 01     ADC  $01, X
 9628  85 21     STA  $21
 962A  B5 04     LDA  $04, X
 962C  85 22     STA  $22
 962E  B5 05     LDA  $05, X
 9630  85 23     STA  $23
 9632  B5 02     LDA  $02, X
 9634  85 24     STA  $24
 9636  B5 03     LDA  $03, X
 9638  85 25     STA  $25
 963A  B2 20     LDA  ($20)
 963C  D2 22     CMP  ($22)
 963E  F0 05     BEQ  $9645
 9640  20 56 92  JSR  $9256
 9643  80 B7     BRA  $95FC
 9645  E6 20     INC  $20
 9647  D0 02     BNE  $964B
 9649  E6 21     INC  $21
 964B  E6 22     INC  $22
 964D  D0 02     BNE  $9651
 964F  E6 23     INC  $23
 9651  A5 24     LDA  $24
 9653  D0 02     BNE  $9657
 9655  C6 25     DEC  $25
 9657  C6 24     DEC  $24
 9659  A5 24     LDA  $24
 965B  05 25     ORA  $25
 965D  D0 DB     BNE  $963A
 965F  18        CLC  
 9660  B5 00     LDA  $00, X
 9662  75 08     ADC  $08, X
 9664  95 08     STA  $08, X
 9666  B5 01     LDA  $01, X
 9668  75 09     ADC  $09, X
 966A  95 09     STA  $09, X
 966C  38        SEC  
 966D  B5 06     LDA  $06, X
 966F  F5 00     SBC  $00, X
 9671  95 06     STA  $06, X
 9673  B5 07     LDA  $07, X
 9675  F5 01     SBC  $01, X
 9677  95 07     STA  $07, X
 9679  E8        INX  
 967A  E8        INX  
 967B  E8        INX  
 967C  E8        INX  
 967D  A9 FF     LDA  #$FF
 967F  95 00     STA  $00, X
 9681  95 01     STA  $01, X
 9683  60        RTS  
 9684  24 34     BIT  $34
 9686  70 11     BVS  $9699
 9688  A9 60     LDA  #$60
 968A  20 0C BA  JSR  $BA0C
 968D  CA        DEX  
 968E  CA        DEX  
 968F  A5 04     LDA  $04
 9691  95 00     STA  $00, X
 9693  A5 05     LDA  $05
 9695  95 01     STA  $01, X
 9697  80 67     BRA  $9700
 9699  A0 06     LDY  #$06
 969B  A5 00     LDA  $00
 969D  91 04     STA  ($04), Y
 969F  C8        INY  
 96A0  A5 01     LDA  $01
 96A2  91 04     STA  ($04), Y
 96A4  A9 60     LDA  #$60
 96A6  20 0C BA  JSR  $BA0C
 96A9  CA        DEX  
 96AA  CA        DEX  
 96AB  CA        DEX  
 96AC  CA        DEX  
 96AD  B2 04     LDA  ($04)
 96AF  95 00     STA  $00, X
 96B1  74 01     STZ  $01, X
 96B3  A5 04     LDA  $04
 96B5  18        CLC  
 96B6  69 08     ADC  #$08
 96B8  95 02     STA  $02, X
 96BA  A5 05     LDA  $05
 96BC  69 00     ADC  #$00
 96BE  95 03     STA  $03, X
 96C0  20 82 8C  JSR  $8C82
 96C3  B5 00     LDA  $00, X
 96C5  15 01     ORA  $01, X
 96C7  F0 2D     BEQ  $96F6
 96C9  A9 1A     LDA  #$1A
 96CB  85 24     STA  $24
 96CD  A9 B8     LDA  #$B8
 96CF  85 25     STA  $25
 96D1  20 52 BB  JSR  $BB52
 96D4  CA        DEX  
 96D5  CA        DEX  
 96D6  B5 02     LDA  $02, X
 96D8  95 00     STA  $00, X
 96DA  B5 03     LDA  $03, X
 96DC  95 01     STA  $01, X
 96DE  A1 00     LDA  ($00, X)
 96E0  95 00     STA  $00, X
 96E2  74 01     STZ  $01, X
 96E4  B5 02     LDA  $02, X
 96E6  18        CLC  
 96E7  69 08     ADC  #$08
 96E9  95 02     STA  $02, X
 96EB  B5 03     LDA  $03, X
 96ED  69 00     ADC  #$00
 96EF  95 03     STA  $03, X
 96F1  20 D4 9B  JSR  $9BD4
 96F4  80 02     BRA  $96F8
 96F6  E8        INX  
 96F7  E8        INX  
 96F8  A5 04     LDA  $04
 96FA  85 02     STA  $02
 96FC  A5 05     LDA  $05
 96FE  85 03     STA  $03
 9700  64 16     STZ  $16
 9702  64 17     STZ  $17
 9704  60        RTS  
 9705  E0 77     CPX  #$77
 9707  30 03     BMI  $970C
 9709  4C 27 BB  JMP  $BB27
 970C  B5 01     LDA  $01, X
 970E  30 04     BMI  $9714
 9710  E8        INX  
 9711  E8        INX  
 9712  80 09     BRA  $971D
 9714  A9 2D     LDA  #$2D
 9716  95 00     STA  $00, X
 9718  74 01     STZ  $01, X
 971A  20 69 8D  JSR  $8D69
 971D  60        RTS  
 971E  A9 00     LDA  #$00
 9720  48        PHA  
 9721  80 03     BRA  $9726
 9723  A9 FF     LDA  #$FF
 9725  48        PHA  
 9726  20 47 9A  JSR  $9A47
 9729  20 CB 95  JSR  $95CB
 972C  20 75 94  JSR  $9475
 972F  20 FF 97  JSR  $97FF
 9732  68        PLA  
 9733  D0 05     BNE  $973A
 9735  20 D7 98  JSR  $98D7
 9738  E8        INX  
 9739  E8        INX  
 973A  60        RTS  
 973B  E0 73     CPX  #$73
 973D  30 03     BMI  $9742
 973F  4C 27 BB  JMP  $BB27
 9742  18        CLC  
 9743  B5 00     LDA  $00, X
 9745  75 04     ADC  $04, X
 9747  95 04     STA  $04, X
 9749  B5 01     LDA  $01, X
 974B  75 05     ADC  $05, X
 974D  95 05     STA  $05, X
 974F  38        SEC  
 9750  B5 02     LDA  $02, X
 9752  F5 00     SBC  $00, X
 9754  95 02     STA  $02, X
 9756  B5 03     LDA  $03, X
 9758  F5 01     SBC  $01, X
 975A  95 03     STA  $03, X
 975C  E8        INX  
 975D  E8        INX  
 975E  60        RTS  
 975F  E0 75     CPX  #$75
 9761  30 03     BMI  $9766
 9763  4C 27 BB  JMP  $BB27
 9766  A9 4C     LDA  #$4C
 9768  20 0C BA  JSR  $BA0C
 976B  20 0C BA  JSR  $BA0C
 976E  20 0C BA  JSR  $BA0C
 9771  8A        TXA  
 9772  38        SEC  
 9773  E9 06     SBC  #$06
 9775  AA        TAX  
 9776  B5 08     LDA  $08, X
 9778  95 04     STA  $04, X
 977A  B5 09     LDA  $09, X
 977C  95 05     STA  $05, X
 977E  B5 06     LDA  $06, X
 9780  95 00     STA  $00, X
 9782  B5 07     LDA  $07, X
 9784  95 01     STA  $01, X
 9786  A5 00     LDA  $00
 9788  95 08     STA  $08, X
 978A  95 02     STA  $02, X
 978C  A5 01     LDA  $01
 978E  95 09     STA  $09, X
 9790  95 03     STA  $03, X
 9792  20 57 90  JSR  $9057
 9795  18        CLC  
 9796  A5 00     LDA  $00
 9798  75 00     ADC  $00, X
 979A  85 00     STA  $00
 979C  A5 01     LDA  $01
 979E  75 01     ADC  $01, X
 97A0  85 01     STA  $01
 97A2  B5 02     LDA  $02, X
 97A4  38        SEC  
 97A5  E9 02     SBC  #$02
 97A7  85 20     STA  $20
 97A9  B5 03     LDA  $03, X
 97AB  E9 00     SBC  #$00
 97AD  85 21     STA  $21
 97AF  A5 00     LDA  $00
 97B1  92 20     STA  ($20)
 97B3  A0 01     LDY  #$01
 97B5  A5 01     LDA  $01
 97B7  91 20     STA  ($20), Y
 97B9  A0 97     LDY  #$97
 97BB  A9 D3     LDA  #$D3
 97BD  20 FC B9  JSR  $B9FC
 97C0  B4 03     LDY  $03, X
 97C2  B5 02     LDA  $02, X
 97C4  20 08 BA  JSR  $BA08
 97C7  B4 01     LDY  $01, X
 97C9  B5 00     LDA  $00, X
 97CB  20 08 BA  JSR  $BA08
 97CE  E8        INX  
 97CF  E8        INX  
 97D0  E8        INX  
 97D1  E8        INX  
 97D2  60        RTS  
 97D3  CA        DEX  
 97D4  CA        DEX  
 97D5  CA        DEX  
 97D6  CA        DEX  
 97D7  68        PLA  
 97D8  85 20     STA  $20
 97DA  68        PLA  
 97DB  85 21     STA  $21
 97DD  A0 01     LDY  #$01
 97DF  B1 20     LDA  ($20), Y
 97E1  95 02     STA  $02, X
 97E3  C8        INY  
 97E4  B1 20     LDA  ($20), Y
 97E6  95 03     STA  $03, X
 97E8  C8        INY  
 97E9  B1 20     LDA  ($20), Y
 97EB  95 00     STA  $00, X
 97ED  C8        INY  
 97EE  B1 20     LDA  ($20), Y
 97F0  95 01     STA  $01, X
 97F2  18        CLC  
 97F3  A5 20     LDA  $20
 97F5  69 04     ADC  #$04
 97F7  A8        TAY  
 97F8  A5 21     LDA  $21
 97FA  69 00     ADC  #$00
 97FC  48        PHA  
 97FD  5A        PHY  
 97FE  60        RTS  
 97FF  E0 73     CPX  #$73
 9801  30 03     BMI  $9806
 9803  4C 27 BB  JMP  $BB27
 9806  B5 03     LDA  $03, X
 9808  48        PHA  
 9809  B5 01     LDA  $01, X
 980B  55 03     EOR  $03, X
 980D  48        PHA  
 980E  20 03 81  JSR  $8103
 9811  E8        INX  
 9812  E8        INX  
 9813  20 A6 87  JSR  $87A6
 9816  CA        DEX  
 9817  CA        DEX  
 9818  20 52 9C  JSR  $9C52
 981B  68        PLA  
 981C  10 03     BPL  $9821
 981E  20 C0 90  JSR  $90C0
 9821  68        PLA  
 9822  10 07     BPL  $982B
 9824  E8        INX  
 9825  E8        INX  
 9826  20 C0 90  JSR  $90C0
 9829  CA        DEX  
 982A  CA        DEX  
 982B  60        RTS  
 982C  CA        DEX  
 982D  CA        DEX  
 982E  A5 08     LDA  $08
 9830  95 00     STA  $00, X
 9832  A5 09     LDA  $09
 9834  95 01     STA  $01, X
 9836  CA        DEX  
 9837  CA        DEX  
 9838  A5 0A     LDA  $0A
 983A  95 00     STA  $00, X
 983C  A5 0B     LDA  $0B
 983E  95 01     STA  $01, X
 9840  60        RTS  
 9841  CA        DEX  
 9842  CA        DEX  
 9843  A5 06     LDA  $06
 9845  95 00     STA  $00, X
 9847  A5 07     LDA  $07
 9849  95 01     STA  $01, X
 984B  60        RTS  
 984C  A9 20     LDA  #$20
 984E  20 67 8A  JSR  $8A67
 9851  60        RTS  
 9852  E0 77     CPX  #$77
 9854  30 03     BMI  $9859
 9856  4C 27 BB  JMP  $BB27
 9859  B5 00     LDA  $00, X
 985B  15 01     ORA  $01, X
 985D  F0 26     BEQ  $9885
 985F  A9 20     LDA  #$20
 9861  B4 01     LDY  $01, X
 9863  D0 0A     BNE  $986F
 9865  B4 00     LDY  $00, X
 9867  20 67 8A  JSR  $8A67
 986A  88        DEY  
 986B  F0 18     BEQ  $9885
 986D  80 F8     BRA  $9867
 986F  B4 00     LDY  $00, X
 9871  F0 06     BEQ  $9879
 9873  20 67 8A  JSR  $8A67
 9876  88        DEY  
 9877  80 F8     BRA  $9871
 9879  A0 00     LDY  #$00
 987B  20 67 8A  JSR  $8A67
 987E  88        DEY  
 987F  D0 FA     BNE  $987B
 9881  D6 01     DEC  $01, X
 9883  D0 F4     BNE  $9879
 9885  E8        INX  
 9886  E8        INX  
 9887  60        RTS  
 9888  E0 75     CPX  #$75
 988A  30 03     BMI  $988F
 988C  4C 27 BB  JMP  $BB27
 988F  20 98 9C  JSR  $9C98
 9892  E8        INX  
 9893  E8        INX  
 9894  60        RTS  
 9895  20 9E 98  JSR  $989E
 9898  20 D7 98  JSR  $98D7
 989B  E8        INX  
 989C  E8        INX  
 989D  60        RTS  
 989E  E0 75     CPX  #$75
 98A0  30 03     BMI  $98A5
 98A2  4C 27 BB  JMP  $BB27
 98A5  20 47 9A  JSR  $9A47
 98A8  20 49 8F  JSR  $8F49
 98AB  20 75 94  JSR  $9475
 98AE  20 FF 97  JSR  $97FF
 98B1  60        RTS  
 98B2  CA        DEX  
 98B3  CA        DEX  
 98B4  A9 16     LDA  #$16
 98B6  95 00     STA  $00, X
 98B8  A9 00     LDA  #$00
 98BA  95 01     STA  $01, X
 98BC  60        RTS  
 98BD  E0 75     CPX  #$75
 98BF  30 03     BMI  $98C4
 98C1  4C 27 BB  JMP  $BB27
 98C4  B5 02     LDA  $02, X
 98C6  81 00     STA  ($00, X)
 98C8  F6 00     INC  $00, X
 98CA  D0 02     BNE  $98CE
 98CC  F6 01     INC  $01, X
 98CE  B5 03     LDA  $03, X
 98D0  81 00     STA  ($00, X)
 98D2  E8        INX  
 98D3  E8        INX  
 98D4  E8        INX  
 98D5  E8        INX  
 98D6  60        RTS  
 98D7  E0 75     CPX  #$75
 98D9  30 03     BMI  $98DE
 98DB  20 27 BB  JSR  $BB27
 98DE  B5 00     LDA  $00, X
 98E0  B4 02     LDY  $02, X
 98E2  95 02     STA  $02, X
 98E4  94 00     STY  $00, X
 98E6  B5 01     LDA  $01, X
 98E8  B4 03     LDY  $03, X
 98EA  95 03     STA  $03, X
 98EC  94 01     STY  $01, X
 98EE  60        RTS  
 98EF  20 C5 92  JSR  $92C5
 98F2  B5 00     LDA  $00, X
 98F4  15 01     ORA  $01, X
 98F6  D0 05     BNE  $98FD
 98F8  A9 05     LDA  #$05
 98FA  4C 29 BB  JMP  $BB29
 98FD  20 82 8C  JSR  $8C82
 9900  B5 00     LDA  $00, X
 9902  15 01     ORA  $01, X
 9904  D0 05     BNE  $990B
 9906  A9 08     LDA  #$08
 9908  4C 29 BB  JMP  $BB29
 990B  20 76 90  JSR  $9076
 990E  60        RTS  
 990F  20 EF 98  JSR  $98EF
 9912  B5 00     LDA  $00, X
 9914  18        CLC  
 9915  69 03     ADC  #$03
 9917  85 20     STA  $20
 9919  B5 01     LDA  $01, X
 991B  69 00     ADC  #$00
 991D  85 21     STA  $21
 991F  E8        INX  
 9920  E8        INX  
 9921  A5 16     LDA  $16
 9923  05 17     ORA  $17
 9925  F0 34     BEQ  $995B
 9927  A0 00     LDY  #$00
 9929  A9 B5     LDA  #$B5
 992B  20 08 BA  JSR  $BA08
 992E  A9 8D     LDA  #$8D
 9930  20 0C BA  JSR  $BA0C
 9933  A4 21     LDY  $21
 9935  A5 20     LDA  $20
 9937  20 08 BA  JSR  $BA08
 993A  A0 01     LDY  #$01
 993C  A9 B5     LDA  #$B5
 993E  20 08 BA  JSR  $BA08
 9941  A9 8D     LDA  #$8D
 9943  20 0C BA  JSR  $BA0C
 9946  E6 20     INC  $20
 9948  D0 02     BNE  $994C
 994A  E6 21     INC  $21
 994C  A4 21     LDY  $21
 994E  A5 20     LDA  $20
 9950  20 08 BA  JSR  $BA08
 9953  A0 E8     LDY  #$E8
 9955  98        TYA  
 9956  20 08 BA  JSR  $BA08
 9959  80 13     BRA  $996E
 995B  E0 77     CPX  #$77
 995D  30 03     BMI  $9962
 995F  4C 27 BB  JMP  $BB27
 9962  B5 00     LDA  $00, X
 9964  92 20     STA  ($20)
 9966  A0 01     LDY  #$01
 9968  B5 01     LDA  $01, X
 996A  91 20     STA  ($20), Y
 996C  E8        INX  
 996D  E8        INX  
 996E  60        RTS  
 996F  E0 77     CPX  #$77
 9971  30 03     BMI  $9976
 9973  4C 27 BB  JMP  $BB27
 9976  20 4A 8A  JSR  $8A4A
 9979  20 AD 8D  JSR  $8DAD
 997C  F6 00     INC  $00, X
 997E  D0 02     BNE  $9982
 9980  F6 01     INC  $01, X
 9982  A1 00     LDA  ($00, X)
 9984  29 20     AND  #$20
 9986  F0 0D     BEQ  $9995
 9988  18        CLC  
 9989  B5 02     LDA  $02, X
 998B  69 03     ADC  #$03
 998D  95 02     STA  $02, X
 998F  B5 03     LDA  $03, X
 9991  69 00     ADC  #$00
 9993  95 03     STA  $03, X
 9995  E8        INX  
 9996  E8        INX  
 9997  60        RTS  
 9998  CA        DEX  
 9999  CA        DEX  
 999A  A9 0C     LDA  #$0C
 999C  95 00     STA  $00, X
 999E  A9 00     LDA  #$00
 99A0  95 01     STA  $01, X
 99A2  60        RTS  
 99A3  E0 71     CPX  #$71
 99A5  30 03     BMI  $99AA
 99A7  4C 27 BB  JMP  $BB27
 99AA  B5 06     LDA  $06, X
 99AC  85 2C     STA  $2C
 99AE  B5 07     LDA  $07, X
 99B0  85 2D     STA  $2D
 99B2  B5 04     LDA  $04, X
 99B4  85 2E     STA  $2E
 99B6  B5 05     LDA  $05, X
 99B8  85 2F     STA  $2F
 99BA  CA        DEX  
 99BB  CA        DEX  
 99BC  A1 04     LDA  ($04, X)
 99BE  95 00     STA  $00, X
 99C0  74 01     STZ  $01, X
 99C2  20 12 88  JSR  $8812
 99C5  B5 00     LDA  $00, X
 99C7  D0 04     BNE  $99CD
 99C9  E8        INX  
 99CA  E8        INX  
 99CB  80 67     BRA  $9A34
 99CD  B5 02     LDA  $02, X
 99CF  85 30     STA  $30
 99D1  B5 03     LDA  $03, X
 99D3  85 31     STA  $31
 99D5  A5 2E     LDA  $2E
 99D7  95 02     STA  $02, X
 99D9  A5 2F     LDA  $2F
 99DB  95 03     STA  $03, X
 99DD  A5 18     LDA  $18
 99DF  95 00     STA  $00, X
 99E1  74 01     STZ  $01, X
 99E3  20 98 9C  JSR  $9C98
 99E6  B5 02     LDA  $02, X
 99E8  85 32     STA  $32
 99EA  B5 03     LDA  $03, X
 99EC  85 33     STA  $33
 99EE  A5 2C     LDA  $2C
 99F0  95 02     STA  $02, X
 99F2  A5 2D     LDA  $2D
 99F4  95 03     STA  $03, X
 99F6  A5 18     LDA  $18
 99F8  95 00     STA  $00, X
 99FA  74 01     STZ  $01, X
 99FC  20 98 9C  JSR  $9C98
 99FF  B5 00     LDA  $00, X
 9A01  85 2E     STA  $2E
 9A03  B5 01     LDA  $01, X
 9A05  85 2F     STA  $2F
 9A07  B5 02     LDA  $02, X
 9A09  85 2C     STA  $2C
 9A0B  B5 03     LDA  $03, X
 9A0D  85 2D     STA  $2D
 9A0F  18        CLC  
 9A10  A5 2C     LDA  $2C
 9A12  65 30     ADC  $30
 9A14  85 2C     STA  $2C
 9A16  A5 2D     LDA  $2D
 9A18  65 31     ADC  $31
 9A1A  85 2D     STA  $2D
 9A1C  A5 2E     LDA  $2E
 9A1E  65 32     ADC  $32
 9A20  85 2E     STA  $2E
 9A22  A5 2F     LDA  $2F
 9A24  65 33     ADC  $33
 9A26  85 2F     STA  $2F
 9A28  E8        INX  
 9A29  E8        INX  
 9A2A  F6 04     INC  $04, X
 9A2C  D0 02     BNE  $9A30
 9A2E  F6 05     INC  $05, X
 9A30  D6 02     DEC  $02, X
 9A32  D0 88     BNE  $99BC
 9A34  E8        INX  
 9A35  E8        INX  
 9A36  A5 2C     LDA  $2C
 9A38  95 06     STA  $06, X
 9A3A  A5 2D     LDA  $2D
 9A3C  95 07     STA  $07, X
 9A3E  A5 2E     LDA  $2E
 9A40  95 04     STA  $04, X
 9A42  A5 2F     LDA  $2F
 9A44  95 05     STA  $05, X
 9A46  60        RTS  
 9A47  68        PLA  
 9A48  85 28     STA  $28
 9A4A  7A        PLY  
 9A4B  E0 77     CPX  #$77
 9A4D  30 03     BMI  $9A52
 9A4F  4C 27 BB  JMP  $BB27
 9A52  B5 01     LDA  $01, X
 9A54  48        PHA  
 9A55  B5 00     LDA  $00, X
 9A57  48        PHA  
 9A58  E8        INX  
 9A59  E8        INX  
 9A5A  5A        PHY  
 9A5B  A5 28     LDA  $28
 9A5D  48        PHA  
 9A5E  60        RTS  
 9A5F  CA        DEX  
 9A60  CA        DEX  
 9A61  A9 FF     LDA  #$FF
 9A63  95 00     STA  $00, X
 9A65  95 01     STA  $01, X
 9A67  60        RTS  
 9A68  E0 75     CPX  #$75
 9A6A  30 03     BMI  $9A6F
 9A6C  4C 27 BB  JMP  $BB27
 9A6F  CA        DEX  
 9A70  CA        DEX  
 9A71  B4 04     LDY  $04, X
 9A73  B5 02     LDA  $02, X
 9A75  95 04     STA  $04, X
 9A77  94 02     STY  $02, X
 9A79  95 00     STA  $00, X
 9A7B  B4 05     LDY  $05, X
 9A7D  B5 03     LDA  $03, X
 9A7F  95 05     STA  $05, X
 9A81  94 03     STY  $03, X
 9A83  95 01     STA  $01, X
 9A85  60        RTS  
 9A86  CA        DEX  
 9A87  CA        DEX  
 9A88  A9 02     LDA  #$02
 9A8A  95 00     STA  $00, X
 9A8C  74 01     STZ  $01, X
 9A8E  60        RTS  
 9A8F  E0 75     CPX  #$75
 9A91  30 03     BMI  $9A96
 9A93  4C 27 BB  JMP  $BB27
 9A96  E8        INX  
 9A97  E8        INX  
 9A98  E8        INX  
 9A99  E8        INX  
 9A9A  60        RTS  
 9A9B  E0 75     CPX  #$75
 9A9D  30 03     BMI  $9AA2
 9A9F  4C 27 BB  JMP  $BB27
 9AA2  CA        DEX  
 9AA3  CA        DEX  
 9AA4  CA        DEX  
 9AA5  CA        DEX  
 9AA6  B5 04     LDA  $04, X
 9AA8  95 00     STA  $00, X
 9AAA  B5 05     LDA  $05, X
 9AAC  95 01     STA  $01, X
 9AAE  B5 06     LDA  $06, X
 9AB0  95 02     STA  $02, X
 9AB2  B5 07     LDA  $07, X
 9AB4  95 03     STA  $03, X
 9AB6  60        RTS  
 9AB7  E0 77     CPX  #$77
 9AB9  30 03     BMI  $9ABE
 9ABB  4C 27 BB  JMP  $BB27
 9ABE  B5 00     LDA  $00, X
 9AC0  85 20     STA  $20
 9AC2  B4 01     LDY  $01, X
 9AC4  84 21     STY  $21
 9AC6  CA        DEX  
 9AC7  CA        DEX  
 9AC8  B2 20     LDA  ($20)
 9ACA  95 00     STA  $00, X
 9ACC  A0 01     LDY  #$01
 9ACE  B1 20     LDA  ($20), Y
 9AD0  95 01     STA  $01, X
 9AD2  C8        INY  
 9AD3  B1 20     LDA  ($20), Y
 9AD5  95 02     STA  $02, X
 9AD7  C8        INY  
 9AD8  B1 20     LDA  ($20), Y
 9ADA  95 03     STA  $03, X
 9ADC  60        RTS  
 9ADD  E0 71     CPX  #$71
 9ADF  30 03     BMI  $9AE4
 9AE1  4C 27 BB  JMP  $BB27
 9AE4  CA        DEX  
 9AE5  CA        DEX  
 9AE6  CA        DEX  
 9AE7  CA        DEX  
 9AE8  B5 08     LDA  $08, X
 9AEA  95 00     STA  $00, X
 9AEC  B5 09     LDA  $09, X
 9AEE  95 01     STA  $01, X
 9AF0  B5 0A     LDA  $0A, X
 9AF2  95 02     STA  $02, X
 9AF4  B5 0B     LDA  $0B, X
 9AF6  95 03     STA  $03, X
 9AF8  60        RTS  
 9AF9  CA        DEX  
 9AFA  CA        DEX  
 9AFB  CA        DEX  
 9AFC  CA        DEX  
 9AFD  8A        TXA  
 9AFE  BA        TSX  
 9AFF  DA        PHX  
 9B00  7A        PLY  
 9B01  AA        TAX  
 9B02  B9 03 01  LDA  $0103, Y
 9B05  95 00     STA  $00, X
 9B07  B9 04 01  LDA  $0104, Y
 9B0A  95 01     STA  $01, X
 9B0C  B9 05 01  LDA  $0105, Y
 9B0F  95 02     STA  $02, X
 9B11  B9 06 01  LDA  $0106, Y
 9B14  95 03     STA  $03, X
 9B16  60        RTS  
 9B17  68        PLA  
 9B18  85 20     STA  $20
 9B1A  68        PLA  
 9B1B  85 21     STA  $21
 9B1D  CA        DEX  
 9B1E  CA        DEX  
 9B1F  CA        DEX  
 9B20  CA        DEX  
 9B21  68        PLA  
 9B22  95 00     STA  $00, X
 9B24  68        PLA  
 9B25  95 01     STA  $01, X
 9B27  68        PLA  
 9B28  95 02     STA  $02, X
 9B2A  68        PLA  
 9B2B  95 03     STA  $03, X
 9B2D  A5 21     LDA  $21
 9B2F  48        PHA  
 9B30  A5 20     LDA  $20
 9B32  48        PHA  
 9B33  60        RTS  
 9B34  E0 77     CPX  #$77
 9B36  30 03     BMI  $9B3B
 9B38  4C 27 BB  JMP  $BB27
 9B3B  B5 01     LDA  $01, X
 9B3D  0A        ASL  
 9B3E  76 01     ROR  $01, X
 9B40  76 00     ROR  $00, X
 9B42  60        RTS  
 9B43  E0 77     CPX  #$77
 9B45  30 03     BMI  $9B4A
 9B47  4C 27 BB  JMP  $BB27
 9B4A  16 00     ASL  $00, X
 9B4C  36 01     ROL  $01, X
 9B4E  60        RTS  
 9B4F  E0 73     CPX  #$73
 9B51  30 03     BMI  $9B56
 9B53  4C 27 BB  JMP  $BB27
 9B56  B5 00     LDA  $00, X
 9B58  85 20     STA  $20
 9B5A  B4 01     LDY  $01, X
 9B5C  84 21     STY  $21
 9B5E  E8        INX  
 9B5F  E8        INX  
 9B60  B5 00     LDA  $00, X
 9B62  92 20     STA  ($20)
 9B64  B5 01     LDA  $01, X
 9B66  A0 01     LDY  #$01
 9B68  91 20     STA  ($20), Y
 9B6A  B5 02     LDA  $02, X
 9B6C  C8        INY  
 9B6D  91 20     STA  ($20), Y
 9B6F  B5 03     LDA  $03, X
 9B71  C8        INY  
 9B72  91 20     STA  ($20), Y
 9B74  E8        INX  
 9B75  E8        INX  
 9B76  E8        INX  
 9B77  E8        INX  
 9B78  60        RTS  
 9B79  E0 71     CPX  #$71
 9B7B  30 03     BMI  $9B80
 9B7D  4C 27 BB  JMP  $BB27
 9B80  B5 00     LDA  $00, X
 9B82  B4 04     LDY  $04, X
 9B84  95 04     STA  $04, X
 9B86  94 00     STY  $00, X
 9B88  B5 01     LDA  $01, X
 9B8A  B4 05     LDY  $05, X
 9B8C  95 05     STA  $05, X
 9B8E  94 01     STY  $01, X
 9B90  B5 02     LDA  $02, X
 9B92  B4 06     LDY  $06, X
 9B94  95 06     STA  $06, X
 9B96  94 02     STY  $02, X
 9B98  B5 03     LDA  $03, X
 9B9A  B4 07     LDY  $07, X
 9B9C  95 07     STA  $07, X
 9B9E  94 03     STY  $03, X
 9BA0  60        RTS  
 9BA1  68        PLA  
 9BA2  85 20     STA  $20
 9BA4  68        PLA  
 9BA5  85 21     STA  $21
 9BA7  E0 75     CPX  #$75
 9BA9  30 03     BMI  $9BAE
 9BAB  4C 27 BB  JMP  $BB27
 9BAE  B5 03     LDA  $03, X
 9BB0  48        PHA  
 9BB1  B5 02     LDA  $02, X
 9BB3  48        PHA  
 9BB4  B5 01     LDA  $01, X
 9BB6  48        PHA  
 9BB7  B5 00     LDA  $00, X
 9BB9  48        PHA  
 9BBA  E8        INX  
 9BBB  E8        INX  
 9BBC  E8        INX  
 9BBD  E8        INX  
 9BBE  A5 21     LDA  $21
 9BC0  48        PHA  
 9BC1  A5 20     LDA  $20
 9BC3  48        PHA  
 9BC4  60        RTS  
 9BC5  20 B5 86  JSR  $86B5
 9BC8  CA        DEX  
 9BC9  CA        DEX  
 9BCA  A9 04     LDA  #$04
 9BCC  95 00     STA  $00, X
 9BCE  74 01     STZ  $01, X
 9BD0  20 84 82  JSR  $8284
 9BD3  60        RTS  
 9BD4  E0 75     CPX  #$75
 9BD6  30 03     BMI  $9BDB
 9BD8  4C 27 BB  JMP  $BB27
 9BDB  B5 02     LDA  $02, X
 9BDD  85 20     STA  $20
 9BDF  B5 03     LDA  $03, X
 9BE1  85 21     STA  $21
 9BE3  B5 00     LDA  $00, X
 9BE5  15 01     ORA  $01, X
 9BE7  F0 15     BEQ  $9BFE
 9BE9  B2 20     LDA  ($20)
 9BEB  20 67 8A  JSR  $8A67
 9BEE  E6 20     INC  $20
 9BF0  D0 02     BNE  $9BF4
 9BF2  E6 21     INC  $21
 9BF4  B5 00     LDA  $00, X
 9BF6  D0 02     BNE  $9BFA
 9BF8  D6 01     DEC  $01, X
 9BFA  D6 00     DEC  $00, X
 9BFC  80 E5     BRA  $9BE3
 9BFE  E8        INX  
 9BFF  E8        INX  
 9C00  E8        INX  
 9C01  E8        INX  
 9C02  60        RTS  
 9C03  E0 77     CPX  #$77
 9C05  30 03     BMI  $9C0A
 9C07  4C 27 BB  JMP  $BB27
 9C0A  20 5F BB  JSR  $BB5F
 9C0D  A9 20     LDA  #$20
 9C0F  20 67 8A  JSR  $8A67
 9C12  60        RTS  
 9C13  E0 75     CPX  #$75
 9C15  30 03     BMI  $9C1A
 9C17  4C 27 BB  JMP  $BB27
 9C1A  B5 00     LDA  $00, X
 9C1C  D5 02     CMP  $02, X
 9C1E  B5 01     LDA  $01, X
 9C20  F5 03     SBC  $03, X
 9C22  E8        INX  
 9C23  E8        INX  
 9C24  A9 00     LDA  #$00
 9C26  69 FF     ADC  #$FF
 9C28  95 00     STA  $00, X
 9C2A  95 01     STA  $01, X
 9C2C  60        RTS  
 9C2D  E0 75     CPX  #$75
 9C2F  30 03     BMI  $9C34
 9C31  4C 27 BB  JMP  $BB27
 9C34  B5 02     LDA  $02, X
 9C36  D5 00     CMP  $00, X
 9C38  B5 03     LDA  $03, X
 9C3A  F5 01     SBC  $01, X
 9C3C  E8        INX  
 9C3D  E8        INX  
 9C3E  A9 00     LDA  #$00
 9C40  69 FF     ADC  #$FF
 9C42  95 00     STA  $00, X
 9C44  95 01     STA  $01, X
 9C46  60        RTS  
 9C47  CA        DEX  
 9C48  CA        DEX  
 9C49  A9 1C     LDA  #$1C
 9C4B  95 00     STA  $00, X
 9C4D  A9 00     LDA  #$00
 9C4F  95 01     STA  $01, X
 9C51  60        RTS  
 9C52  E0 73     CPX  #$73
 9C54  30 03     BMI  $9C59
 9C56  4C 27 BB  JMP  $BB27
 9C59  B5 00     LDA  $00, X
 9C5B  15 01     ORA  $01, X
 9C5D  D0 05     BNE  $9C64
 9C5F  A9 04     LDA  #$04
 9C61  4C 29 BB  JMP  $BB29
 9C64  A9 11     LDA  #$11
 9C66  85 28     STA  $28
 9C68  36 04     ROL  $04, X
 9C6A  36 05     ROL  $05, X
 9C6C  C6 28     DEC  $28
 9C6E  F0 22     BEQ  $9C92
 9C70  36 02     ROL  $02, X
 9C72  36 03     ROL  $03, X
 9C74  64 20     STZ  $20
 9C76  26 20     ROL  $20
 9C78  38        SEC  
 9C79  B5 02     LDA  $02, X
 9C7B  F5 00     SBC  $00, X
 9C7D  85 21     STA  $21
 9C7F  B5 03     LDA  $03, X
 9C81  F5 01     SBC  $01, X
 9C83  A8        TAY  
 9C84  A5 20     LDA  $20
 9C86  E9 00     SBC  #$00
 9C88  90 DE     BCC  $9C68
 9C8A  A5 21     LDA  $21
 9C8C  95 02     STA  $02, X
 9C8E  94 03     STY  $03, X
 9C90  80 D6     BRA  $9C68
 9C92  E8        INX  
 9C93  E8        INX  
 9C94  20 D7 98  JSR  $98D7
 9C97  60        RTS  
 9C98  E0 75     CPX  #$75
 9C9A  30 03     BMI  $9C9F
 9C9C  4C 27 BB  JMP  $BB27
 9C9F  18        CLC  
 9CA0  B5 00     LDA  $00, X
 9CA2  E9 00     SBC  #$00
 9CA4  85 22     STA  $22
 9CA6  B5 01     LDA  $01, X
 9CA8  E9 00     SBC  #$00
 9CAA  90 31     BCC  $9CDD
 9CAC  85 23     STA  $23
 9CAE  A9 00     LDA  #$00
 9CB0  85 20     STA  $20
 9CB2  86 24     STX  $24
 9CB4  CA        DEX  
 9CB5  CA        DEX  
 9CB6  A0 08     LDY  #$08
 9CB8  56 04     LSR  $04, X
 9CBA  90 0C     BCC  $9CC8
 9CBC  85 21     STA  $21
 9CBE  A5 20     LDA  $20
 9CC0  65 22     ADC  $22
 9CC2  85 20     STA  $20
 9CC4  A5 21     LDA  $21
 9CC6  65 23     ADC  $23
 9CC8  6A        ROR  
 9CC9  66 20     ROR  $20
 9CCB  76 04     ROR  $04, X
 9CCD  88        DEY  
 9CCE  D0 EA     BNE  $9CBA
 9CD0  E8        INX  
 9CD1  E4 24     CPX  $24
 9CD3  D0 E1     BNE  $9CB6
 9CD5  95 01     STA  $01, X
 9CD7  A5 20     LDA  $20
 9CD9  95 00     STA  $00, X
 9CDB  80 04     BRA  $9CE1
 9CDD  74 02     STZ  $02, X
 9CDF  74 03     STZ  $03, X
 9CE1  60        RTS  
 9CE2  68        PLA  
 9CE3  68        PLA  
 9CE4  68        PLA  
 9CE5  68        PLA  
 9CE6  68        PLA  
 9CE7  68        PLA  
 9CE8  60        RTS  
 9CE9  CA        DEX  
 9CEA  CA        DEX  
 9CEB  A9 FE     LDA  #$FE
 9CED  38        SEC  
 9CEE  E5 00     SBC  $00
 9CF0  95 00     STA  $00, X
 9CF2  A9 79     LDA  #$79
 9CF4  E5 01     SBC  $01
 9CF6  95 01     STA  $01, X
 9CF8  60        RTS  
 9CF9  20 B5 86  JSR  $86B5
 9CFC  A9 00     LDA  #$00
 9CFE  92 00     STA  ($00)
 9D00  E6 00     INC  $00
 9D02  D0 02     BNE  $9D06
 9D04  E6 01     INC  $01
 9D06  92 00     STA  ($00)
 9D08  E6 00     INC  $00
 9D0A  D0 02     BNE  $9D0E
 9D0C  E6 01     INC  $01
 9D0E  20 79 86  JSR  $8679
 9D11  60        RTS  
 9D12  E0 73     CPX  #$73
 9D14  30 03     BMI  $9D19
 9D16  4C 27 BB  JMP  $BB27
 9D19  20 85 92  JSR  $9285
 9D1C  20 F8 8F  JSR  $8FF8
 9D1F  20 47 9A  JSR  $9A47
 9D22  20 F8 8F  JSR  $8FF8
 9D25  20 75 94  JSR  $9475
 9D28  20 2D 9C  JSR  $9C2D
 9D2B  60        RTS  
 9D2C  E0 77     CPX  #$77
 9D2E  30 03     BMI  $9D33
 9D30  4C 27 BB  JMP  $BB27
 9D33  A4 0C     LDY  $0C
 9D35  C4 0A     CPY  $0A
 9D37  F0 09     BEQ  $9D42
 9D39  B1 08     LDA  ($08), Y
 9D3B  D5 00     CMP  $00, X
 9D3D  D0 03     BNE  $9D42
 9D3F  C8        INY  
 9D40  80 F3     BRA  $9D35
 9D42  84 0C     STY  $0C
 9D44  20 27 93  JSR  $9327
 9D47  B5 00     LDA  $00, X
 9D49  92 00     STA  ($00)
 9D4B  48        PHA  
 9D4C  20 4A 8A  JSR  $8A4A
 9D4F  A5 00     LDA  $00
 9D51  18        CLC  
 9D52  69 01     ADC  #$01
 9D54  95 02     STA  $02, X
 9D56  A5 01     LDA  $01
 9D58  69 00     ADC  #$00
 9D5A  95 03     STA  $03, X
 9D5C  20 57 90  JSR  $9057
 9D5F  CA        DEX  
 9D60  CA        DEX  
 9D61  A5 00     LDA  $00
 9D63  95 00     STA  $00, X
 9D65  A5 01     LDA  $01
 9D67  95 01     STA  $01, X
 9D69  68        PLA  
 9D6A  18        CLC  
 9D6B  65 00     ADC  $00
 9D6D  85 00     STA  $00
 9D6F  A5 01     LDA  $01
 9D71  69 00     ADC  #$00
 9D73  85 01     STA  $01
 9D75  60        RTS  
 9D76  20 AF 86  JSR  $86AF
 9D79  20 3E 8E  JSR  $8E3E
 9D7C  A9 00     LDA  #$00
 9D7E  48        PHA  
 9D7F  20 4A 8A  JSR  $8A4A
 9D82  20 97 90  JSR  $9097
 9D85  68        PLA  
 9D86  18        CLC  
 9D87  75 00     ADC  $00, X
 9D89  1A        INC  
 9D8A  C9 4F     CMP  #$4F
 9D8C  90 05     BCC  $9D93
 9D8E  20 AF 86  JSR  $86AF
 9D91  A9 00     LDA  #$00
 9D93  48        PHA  
 9D94  20 D4 9B  JSR  $9BD4
 9D97  A9 20     LDA  #$20
 9D99  20 67 8A  JSR  $8A67
 9D9C  20 56 92  JSR  $9256
 9D9F  20 56 92  JSR  $9256
 9DA2  20 1F 8C  JSR  $8C1F
 9DA5  B5 00     LDA  $00, X
 9DA7  15 01     ORA  $01, X
 9DA9  D0 D4     BNE  $9D7F
 9DAB  68        PLA  
 9DAC  E8        INX  
 9DAD  E8        INX  
 9DAE  60        RTS  
 9DAF  E0 77     CPX  #$77
 9DB1  30 03     BMI  $9DB6
 9DB3  4C 27 BB  JMP  $BB27
 9DB6  B5 00     LDA  $00, X
 9DB8  85 20     STA  $20
 9DBA  B5 01     LDA  $01, X
 9DBC  85 21     STA  $21
 9DBE  A0 06     LDY  #$06
 9DC0  B1 20     LDA  ($20), Y
 9DC2  88        DEY  
 9DC3  88        DEY  
 9DC4  38        SEC  
 9DC5  F1 20     SBC  ($20), Y
 9DC7  95 00     STA  $00, X
 9DC9  A0 07     LDY  #$07
 9DCB  B1 20     LDA  ($20), Y
 9DCD  88        DEY  
 9DCE  88        DEY  
 9DCF  F1 20     SBC  ($20), Y
 9DD1  95 01     STA  $01, X
 9DD3  60        RTS  
 9DD4  E0 75     CPX  #$75
 9DD6  30 03     BMI  $9DDB
 9DD8  4C 27 BB  JMP  $BB27
 9DDB  B5 00     LDA  $00, X
 9DDD  55 02     EOR  $02, X
 9DDF  95 02     STA  $02, X
 9DE1  B5 01     LDA  $01, X
 9DE3  55 03     EOR  $03, X
 9DE5  95 03     STA  $03, X
 9DE7  E8        INX  
 9DE8  E8        INX  
 9DE9  60        RTS  
 9DEA  CA        DEX  
 9DEB  CA        DEX  
 9DEC  74 00     STZ  $00, X
 9DEE  74 01     STZ  $01, X
 9DF0  60        RTS  
 9DF1  A0 9D     LDY  #$9D
 9DF3  A9 F9     LDA  #$F9
 9DF5  20 FC B9  JSR  $B9FC
 9DF8  60        RTS  
 9DF9  68        PLA  
 9DFA  85 1E     STA  $1E
 9DFC  68        PLA  
 9DFD  85 1F     STA  $1F
 9DFF  B5 00     LDA  $00, X
 9E01  15 01     ORA  $01, X
 9E03  F0 0F     BEQ  $9E14
 9E05  A5 1E     LDA  $1E
 9E07  18        CLC  
 9E08  69 02     ADC  #$02
 9E0A  85 20     STA  $20
 9E0C  A5 1F     LDA  $1F
 9E0E  69 00     ADC  #$00
 9E10  85 21     STA  $21
 9E12  80 13     BRA  $9E27
 9E14  A0 01     LDY  #$01
 9E16  B1 1E     LDA  ($1E), Y
 9E18  85 20     STA  $20
 9E1A  C8        INY  
 9E1B  B1 1E     LDA  ($1E), Y
 9E1D  85 21     STA  $21
 9E1F  A5 20     LDA  $20
 9E21  D0 02     BNE  $9E25
 9E23  C6 21     DEC  $21
 9E25  C6 20     DEC  $20
 9E27  A5 21     LDA  $21
 9E29  48        PHA  
 9E2A  A5 20     LDA  $20
 9E2C  48        PHA  
 9E2D  E8        INX  
 9E2E  E8        INX  
 9E2F  60        RTS  
 9E30  E0 77     CPX  #$77
 9E32  30 03     BMI  $9E37
 9E34  4C 27 BB  JMP  $BB27
 9E37  B5 00     LDA  $00, X
 9E39  15 01     ORA  $01, X
 9E3B  F0 04     BEQ  $9E41
 9E3D  A9 00     LDA  #$00
 9E3F  80 02     BRA  $9E43
 9E41  A9 FF     LDA  #$FF
 9E43  95 00     STA  $00, X
 9E45  95 01     STA  $01, X
 9E47  60        RTS  
 9E48  E0 77     CPX  #$77
 9E4A  30 03     BMI  $9E4F
 9E4C  4C 27 BB  JMP  $BB27
 9E4F  A0 00     LDY  #$00
 9E51  B5 01     LDA  $01, X
 9E53  30 05     BMI  $9E5A
 9E55  15 00     ORA  $00, X
 9E57  F0 01     BEQ  $9E5A
 9E59  88        DEY  
 9E5A  98        TYA  
 9E5B  95 00     STA  $00, X
 9E5D  95 01     STA  $01, X
 9E5F  60        RTS  
 9E60  E0 77     CPX  #$77
 9E62  30 03     BMI  $9E67
 9E64  4C 27 BB  JMP  $BB27
 9E67  A0 00     LDY  #$00
 9E69  B5 01     LDA  $01, X
 9E6B  10 01     BPL  $9E6E
 9E6D  88        DEY  
 9E6E  98        TYA  
 9E6F  95 00     STA  $00, X
 9E71  95 01     STA  $01, X
 9E73  60        RTS  
 9E74  E0 77     CPX  #$77
 9E76  30 03     BMI  $9E7B
 9E78  4C 27 BB  JMP  $BB27
 9E7B  A0 00     LDY  #$00
 9E7D  B5 00     LDA  $00, X
 9E7F  15 01     ORA  $01, X
 9E81  F0 01     BEQ  $9E84
 9E83  88        DEY  
 9E84  98        TYA  
 9E85  95 00     STA  $00, X
 9E87  95 01     STA  $01, X
 9E89  60        RTS  
 9E8A  A5 18     LDA  $18
 9E8C  48        PHA  
 9E8D  20 62 8D  JSR  $8D62
 9E90  20 AF 86  JSR  $86AF
 9E93  20 85 92  JSR  $9285
 9E96  20 03 9C  JSR  $9C03
 9E99  20 4C 98  JSR  $984C
 9E9C  A9 39     LDA  #$39
 9E9E  85 22     STA  $22
 9EA0  A9 9F     LDA  #$9F
 9EA2  85 23     STA  $23
 9EA4  A1 02     LDA  ($02, X)
 9EA6  0A        ASL  
 9EA7  90 02     BCC  $9EAB
 9EA9  E6 23     INC  $23
 9EAB  A8        TAY  
 9EAC  B1 22     LDA  ($22), Y
 9EAE  85 24     STA  $24
 9EB0  C8        INY  
 9EB1  B1 22     LDA  ($22), Y
 9EB3  85 25     STA  $25
 9EB5  B2 24     LDA  ($24)
 9EB7  48        PHA  
 9EB8  E6 24     INC  $24
 9EBA  D0 02     BNE  $9EBE
 9EBC  E6 25     INC  $25
 9EBE  20 52 BB  JSR  $BB52
 9EC1  F6 02     INC  $02, X
 9EC3  D0 02     BNE  $9EC7
 9EC5  F6 03     INC  $03, X
 9EC7  20 46 92  JSR  $9246
 9ECA  7A        PLY  
 9ECB  F0 58     BEQ  $9F25
 9ECD  88        DEY  
 9ECE  5A        PHY  
 9ECF  20 4C 98  JSR  $984C
 9ED2  20 4A 8A  JSR  $8A4A
 9ED5  A1 04     LDA  ($04, X)
 9ED7  95 00     STA  $00, X
 9ED9  74 01     STZ  $01, X
 9EDB  F6 04     INC  $04, X
 9EDD  D0 02     BNE  $9EE1
 9EDF  F6 05     INC  $05, X
 9EE1  B5 02     LDA  $02, X
 9EE3  D0 02     BNE  $9EE7
 9EE5  D6 03     DEC  $03, X
 9EE7  D6 02     DEC  $02, X
 9EE9  68        PLA  
 9EEA  D0 14     BNE  $9F00
 9EEC  20 EA 9D  JSR  $9DEA
 9EEF  20 5A 8E  JSR  $8E5A
 9EF2  20 C9 91  JSR  $91C9
 9EF5  20 28 92  JSR  $9228
 9EF8  20 02 92  JSR  $9202
 9EFB  20 D4 9B  JSR  $9BD4
 9EFE  80 25     BRA  $9F25
 9F00  A1 04     LDA  ($04, X)
 9F02  95 01     STA  $01, X
 9F04  20 EA 9D  JSR  $9DEA
 9F07  20 5A 8E  JSR  $8E5A
 9F0A  20 C9 91  JSR  $91C9
 9F0D  20 C9 91  JSR  $91C9
 9F10  20 C9 91  JSR  $91C9
 9F13  20 28 92  JSR  $9228
 9F16  20 02 92  JSR  $9202
 9F19  20 D4 9B  JSR  $9BD4
 9F1C  F6 02     INC  $02, X
 9F1E  D0 02     BNE  $9F22
 9F20  F6 03     INC  $03, X
 9F22  20 46 92  JSR  $9246
 9F25  B5 00     LDA  $00, X
 9F27  15 01     ORA  $01, X
 9F29  F0 05     BEQ  $9F30
 9F2B  30 03     BMI  $9F30
 9F2D  4C 90 9E  JMP  $9E90
 9F30  68        PLA  
 9F31  85 18     STA  $18
 9F33  20 AF 86  JSR  $86AF
 9F36  4C 8F 9A  JMP  $9A8F
 9F39  3C A1 41 A1 39 A1 39 A1 39 A1 4A A1 51 A1 39 A1  |<.A.9.9.9.J.Q.9.|
 9F49  58 A1 5D A1 64 A1 39 A1 6B A1 70 A1 75 A1 7A A1  |X.].d.9.k.p.u.z.|
 9F59  80 A1 85 A1 8E A1 39 A1 96 A1 9D A1 A5 A1 AD A1  |......9.........|
 9F69  B5 A1 BA A1 C1 A1 39 A1 C8 A1 CD A1 39 A1 D4 A1  |......9.....9...|
 9F79  DB A1 E0 A1 39 A1 39 A1 E9 A1 F0 A1 F7 A1 FE A1  |....9.9.........|
 9F89  06 A2 0B A2 12 A2 39 A1 19 A2 1E A2 24 A2 29 A2  |......9.....$.).|
 9F99  2F A2 34 A2 3D A2 39 A1 45 A2 4E A2 56 A2 5E A2  |/.4.=.9.E.N.V.^.|
 9FA9  66 A2 6B A2 72 A2 39 A1 79 A2 80 A2 87 A2 7A A1  |f.k.r.9.y.....z.|
 9FB9  94 A2 99 A2 39 A1 39 A1 39 A1 A2 A2 A9 A2 B0 A2  |....9.9.9.......|
 9FC9  B8 A2 BD A2 C4 A2 39 A1 CB A2 D0 A2 D5 A2 DA A2  |......9.........|
 9FD9  E0 A2 E5 A2 EE A2 39 A1 39 A1 F6 A2 FE A2 06 A3  |......9.9.......|
 9FE9  0E A3 13 A3 1A A3 39 A1 39 A1 39 A1 26 A3 2D A3  |......9.9.9.&.-.|
 9FF9  33 A3 38 A3 39 A1 39 A1 4F A3 48 A3 4F A3 56 A3  |3.8.9.9.O.H.O.V.|
 A009  5E A3 63 A3 6A A3 39 A1 71 A3 78 A3 7D A3 82 A3  |^.c.j.9.q.x.}...|
 A019  88 A3 8D A3 96 A3 39 A1 9E A3 A6 A3 AE A3 B6 A3  |......9.........|
 A029  BE A3 C3 A3 CA A3 39 A1 CF A3 D7 A3 DE A3 E5 A3  |......9.........|
 A039  EB A3 F0 A3 39 A1 39 A1 F9 A3 00 A4 07 A4 39 A1  |....9.9.......9.|
 A049  0E A4 13 A4 1A A4 39 A1 1F A4 24 A4 29 A4 2E A4  |......9...$.)...|
 A059  34 A4 39 A4 42 A4 39 A1 4A A4 52 A4 5A A4 62 A4  |4.9.B.9.J.R.Z.b.|
 A069  6A A4 6F A4 76 A4 39 A1 7B A4 80 A4 87 A4 8E A4  |j.o.v.9.{.......|
 A079  94 A4 9B A4 A4 A4 39 A1 AB A4 B2 A4 B9 A4 C0 A4  |......9.........|
 A089  C8 A4 CD A4 D4 A4 39 A1 D9 A4 DE A4 E3 A4 E8 A4  |......9.........|
 A099  EE A4 F3 A4 FC A4 39 A1 04 A5 0C A5 14 A5 1C A5  |......9.........|
 A0A9  24 A5 29 A5 30 A5 39 A1 35 A5 3C A5 43 A5 4A A5  |$.).0.9.5.<.C.J.|
 A0B9  50 A5 57 A5 39 A1 39 A1 60 A5 67 A5 6E A5 75 A5  |P.W.9.9.`.g.n.u.|
 A0C9  7D A5 82 A5 89 A5 8E A5 93 A5 98 A5 9D A5 A2 A5  |}...............|
 A0D9  A8 A5 AD A5 B6 A5 39 A1 39 A1 BE A5 C6 A5 CE A5  |......9.9.......|
 A0E9  D6 A5 DB A5 E2 A5 E7 A5 39 A1 EC A5 F3 A5 FA A5  |........9.......|
 A0F9  00 A6 07 A6 39 A1 39 A1 10 A6 17 A6 1E A6 25 A6  |....9.9.......%.|
 A109  2D A6 32 A6 39 A6 39 A1 3E A6 43 A6 48 A6 4D A6  |-.2.9.9.>.C.H.M.|
 A119  53 A6 58 A6 61 A6 39 A1 39 A1 69 A6 71 A6 79 A6  |S.X.a.9.9.i.q.y.|
 A129  81 A6 86 A6 8D A6 39 A1 39 A1 92 A6 99 A6 A0 A6  |......9.9.......|
 A139  00 3F 00 00 62 72 6B 00 01 6F 72 61 2E 64 78 69  |.?..brk..ora.dxi|
 A149  00 01 6F 72 64 2E 64 00 01 61 73 6C 2E 64 00 00  |..ord.d..asl.d..|
 A159  70 68 70 00 01 6F 72 61 2E 23 00 00 61 73 6C 2E  |php..ora.#..asl.|
 A169  61 00 02 74 73 62 00 02 6F 72 61 00 02 61 73 6C  |a..tsb..ora..asl|
 A179  00 02 62 62 72 30 00 01 62 70 6C 00 01 6F 72 61  |..bbr0..bpl..ora|
 A189  2E 7A 69 79 00 01 6F 72 61 2E 7A 69 00 01 74 72  |.ziy..ora.zi..tr|
 A199  62 2E 7A 00 01 6F 72 61 2E 7A 78 00 01 61 73 6C  |b.z..ora.zx..asl|
 A1A9  2E 7A 78 00 01 72 6D 62 31 2E 7A 00 00 63 6C 63  |.zx..rmb1.z..clc|
 A1B9  00 02 6F 72 61 2E 79 00 00 69 6E 63 2E 61 00 02  |..ora.y..inc.a..|
 A1C9  74 72 62 00 02 6F 72 61 2E 78 00 02 61 73 6C 2E  |trb..ora.x..asl.|
 A1D9  78 00 02 6A 73 72 00 01 61 6E 64 2E 7A 78 69 00  |x..jsr..and.zxi.|
 A1E9  01 62 69 74 2E 7A 00 01 61 6E 64 2E 7A 00 01 72  |.bit.z..and.z..r|
 A1F9  6F 6C 2E 7A 00 01 72 6D 62 32 2E 7A 00 00 70 6C  |ol.z..rmb2.z..pl|
 A209  70 00 01 61 6E 64 2E 23 00 00 72 6F 6C 2E 61 00  |p..and.#..rol.a.|
 A219  02 62 69 74 00 02 61 6E 64 2E 00 02 72 6F 6C 00  |.bit..and...rol.|
 A229  02 62 62 72 32 00 01 62 6D 69 00 01 61 6E 64 2E  |.bbr2..bmi..and.|
 A239  7A 69 79 00 01 61 6E 64 2E 7A 69 00 01 62 69 74  |ziy..and.zi..bit|
 A249  2E 7A 78 69 00 01 61 6E 64 2E 7A 78 00 01 72 6F  |.zxi..and.zx..ro|
 A259  6C 2E 7A 78 00 01 72 6D 62 33 2E 7A 00 00 73 65  |l.zx..rmb3.z..se|
 A269  63 00 02 61 6E 64 2E 79 00 00 64 65 63 2E 61 00  |c..and.y..dec.a.|
 A279  02 62 69 74 2E 78 00 02 61 6E 64 2E 78 00 02 72  |.bit.x..and.x..r|
 A289  6F 6C 2E 78 00 02 62 62 72 33 00 00 72 74 69 00  |ol.x..bbr3..rti.|
 A299  01 65 6F 72 2E 7A 78 69 00 01 65 6F 72 2E 7A 00  |.eor.zxi..eor.z.|
 A2A9  01 6C 73 72 2E 7A 00 01 72 62 6D 34 2E 7A 00 00  |.lsr.z..rbm4.z..|
 A2B9  70 68 61 00 01 65 6F 72 2E 23 00 00 6C 73 72 2E  |pha..eor.#..lsr.|
 A2C9  61 00 02 6A 6D 70 00 02 65 6F 72 00 02 6C 73 72  |a..jmp..eor..lsr|
 A2D9  00 02 62 62 72 34 00 01 62 76 63 00 01 65 6F 72  |..bbr4..bvc..eor|
 A2E9  2E 7A 69 79 00 01 65 6F 72 2E 7A 69 00 01 65 6F  |.ziy..eor.zi..eo|
 A2F9  72 2E 7A 78 00 01 6C 73 72 2E 7A 78 00 01 72 62  |r.zx..lsr.zx..rb|
 A309  6D 35 2E 7A 00 00 63 6C 69 00 02 65 6F 72 2E 79  |m5.z..cli..eor.y|
 A319  00 00 70 68 79 00 02 65 6F 72 2E 78 00 02 6C 73  |..phy..eor.x..ls|
 A329  72 2E 78 00 02 62 62 72 35 00 00 72 74 73 00 01  |r.x..bbr5..rts..|
 A339  61 64 63 2E 7A 78 69 00 01 73 74 7A 2E 7A 00 01  |adc.zxi..stz.z..|
 A349  61 64 63 2E 7A 00 01 72 6F 72 2E 7A 00 01 72 6D  |adc.z..ror.z..rm|
 A359  62 36 2E 7A 00 00 70 6C 61 00 01 61 64 63 2E 23  |b6.z..pla..adc.#|
 A369  00 00 72 6F 72 2E 61 00 02 6A 6D 70 2E 69 00 02  |..ror.a..jmp.i..|
 A379  61 64 63 00 02 72 6F 72 00 02 62 62 72 36 00 01  |adc..ror..bbr6..|
 A389  62 76 73 00 01 61 64 63 2E 7A 69 79 00 01 61 64  |bvs..adc.ziy..ad|
 A399  63 2E 7A 69 00 01 73 74 7A 2E 7A 78 00 01 61 64  |c.zi..stz.zx..ad|
 A3A9  63 2E 7A 78 00 01 72 6F 72 2E 7A 78 00 01 72 6D  |c.zx..ror.zx..rm|
 A3B9  62 37 2E 7A 00 00 73 65 69 00 02 61 64 63 2E 79  |b7.z..sei..adc.y|
 A3C9  00 00 70 6C 79 00 02 6A 6D 70 2E 78 69 00 02 61  |..ply..jmp.xi..a|
 A3D9  64 63 2E 78 00 02 72 6F 72 2E 78 00 02 62 62 72  |dc.x..ror.x..bbr|
 A3E9  37 00 01 62 72 61 00 01 73 74 61 2E 7A 78 69 00  |7..bra..sta.zxi.|
 A3F9  01 73 74 79 2E 7A 00 01 73 74 61 2E 7A 00 01 73  |.sty.z..sta.z..s|
 A409  74 78 2E 7A 00 00 64 65 79 00 01 62 69 74 2E 23  |tx.z..dey..bit.#|
 A419  00 00 74 78 61 00 02 73 74 79 00 02 73 74 61 00  |..txa..sty..sta.|
 A429  02 73 74 78 00 02 62 62 73 30 00 01 62 63 63 00  |.stx..bbs0..bcc.|
 A439  01 73 74 61 2E 7A 69 79 00 01 73 74 61 2E 7A 69  |.sta.ziy..sta.zi|
 A449  00 01 73 74 79 2E 7A 78 00 01 73 74 79 2E 7A 78  |..sty.zx..sty.zx|
 A459  00 01 73 74 78 2E 7A 79 00 01 73 6D 62 31 2E 7A  |..stx.zy..smb1.z|
 A469  00 00 74 79 61 00 02 73 74 61 2E 79 00 00 74 78  |..tya..sta.y..tx|
 A479  73 00 02 73 74 7A 00 02 73 74 61 2E 78 00 02 73  |s..stz..sta.x..s|
 A489  74 7A 2E 78 00 02 62 62 73 31 00 01 6C 64 79 2E  |tz.x..bbs1..ldy.|
 A499  23 00 01 6C 64 61 2E 7A 78 69 00 01 6C 64 78 2E  |#..lda.zxi..ldx.|
 A4A9  23 00 01 6C 64 79 2E 7A 00 01 6C 64 61 2E 7A 00  |#..ldy.z..lda.z.|
 A4B9  01 6C 64 78 2E 7A 00 01 73 6D 62 32 2E 7A 00 00  |.ldx.z..smb2.z..|
 A4C9  74 61 79 00 01 6C 64 61 2E 23 00 00 74 61 78 00  |tay..lda.#..tax.|
 A4D9  02 6C 64 79 00 02 6C 64 61 00 02 6C 64 78 00 02  |.ldy..lda..ldx..|
 A4E9  62 62 73 32 00 01 62 63 73 00 01 6C 64 61 2E 7A  |bbs2..bcs..lda.z|
 A4F9  69 79 00 01 6C 64 61 2E 7A 69 00 01 6C 64 79 2E  |iy..lda.zi..ldy.|
 A509  7A 78 00 01 6C 64 61 2E 7A 78 00 01 6C 64 78 2E  |zx..lda.zx..ldx.|
 A519  7A 79 00 01 73 6D 62 33 2E 7A 00 00 63 6C 76 00  |zy..smb3.z..clv.|
 A529  02 6C 64 61 2E 79 00 00 74 73 78 00 02 6C 64 79  |.lda.y..tsx..ldy|
 A539  2E 78 00 02 6C 64 61 2E 78 00 02 6C 64 78 2E 79  |.x..lda.x..ldx.y|
 A549  00 02 62 62 73 34 00 01 63 70 79 2E 23 00 01 63  |..bbs4..cpy.#..c|
 A559  6D 70 2E 7A 78 69 00 01 63 70 79 2E 7A 00 01 63  |mp.zxi..cpy.z..c|
 A569  6D 70 2E 7A 00 01 64 65 63 2E 7A 00 01 73 6D 62  |mp.z..dec.z..smb|
 A579  34 2E 7A 00 00 69 6E 79 00 01 63 6D 70 2E 23 00  |4.z..iny..cmp.#.|
 A589  00 64 65 78 00 00 73 74 70 00 02 63 70 79 00 02  |.dex..stp..cpy..|
 A599  63 6D 70 00 02 64 65 63 00 02 62 62 73 34 00 01  |cmp..dec..bbs4..|
 A5A9  62 6E 65 00 01 63 6D 70 2E 7A 69 79 00 01 63 6D  |bne..cmp.ziy..cm|
 A5B9  70 2E 7A 69 00 01 63 6D 70 2E 7A 78 00 01 64 65  |p.zi..cmp.zx..de|
 A5C9  63 2E 7A 78 00 01 73 6D 62 35 2E 7A 00 00 63 6C  |c.zx..smb5.z..cl|
 A5D9  64 00 02 63 6D 70 2E 79 00 00 70 68 78 00 00 77  |d..cmp.y..phx..w|
 A5E9  61 69 00 02 63 6D 70 2E 78 00 02 64 65 63 2E 78  |ai..cmp.x..dec.x|
 A5F9  00 02 62 62 73 35 00 01 63 70 78 2E 23 00 01 73  |..bbs5..cpx.#..s|
 A609  62 63 2E 7A 78 69 00 01 63 70 78 2E 7A 00 01 73  |bc.zxi..cpx.z..s|
 A619  62 63 2E 7A 00 01 69 6E 63 2E 7A 00 01 73 6D 62  |bc.z..inc.z..smb|
 A629  36 2E 7A 00 00 69 6E 78 00 01 73 62 63 2E 23 00  |6.z..inx..sbc.#.|
 A639  00 6E 6F 70 00 02 63 70 78 00 02 73 62 63 00 02  |.nop..cpx..sbc..|
 A649  69 6E 63 00 02 62 62 73 36 00 01 62 65 71 00 01  |inc..bbs6..beq..|
 A659  73 62 63 2E 7A 69 79 00 01 73 62 63 2E 7A 69 00  |sbc.ziy..sbc.zi.|
 A669  01 73 62 63 2E 7A 78 00 01 69 6E 63 2E 7A 78 00  |.sbc.zx..inc.zx.|
 A679  01 73 6D 62 37 2E 7A 00 00 73 65 64 00 02 73 62  |.smb7.z..sed..sb|
 A689  63 2E 79 00 00 70 6C 78 00 02 73 62 63 2E 78 00  |c.y..plx..sbc.x.|
 A699  02 69 6E 63 2E 78 00 02 62 62 73 37 00 20 3A 20  |.inc.x..bbs7. : |
 A6A9  28 20 5B 63 68 61 72 5D 20 29 20 70 61 72 73 65  |( [char] ) parse|
 A6B9  20 32 64 72 6F 70 20 3B 20 69 6D 6D 65 64 69 61  | 2drop ; immedia|
 A6C9  74 65 20 3A 20 2E 28 20 5B 63 68 61 72 5D 20 29  |te : .( [char] )|
 A6D9  20 70 61 72 73 65 20 74 79 70 65 20 3B 20 69 6D  | parse type ; im|
 A6E9  6D 65 64 69 61 74 65 20 3A 20 69 66 20 70 6F 73  |mediate : if pos|
 A6F9  74 70 6F 6E 65 20 30 62 72 61 6E 63 68 20 68 65  |tpone 0branch he|
 A709  72 65 20 30 20 2C 20 3B 20 69 6D 6D 65 64 69 61  |re 0 , ; immedia|
 A719  74 65 20 63 6F 6D 70 69 6C 65 2D 6F 6E 6C 79 20  |te compile-only |
 A729  3A 20 74 68 65 6E 20 68 65 72 65 20 73 77 61 70  |: then here swap|
 A739  20 21 20 3B 20 69 6D 6D 65 64 69 61 74 65 20 63  | ! ; immediate c|
 A749  6F 6D 70 69 6C 65 2D 6F 6E 6C 79 20 3A 20 65 6C  |ompile-only : el|
 A759  73 65 20 70 6F 73 74 70 6F 6E 65 20 62 72 61 6E  |se postpone bran|
 A769  63 68 20 68 65 72 65 20 30 20 2C 20 68 65 72 65  |ch here 0 , here|
 A779  20 72 6F 74 20 21 20 3B 20 69 6D 6D 65 64 69 61  | rot ! ; immedia|
 A789  74 65 20 63 6F 6D 70 69 6C 65 2D 6F 6E 6C 79 20  |te compile-only |
 A799  3A 20 72 65 70 65 61 74 20 70 6F 73 74 70 6F 6E  |: repeat postpon|
 A7A9  65 20 61 67 61 69 6E 20 68 65 72 65 20 73 77 61  |e again here swa|
 A7B9  70 20 21 20 3B 20 69 6D 6D 65 64 69 61 74 65 20  |p ! ; immediate |
 A7C9  63 6F 6D 70 69 6C 65 2D 6F 6E 6C 79 20 3A 20 75  |compile-only : u|
 A7D9  6E 74 69 6C 20 70 6F 73 74 70 6F 6E 65 20 30 62  |ntil postpone 0b|
 A7E9  72 61 6E 63 68 20 2C 20 3B 20 69 6D 6D 65 64 69  |ranch , ; immedi|
 A7F9  61 74 65 20 63 6F 6D 70 69 6C 65 2D 6F 6E 6C 79  |ate compile-only|
 A809  20 3A 20 77 68 69 6C 65 20 70 6F 73 74 70 6F 6E  | : while postpon|
 A819  65 20 30 62 72 61 6E 63 68 20 68 65 72 65 20 30  |e 0branch here 0|
 A829  20 2C 20 73 77 61 70 20 3B 20 69 6D 6D 65 64 69  | , swap ; immedi|
 A839  61 74 65 20 63 6F 6D 70 69 6C 65 2D 6F 6E 6C 79  |ate compile-only|
 A849  20 3A 20 63 61 73 65 20 30 20 3B 20 69 6D 6D 65  | : case 0 ; imme|
 A859  64 69 61 74 65 20 63 6F 6D 70 69 6C 65 2D 6F 6E  |diate compile-on|
 A869  6C 79 20 3A 20 6F 66 20 70 6F 73 74 70 6F 6E 65  |ly : of postpone|
 A879  20 6F 76 65 72 20 70 6F 73 74 70 6F 6E 65 20 3D  | over postpone =|
 A889  20 70 6F 73 74 70 6F 6E 65 20 69 66 20 70 6F 73  | postpone if pos|
 A899  74 70 6F 6E 65 20 64 72 6F 70 20 3B 20 69 6D 6D  |tpone drop ; imm|
 A8A9  65 64 69 61 74 65 20 63 6F 6D 70 69 6C 65 2D 6F  |ediate compile-o|
 A8B9  6E 6C 79 20 3A 20 65 6E 64 6F 66 20 70 6F 73 74  |nly : endof post|
 A8C9  70 6F 6E 65 20 65 6C 73 65 20 3B 20 69 6D 6D 65  |pone else ; imme|
 A8D9  64 69 61 74 65 20 63 6F 6D 70 69 6C 65 2D 6F 6E  |diate compile-on|
 A8E9  6C 79 20 3A 20 65 6E 64 63 61 73 65 20 70 6F 73  |ly : endcase pos|
 A8F9  74 70 6F 6E 65 20 64 72 6F 70 20 62 65 67 69 6E  |tpone drop begin|
 A909  20 3F 64 75 70 20 77 68 69 6C 65 20 70 6F 73 74  | ?dup while post|
 A919  70 6F 6E 65 20 74 68 65 6E 20 72 65 70 65 61 74  |pone then repeat|
 A929  20 3B 20 69 6D 6D 65 64 69 61 74 65 20 63 6F 6D  | ; immediate com|
 A939  70 69 6C 65 2D 6F 6E 6C 79 20 3A 20 64 65 66 65  |pile-only : defe|
 A949  72 21 20 3E 62 6F 64 79 20 21 20 3B 20 3A 20 64  |r! >body ! ; : d|
 A959  65 66 65 72 40 20 3E 62 6F 64 79 20 40 20 3B 20  |efer@ >body @ ; |
 A969  3A 20 69 73 20 73 74 61 74 65 20 40 20 69 66 20  |: is state @ if |
 A979  70 6F 73 74 70 6F 6E 65 20 5B 27 5D 20 70 6F 73  |postpone ['] pos|
 A989  74 70 6F 6E 65 20 64 65 66 65 72 21 20 65 6C 73  |tpone defer! els|
 A999  65 20 27 20 64 65 66 65 72 21 20 74 68 65 6E 20  |e ' defer! then |
 A9A9  3B 20 69 6D 6D 65 64 69 61 74 65 20 3A 20 61 63  |; immediate : ac|
 A9B9  74 69 6F 6E 2D 6F 66 20 73 74 61 74 65 20 40 20  |tion-of state @ |
 A9C9  69 66 20 70 6F 73 74 70 6F 6E 65 20 5B 27 5D 20  |if postpone ['] |
 A9D9  70 6F 73 74 70 6F 6E 65 20 64 65 66 65 72 40 20  |postpone defer@ |
 A9E9  65 6C 73 65 20 27 20 64 65 66 65 72 40 20 74 68  |else ' defer@ th|
 A9F9  65 6E 20 3B 20 69 6D 6D 65 64 69 61 74 65 20 3A  |en ; immediate :|
 AA09  20 75 2E 72 20 3E 72 20 30 20 3C 23 20 23 73 20  | u.r >r 0 <# #s |
 AA19  23 3E 20 72 3E 20 6F 76 65 72 20 2D 20 73 70 61  |#> r> over - spa|
 AA29  63 65 73 20 74 79 70 65 20 3B 20 3A 20 2E 72 20  |ces type ; : .r |
 AA39  3E 72 20 64 75 70 20 61 62 73 20 30 20 3C 23 20  |>r dup abs 0 <# |
 AA49  23 73 20 72 6F 74 20 73 69 67 6E 20 23 3E 20 72  |#s rot sign #> r|
 AA59  3E 20 6F 76 65 72 20 2D 20 73 70 61 63 65 73 20  |> over - spaces |
 AA69  74 79 70 65 20 3B 20 3A 20 75 64 2E 20 3C 23 20  |type ; : ud. <# |
 AA79  23 73 20 23 3E 20 74 79 70 65 20 73 70 61 63 65  |#s #> type space|
 AA89  20 3B 20 3A 20 75 64 2E 72 20 3E 72 20 3C 23 20  | ; : ud.r >r <# |
 AA99  23 73 20 23 3E 20 72 3E 20 6F 76 65 72 20 2D 20  |#s #> r> over - |
 AAA9  73 70 61 63 65 73 20 74 79 70 65 20 3B 20 3A 20  |spaces type ; : |
 AAB9  64 2E 20 74 75 63 6B 20 64 61 62 73 20 3C 23 20  |d. tuck dabs <# |
 AAC9  23 73 20 72 6F 74 20 73 69 67 6E 20 23 3E 20 74  |#s rot sign #> t|
 AAD9  79 70 65 20 73 70 61 63 65 20 3B 20 3A 20 64 2E  |ype space ; : d.|
 AAE9  72 20 3E 72 20 74 75 63 6B 20 64 61 62 73 20 3C  |r >r tuck dabs <|
 AAF9  23 20 23 73 20 72 6F 74 20 73 69 67 6E 20 23 3E  |# #s rot sign #>|
 AB09  20 72 3E 20 6F 76 65 72 20 2D 20 73 70 61 63 65  | r> over - space|
 AB19  73 20 74 79 70 65 20 3B 20 3A 20 32 63 6F 6E 73  |s type ; : 2cons|
 AB29  74 61 6E 74 20 63 72 65 61 74 65 20 73 77 61 70  |tant create swap|
 AB39  20 2C 20 2C 20 64 6F 65 73 3E 20 64 75 70 20 40  | , , does> dup @|
 AB49  20 73 77 61 70 20 63 65 6C 6C 2B 20 40 20 3B 20  | swap cell+ @ ; |
 AB59  3A 20 32 6C 69 74 65 72 61 6C 20 73 77 61 70 20  |: 2literal swap |
 AB69  70 6F 73 74 70 6F 6E 65 20 6C 69 74 65 72 61 6C  |postpone literal|
 AB79  20 70 6F 73 74 70 6F 6E 65 20 6C 69 74 65 72 61  | postpone litera|
 AB89  6C 20 3B 20 69 6D 6D 65 64 69 61 74 65 20 2E 28  |l ; immediate .(|
 AB99  20 54 61 6C 69 20 46 6F 72 74 68 20 32 20 66 6F  | Tali Forth 2 fo|
 ABA9  72 20 74 68 65 20 36 35 63 30 32 29 20 63 72 20  |r the 65c02) cr |
 ABB9  2E 28 20 56 65 72 73 69 6F 6E 20 42 45 54 41 20  |.( Version BETA |
 ABC9  32 32 2E 20 53 65 70 20 32 30 31 38 20 29 20 63  |22. Sep 2018 ) c|
 ABD9  72 20 2E 28 20 43 6F 70 79 72 69 67 68 74 20 32  |r .( Copyright 2|
 ABE9  30 31 34 2D 32 30 31 38 20 53 63 6F 74 20 57 2E  |014-2018 Scot W.|
 ABF9  20 53 74 65 76 65 6E 73 6F 6E 29 20 63 72 20 2E  | Stevenson) cr .|
 AC09  28 20 54 61 6C 69 20 46 6F 72 74 68 20 32 20 63  |( Tali Forth 2 c|
 AC19  6F 6D 65 73 20 77 69 74 68 20 61 62 73 6F 6C 75  |omes with absolu|
 AC29  74 65 6C 79 20 4E 4F 20 57 41 52 52 41 4E 54 59  |tely NO WARRANTY|
 AC39  29 20 63 72 20 2E 28 20 54 79 70 65 20 27 62 79  |) cr .( Type 'by|
 AC49  65 27 20 74 6F 20 65 78 69 74 29 20 63 72 20 20  |e' to exit) cr  |
 AC59  3A 20 73 65 65 20 70 61 72 73 65 2D 6E 61 6D 65  |: see parse-name|
 AC69  20 66 69 6E 64 2D 6E 61 6D 65 20 64 75 70 20 30  | find-name dup 0|
 AC79  3D 20 61 62 6F 72 74 22 20 4E 6F 20 73 75 63 68  |= abort" No such|
 AC89  20 6E 61 6D 65 22 20 62 61 73 65 20 40 20 3E 72  | name" base @ >r|
 AC99  20 68 65 78 20 64 75 70 20 63 72 20 73 70 61 63  | hex dup cr spac|
 ACA9  65 20 2E 22 20 6E 74 3A 20 22 20 75 2E 20 64 75  |e ." nt: " u. du|
 ACB9  70 20 34 20 2B 20 40 20 73 70 61 63 65 20 2E 22  |p 4 + @ space ."|
 ACC9  20 78 74 3A 20 22 20 75 2E 20 64 75 70 20 31 2B  | xt: " u. dup 1+|
 ACD9  20 63 40 20 31 20 61 6E 64 20 69 66 20 73 70 61  | c@ 1 and if spa|
 ACE9  63 65 20 2E 22 20 43 4F 20 22 20 74 68 65 6E 20  |ce ." CO " then |
 ACF9  64 75 70 20 31 2B 20 63 40 20 32 20 61 6E 64 20  |dup 1+ c@ 2 and |
 AD09  69 66 20 73 70 61 63 65 20 2E 22 20 41 4E 20 22  |if space ." AN "|
 AD19  20 74 68 65 6E 20 64 75 70 20 31 2B 20 63 40 20  | then dup 1+ c@ |
 AD29  34 20 61 6E 64 20 69 66 20 73 70 61 63 65 20 2E  |4 and if space .|
 AD39  22 20 49 4D 20 22 20 74 68 65 6E 20 64 75 70 20  |" IM " then dup |
 AD49  31 2B 20 63 40 20 38 20 61 6E 64 20 69 66 20 73  |1+ c@ 8 and if s|
 AD59  70 61 63 65 20 2E 22 20 4E 4E 20 22 20 74 68 65  |pace ." NN " the|
 AD69  6E 20 64 75 70 20 31 2B 20 63 40 20 31 36 20 61  |n dup 1+ c@ 16 a|
 AD79  6E 64 20 69 66 20 73 70 61 63 65 20 2E 22 20 55  |nd if space ." U|
 AD89  46 20 22 20 74 68 65 6E 20 64 75 70 20 31 2B 20  |F " then dup 1+ |
 AD99  63 40 20 33 32 20 61 6E 64 20 69 66 20 73 70 61  |c@ 32 and if spa|
 ADA9  63 65 20 2E 22 20 48 43 20 22 20 74 68 65 6E 20  |ce ." HC " then |
 ADB9  64 75 70 20 63 72 20 73 70 61 63 65 20 2E 22 20  |dup cr space ." |
 ADC9  73 69 7A 65 20 28 64 65 63 69 6D 61 6C 29 3A 20  |size (decimal): |
 ADD9  22 20 64 65 63 69 6D 61 6C 20 77 6F 72 64 73 69  |" decimal wordsi|
 ADE9  7A 65 20 64 75 70 20 2E 20 73 77 61 70 20 6E 61  |ze dup . swap na|
 ADF9  6D 65 3E 69 6E 74 20 73 77 61 70 20 68 65 78 20  |me>int swap hex |
 AE09  63 72 20 73 70 61 63 65 20 32 64 75 70 20 64 75  |cr space 2dup du|
 AE19  6D 70 20 63 72 20 64 69 73 61 73 6D 20 72 3E 20  |mp cr disasm r> |
 AE29  62 61 73 65 20 21 20 3B 20 03 00 00 00 73 83 74  |base ! ; ....s.t|
 AE39  83 62 79 65 04 00 32 AE 00 80 E3 80 63 6F 6C 64  |.bye..2.....cold|
 AE49  04 10 3D AE 2C 9D 75 9D 77 6F 72 64 04 10 49 AE  |..=.,.u.word..I.|
 AE59  36 8C 81 8C 66 69 6E 64 0C 10 55 AE 6A 8A EA 8A  |6...find..U.j...|
 AE69  65 6E 76 69 72 6F 6E 6D 65 6E 74 3F 06 10 61 AE  |environment?..a.|
 AE79  E1 95 83 96 73 65 61 72 63 68 07 10 75 AE C7 84  |....search..u...|
 AE89  2F 85 63 6F 6D 70 61 72 65 06 10 83 AE 4B 88 55  |/.compare....K.U|
 AE99  88 64 69 73 61 73 6D 02 00 92 AE 7D 89 C0 89 2E  |.disasm....}....|
 AEA9  73 04 10 A0 AE CB 89 35 8A 64 75 6D 70 04 00 AA  |s......5.dump...|
 AEB9  AE 1D 83 22 83 62 65 6C 6C 05 00 B6 AE 83 82 83  |...".bell.......|
 AEC9  82 61 6C 69 67 6E 07 00 C2 AE 83 82 83 82 61 6C  |.align........al|
 AED9  69 67 6E 65 64 08 10 CF AE AF 9D D3 9D 77 6F 72  |igned........wor|
 AEE9  64 73 69 7A 65 05 00 DE AE 76 9D AE 9D 77 6F 72  |dsize....v...wor|
 AEF9  64 73 06 04 EE AE 68 8F 95 8F 6D 61 72 6B 65 72  |ds....h...marker|
 AF09  05 10 FB AE E3 82 04 83 61 74 2D 78 79 04 00 09  |........at-xy...|
 AF19  AF A7 92 C4 92 70 61 67 65 02 00 16 AF AF 86 B4  |.....page.......|
 AF29  86 63 72 05 00 22 AF A2 8D AC 8D 69 6E 70 75 74  |.cr..".....input|
 AF39  06 00 2C AF 7A 92 84 92 6F 75 74 70 75 74 04 10  |..,.z...output..|
 AF49  39 AF 05 97 1D 97 73 69 67 6E 04 10 47 AF 69 8D  |9.....sign..G.i.|
 AF59  7E 8D 68 6F 6C 64 02 10 53 AF 02 92 27 92 23 3E  |~.hold..S...'.#>|
 AF69  02 10 5F AF 28 92 3C 92 23 73 01 10 69 AF C9 91  |.._.(.<.#s..i...|
 AF79  01 92 23 02 00 73 AF 5A 8E 67 8E 3C 23 03 00 7C  |..#..s.Z.g.<#..||
 AF89  AF 98 99 A2 99 3E 69 6E 06 10 86 AF 12 9D 2B 9D  |.....>in......+.|
 AF99  77 69 74 68 69 6E 03 00 91 AF 97 92 A6 92 70 61  |within........pa|
 AFA9  64 05 10 9F AF D5 83 13 84 63 6D 6F 76 65 06 10  |d........cmove..|
 AFB9  AA AF 14 84 52 84 63 6D 6F 76 65 3E 04 18 B7 AF  |....R.cmove>....|
 AFC9  57 90 75 90 6D 6F 76 65 01 04 C5 AF 05 83 0D 83  |W.u.move........|
 AFD9  5C 02 10 D1 AF 95 98 9D 98 2A 2F 05 10 DA AF 9E  |\........*/.....|
 AFE9  98 B1 98 2A 2F 6D 6F 64 03 10 E4 AF 4A 90 56 90  |...*/mod....J.V.|
 AFF9  6D 6F 64 04 10 F1 AF 23 97 3A 97 2F 6D 6F 64 01  |mod....#.:./mod.|
 B009  10 FC AF 1E 97 3A 97 2F 06 10 08 B0 03 8D 3D 8D  |.....:./......=.|
 B019  66 6D 2F 6D 6F 64 06 10 11 B0 FF 97 2B 98 73 6D  |fm/mod......+.sm|
 B029  2F 72 65 6D 06 10 1F B0 52 9C 97 9C 75 6D 2F 6D  |/rem....R...um/m|
 B039  6F 64 01 10 2D B0 88 98 94 98 2A 03 10 3B B0 98  |od..-.....*..;..|
 B049  9C E1 9C 75 6D 2A 02 10 44 B0 49 8F 67 8F 6D 2A  |...um*..D.I.g.m*|
 B059  05 10 4F B0 97 86 AE 86 63 6F 75 6E 74 07 00 59  |..O.....count..Y|
 B069  B0 C9 87 CF 87 64 65 63 69 6D 61 6C 03 00 66 B0  |.....decimal..f.|
 B079  62 8D 68 8D 68 65 78 07 10 75 B0 A3 99 46 9A 3E  |b.h.hex..u...F.>|
 B089  6E 75 6D 62 65 72 06 10 80 B0 32 91 C8 91 6E 75  |number....2...nu|
 B099  6D 62 65 72 06 10 8F B0 12 88 4A 88 64 69 67 69  |mber......J.digi|
 B0A9  74 3F 04 00 9D B0 0E 83 18 83 62 61 73 65 08 10  |t?........base..|
 B0B9  AB B0 9A 8B FE 8B 65 76 61 6C 75 61 74 65 05 00  |......evaluate..|
 B0C9  B7 B0 B2 98 BC 98 73 74 61 74 65 05 17 C7 B0 5E  |......state....^|
 B0D9  82 82 82 61 67 61 69 6E 05 07 D4 B0 19 83 1C 83  |...again........|
 B0E9  62 65 67 69 6E 04 00 E1 B0 A1 80 E3 80 71 75 69  |begin........qui|
 B0F9  74 07 0D EE B0 86 94 C2 94 72 65 63 75 72 73 65  |t........recurse|
 B109  05 03 FA B0 50 8E 55 8E 6C 65 61 76 65 06 03 09  |....P.U.leave...|
 B119  B1 E2 9C E8 9C 75 6E 6C 6F 6F 70 04 03 16 B1 17  |.....unloop.....|
 B129  8C 18 8C 65 78 69 74 05 05 24 B1 B9 8E 1F 8F 2B  |...exit..$.....+|
 B139  6C 6F 6F 70 04 05 30 B1 B2 8E 1F 8F 6C 6F 6F 70  |loop..0.....loop|
 B149  01 03 3D B1 17 8E 30 8E 6A 01 03 49 B1 7F 8D 98  |..=...0.j..I....|
 B159  8D 69 03 0D 52 B1 75 88 D5 88 3F 64 6F 02 0D 5B  |.i..R.u...?do..[|
 B169  B1 7B 88 D5 88 64 6F 06 05 66 B1 E3 80 ED 80 61  |.{...do..f.....a|
 B179  62 6F 72 74 22 05 00 70 B1 9F 80 E3 80 61 62 6F  |bort"..p.....abo|
 B189  72 74 08 00 7E B1 47 9C 51 9C 75 66 2D 73 74 72  |rt..~.G.Q.uf-str|
 B199  69 70 08 00 8B B1 B5 90 BF 90 6E 63 2D 6C 69 6D  |ip........nc-lim|
 B1A9  69 74 0D 00 9B B1 C4 82 CC 82 61 6C 77 61 79 73  |it........always|
 B1B9  2D 6E 61 74 69 76 65 0C 00 AB B1 D5 90 DD 90 6E  |-native........n|
 B1C9  65 76 65 72 2D 6E 61 74 69 76 65 0C 00 C0 B1 4C  |ever-native....L|
 B1D9  86 54 86 63 6F 6D 70 69 6C 65 2D 6F 6E 6C 79 09  |.T.compile-only.|
 B1E9  00 D4 B1 99 8D A1 8D 69 6D 6D 65 64 69 61 74 65  |.......immediate|
 B1F9  08 05 E8 B1 02 94 40 94 70 6F 73 74 70 6F 6E 65  |......@.postpone|
 B209  02 04 F9 B1 44 95 CA 95 73 22 02 05 09 B2 72 89  |....D...s"....r.|
 B219  7C 89 2E 22 08 15 13 B2 5F 97 D2 97 73 6C 69 74  ||.."...._...slit|
 B229  65 72 61 6C 07 15 1D B2 81 8E 92 8E 6C 69 74 65  |eral........lite|
 B239  72 61 6C 06 0D 2D B2 57 83 5E 83 62 72 61 6E 63  |ral..-.W.^.branc|
 B249  68 07 0D 3C B2 F1 9D F8 9D 30 62 72 61 6E 63 68  |h..<.....0branch|
 B259  01 04 4A B2 05 95 0B 95 5D 01 05 59 B2 55 8E 59  |..J.....]..Y.U.Y|
 B269  8E 5B 08 10 62 B2 30 85 4B 86 63 6F 6D 70 69 6C  |.[..b.0.K.compil|
 B279  65 2C 07 00 6B B2 8B 84 A8 84 3A 6E 6F 6E 61 6D  |e,..k.....:nonam|
 B289  65 01 05 7B B2 84 96 04 97 3B 01 00 8A B2 53 84  |e..{.....;....S.|
 B299  8A 84 3A 09 00 93 B2 41 98 4B 98 73 6F 75 72 63  |..:....A.K.sourc|
 B2A9  65 2D 69 64 06 00 9C B2 2C 98 40 98 73 6F 75 72  |e-id....,.@.sour|
 B2B9  63 65 05 10 AD B2 27 93 B5 93 70 61 72 73 65 0A  |ce....'...parse.|
 B2C9  00 BB B2 C5 92 B5 93 70 61 72 73 65 2D 6E 61 6D  |.......parse-nam|
 B2D9  65 08 00 C8 B2 3E 8E 48 8E 6C 61 74 65 73 74 6E  |e....>.H.latestn|
 B2E9  74 08 00 DA B2 49 8E 4F 8E 6C 61 74 65 73 74 78  |t....I.O.latestx|
 B2F9  74 05 00 EA B2 D0 87 02 88 64 65 66 65 72 05 10  |t........defer..|
 B309  FA B2 6F 99 97 99 3E 62 6F 64 79 0B 10 07 B3 97  |..o...>body.....|
 B319  90 B4 90 6E 61 6D 65 3E 73 74 72 69 6E 67 08 10  |...name>string..|
 B329  14 B3 AD 8D 02 8E 69 6E 74 3E 6E 61 6D 65 08 10  |......int>name..|
 B339  27 B3 76 90 96 90 6E 61 6D 65 3E 69 6E 74 03 05  |'.v...name>int..|
 B349  37 B3 50 83 56 83 5B 27 5D 01 00 47 B3 EF 98 0E  |7.P.V.[']..G....|
 B359  99 27 09 10 52 B3 82 8C 02 8D 66 69 6E 64 2D 6E  |.'..R.....find-n|
 B369  61 6D 65 04 10 5B B3 53 8B 99 8B 66 69 6C 6C 05  |ame..[.S...fill.|
 B379  00 6C B3 43 8B 99 8B 62 6C 61 6E 6B 05 00 78 B3  |.l.C...blank..x.|
 B389  4D 8B 99 8B 65 72 61 73 65 02 10 85 B3 77 87 9B  |M...erase....w..|
 B399  87 64 2B 02 10 92 B3 52 87 76 87 64 2D 03 10 9C  |.d+....R.v.d-...|
 B3A9  B3 9C 87 A5 87 64 3E 73 03 10 A6 B3 CB 95 E0 95  |.....d>s........|
 B3B9  73 3E 64 02 0C B1 B3 0F 99 6E 99 74 6F 05 10 BC  |s>d......n.to...|
 B3C9  B3 55 86 96 86 76 61 6C 75 65 08 10 C6 B3 55 86  |.U...value....U.|
 B3D9  96 86 63 6F 6E 73 74 61 6E 74 08 00 D3 B3 F9 9C  |..constant......|
 B3E9  11 9D 76 61 72 69 61 62 6C 65 05 05 E3 B3 0E 89  |..variable......|
 B3F9  1C 89 64 6F 65 73 3E 06 00 F3 B3 B5 86 51 87 63  |..does>......Q.c|
 B409  72 65 61 74 65 05 10 00 B4 84 82 C3 82 61 6C 6C  |reate........all|
 B419  6F 74 03 00 0E B4 31 8E 3A 8E 6B 65 79 05 00 1B  |ot....1.:.key...|
 B429  B4 03 88 11 88 64 65 70 74 68 06 00 26 B4 E9 9C  |.....depth..&...|
 B439  F8 9C 75 6E 75 73 65 64 06 18 33 B4 1C 81 5D 82  |..unused..3...].|
 B449  61 63 63 65 70 74 06 00 41 B4 C3 94 04 95 72 65  |accept..A.....re|
 B459  66 69 6C 6C 07 10 4F B4 3B 97 5E 97 2F 73 74 72  |fill..O.;.^./str|
 B469  69 6E 67 09 10 5D B4 0F 90 49 90 2D 74 72 61 69  |ing..]...I.-trai|
 B479  6C 69 6E 67 02 00 6C B4 23 83 2B 83 62 6C 06 10  |ling..l.#.+.bl..|
 B489  7D B4 52 98 87 98 73 70 61 63 65 73 06 10 87 B4  |}.R...spaces....|
 B499  2C 83 48 83 62 6F 75 6E 64 73 02 10 95 B4 75 83  |,.H.bounds....u.|
 B4A9  83 83 63 2C 07 10 A3 B4 56 88 74 88 64 6E 65 67  |..c,....V.t.dneg|
 B4B9  61 74 65 06 10 AD B4 C0 90 D4 90 6E 65 67 61 74  |ate........negat|
 B4C9  65 06 10 BC B4 03 8E 16 8E 69 6E 76 65 72 74 03  |e........invert.|
 B4D9  11 CA B4 A1 9B C4 9B 32 3E 72 03 01 D8 B4 17 9B  |.......2>r......|
 B4E9  33 9B 32 72 3E 03 09 E3 B4 F9 9A 16 9B 32 72 40  |3.2r>........2r@|
 B4F9  09 00 EE B4 C5 9B D3 9B 32 76 61 72 69 61 62 6C  |........2variabl|
 B509  65 02 10 F9 B4 B7 9A DC 9A 32 40 02 10 0A B5 4F  |e........2@....O|
 B519  9B 78 9B 32 21 05 10 14 B5 DD 9A F8 9A 32 6F 76  |.x.2!........2ov|
 B529  65 72 05 10 1E B5 79 9B A0 9B 32 73 77 61 70 05  |er....y...2swap.|
 B539  10 2B B5 8F 9A 9A 9A 32 64 72 6F 70 03 10 38 B5  |.+.....2drop..8.|
 B549  B8 8F D7 8F 6D 61 78 03 10 45 B5 D8 8F F7 8F 6D  |....max..E.....m|
 B559  69 6E 02 10 50 B5 60 9E 73 9E 30 3C 02 10 5B B5  |in..P.`.s.0<..[.|
 B569  48 9E 5F 9E 30 3E 03 10 65 B5 74 9E 89 9E 30 3C  |H._.0>..e.t...0<|
 B579  3E 02 10 6F B5 30 9E 47 9E 30 3D 01 10 7A B5 3E  |>..o.0.G.0=..z.>|
 B589  8D 56 8D 3E 02 10 84 B5 13 9C 2C 9C 75 3E 02 10  |.V.>......,.u>..|
 B599  8D B5 2D 9C 46 9C 75 3C 01 10 97 B5 68 8E 80 8E  |..-.F.u<....h...|
 B5A9  3C 02 10 A1 B5 F0 90 11 91 3C 3E 01 10 AA B5 23  |<........<>....#|
 B5B9  8B 42 8B 3D 02 10 B4 B5 34 9B 42 9B 32 2F 02 10  |.B.=....4.B.2/..|
 B5C9  BD B5 43 9B 4E 9B 32 2A 02 10 C7 B5 56 92 63 92  |..C.N.2*....V.c.|
 B5D9  31 2B 02 10 D1 B5 46 92 55 92 31 2D 04 00 DB B5  |1+....F.U.1-....|
 B5E9  57 8D 61 8D 68 65 72 65 05 10 E5 B5 A2 83 B5 83  |W.a.here........|
 B5F9  63 65 6C 6C 2B 05 00 F1 B5 43 9B 4E 9B 63 65 6C  |cell+....C.N.cel|
 B609  6C 73 05 12 FE B5 CD 83 D4 83 63 68 61 72 73 05  |ls........chars.|
 B619  00 0B B6 56 92 63 92 63 68 61 72 2B 06 05 18 B6  |...V.c.char+....|
 B629  49 83 4F 83 5B 63 68 61 72 5D 04 00 25 B6 B6 83  |I.O.[char]..%...|
 B639  CC 83 63 68 61 72 04 00 33 B6 B6 93 C6 93 70 69  |..char..3.....pi|
 B649  63 6B 06 10 3F B6 31 8F 48 8F 6C 73 68 69 66 74  |ck..?.1.H.lshift|
 B659  06 10 4B B6 2C 95 43 95 72 73 68 69 66 74 03 10  |..K.,.C.rshift..|
 B669  59 B6 D4 9D E9 9D 78 6F 72 02 10 67 B6 64 92 79  |Y.....xor..g.d.y|
 B679  92 6F 72 03 10 72 B6 CD 82 E2 82 61 6E 64 04 10  |.or..r.....and..|
 B689  7C B6 A6 87 C8 87 64 61 62 73 03 10 87 B6 03 81  ||.....dabs......|
 B699  1B 81 61 62 73 01 10 93 B6 F8 8F 0E 90 2D 01 10  |..abs........-..|
 B6A9  9E B6 C7 93 DD 93 2B 04 10 A7 B6 48 94 5F 94 3F  |......+....H._.?|
 B6B9  64 75 70 04 10 B0 B6 9B 9A B6 9A 32 64 75 70 01  |dup........2dup.|
 B6C9  00 BC B6 86 9A 8E 9A 32 01 00 C8 B6 3D 92 45 92  |.......2....=.E.|
 B6D9  31 01 00 D1 B6 EA 9D F0 9D 30 05 00 DA B6 4C 98  |1........0....L.|
 B6E9  51 98 73 70 61 63 65 04 00 E3 B6 5F 9A 67 9A 74  |Q.space...._.g.t|
 B6F9  72 75 65 05 00 F0 B6 18 8C 1E 8C 66 61 6C 73 65  |rue........false|
 B709  01 00 FC B6 41 94 47 94 3F 02 10 09 B7 03 9C 12  |....A.G.?.......|
 B719  9C 75 2E 01 10 12 B7 4C 89 71 89 2E 04 10 1C B7  |.u.....L.q......|
 B729  D4 9B 02 9C 74 79 70 65 04 18 25 B7 5C 8A 6A 8A  |....type..%.\.j.|
 B739  65 6D 69 74 07 10 31 B7 FF 8B 09 8C 65 78 65 63  |emit..1.....exec|
 B749  75 74 65 02 10 3D B7 DE 93 01 94 2B 21 02 10 4C  |ute..=.....+!..L|
 B759  B7 92 83 A1 83 63 21 02 10 56 B7 84 83 91 83 63  |.....c!..V.....c|
 B769  40 01 10 60 B7 A9 84 C6 84 2C 04 10 6A B7 68 9A  |@..`.....,..j.h.|
 B779  85 9A 74 75 63 6B 04 10 73 B7 12 91 31 91 2D 72  |..tuck..s...1.-r|
 B789  6F 74 03 10 7F B7 0C 95 2B 95 72 6F 74 03 10 8B  |ot......+.rot...|
 B799  B7 DE 90 EF 90 6E 69 70 02 01 96 B7 60 94 74 94  |.....nip....`.t.|
 B7A9  72 40 02 01 A1 B7 75 94 85 94 72 3E 02 11 AB B7  |r@....u...r>....|
 B7B9  47 9A 5E 9A 3E 72 04 10 B5 B7 85 92 96 92 6F 76  |G.^.>r........ov|
 B7C9  65 72 01 10 BF B7 1F 8C 35 8C 40 01 10 CB B7 BD  |er......5.@.....|
 B7D9  98 D6 98 21 04 10 D4 B7 D7 98 EE 98 73 77 61 70  |...!........swap|
 B7E9  03 10 DD B7 4A 8A 5B 8A 64 75 70 04 10 E9 B7 C1  |....J.[.dup.....|
 B7F9  89 CA 89 64 72 6F 70 0C B8 10 B8 1A B8 00 00 25  |...drop........%|
 B809  B8 49 B8 20 6F 6B 00 20 63 6F 6D 70 69 6C 65 64  |.I. ok. compiled|
 B819  00 72 65 64 65 66 69 6E 65 64 20 00 30 31 32 33  |.redefined .0123|
 B829  34 35 36 37 38 39 61 62 63 64 65 66 67 68 69 6A  |456789abcdefghij|
 B839  6B 6C 6D 6E 6F 70 71 72 73 74 75 76 77 78 79 7A  |klmnopqrstuvwxyz|
 B849  30 31 32 33 34 35 36 37 38 39 41 42 43 44 45 46  |0123456789ABCDEF|
 B859  47 48 49 4A 4B 4C 4D 4E 4F 50 51 52 53 54 55 56  |GHIJKLMNOPQRSTUV|
 B869  57 58 59 5A 81 B8 A2 B8 C2 B8 E3 B8 00 B9 11 B9  |WXYZ............|
 B879  21 B9 4F B9 67 B9 76 B9 41 4C 4C 4F 54 20 75 73  |!.O.g.v.ALLOT us|
 B889  69 6E 67 20 61 6C 6C 20 61 76 61 69 6C 61 62 6C  |ing all availabl|
 B899  65 20 6D 65 6D 6F 72 79 00 49 6C 6C 65 67 61 6C  |e memory.Illegal|
 B8A9  20 53 4F 55 52 43 45 2D 49 44 20 64 75 72 69 6E  | SOURCE-ID durin|
 B8B9  67 20 52 45 46 49 4C 4C 00 49 6E 74 65 72 70 72  |g REFILL.Interpr|
 B8C9  65 74 69 6E 67 20 61 20 63 6F 6D 70 69 6C 65 2D  |eting a compile-|
 B8D9  6F 6E 6C 79 20 77 6F 72 64 00 44 45 46 45 52 65  |only word.DEFERe|
 B8E9  64 20 77 6F 72 64 20 6E 6F 74 20 64 65 66 69 6E  |d word not defin|
 B8F9  65 64 20 79 65 74 00 44 69 76 69 73 69 6F 6E 20  |ed yet.Division |
 B909  62 79 20 7A 65 72 6F 00 50 61 72 73 69 6E 67 20  |by zero.Parsing |
 B919  66 61 69 6C 75 72 65 00 51 55 49 54 20 63 6F 75  |failure.QUIT cou|
 B929  6C 64 20 6E 6F 74 20 67 65 74 20 69 6E 70 75 74  |ld not get input|
 B939  20 28 52 45 46 49 4C 4C 20 72 65 74 75 72 6E 65  | (REFILL returne|
 B949  64 20 2D 31 29 00 41 6C 72 65 61 64 79 20 69 6E  |d -1).Already in|
 B959  20 63 6F 6D 70 69 6C 65 20 6D 6F 64 65 00 55 6E  | compile mode.Un|
 B969  64 65 66 69 6E 65 64 20 77 6F 72 64 00 53 74 61  |defined word.Sta|
 B979  63 6B 20 75 6E 64 65 72 66 6C 6F 77 00 0F 2F 43  |ck underflow../C|
 B989  4F 55 4E 54 45 44 2D 53 54 52 49 4E 47 05 2F 48  |OUNTED-STRING./H|
 B999  4F 4C 44 04 2F 50 41 44 11 41 44 44 52 45 53 53  |OLD./PAD.ADDRESS|
 B9A9  2D 55 4E 49 54 2D 42 49 54 53 07 46 4C 4F 4F 52  |-UNIT-BITS.FLOOR|
 B9B9  45 44 08 4D 41 58 2D 43 48 41 52 05 4D 41 58 2D  |ED.MAX-CHAR.MAX-|
 B9C9  4E 05 4D 41 58 2D 55 12 52 45 54 55 52 4E 2D 53  |N.MAX-U.RETURN-S|
 B9D9  54 41 43 4B 2D 43 45 4C 4C 53 0B 53 54 41 43 4B  |TACK-CELLS.STACK|
 B9E9  2D 43 45 4C 4C 53 05 4D 41 58 2D 44 06 4D 41 58  |-CELLS.MAX-D.MAX|
 B9F9  2D 55 44                                         |-UD             |
 B9FC  48        PHA  
 B9FD  A9 20     LDA  #$20
 B9FF  80 03     BRA  $BA04
 BA01  48        PHA  
 BA02  A9 4C     LDA  #$4C
 BA04  20 0C BA  JSR  $BA0C
 BA07  68        PLA  
 BA08  20 0C BA  JSR  $BA0C
 BA0B  98        TYA  
 BA0C  92 00     STA  ($00)
 BA0E  E6 00     INC  $00
 BA10  D0 02     BNE  $BA14
 BA12  E6 01     INC  $01
 BA14  60        RTS  
 BA15  CA        DEX  
 BA16  CA        DEX  
 BA17  68        PLA  
 BA18  85 20     STA  $20
 BA1A  68        PLA  
 BA1B  85 21     STA  $21
 BA1D  A0 01     LDY  #$01
 BA1F  B1 20     LDA  ($20), Y
 BA21  95 00     STA  $00, X
 BA23  C8        INY  
 BA24  B1 20     LDA  ($20), Y
 BA26  95 01     STA  $01, X
 BA28  60        RTS  
 BA29  68        PLA  
 BA2A  85 20     STA  $20
 BA2C  68        PLA  
 BA2D  85 21     STA  $21
 BA2F  A0 01     LDY  #$01
 BA31  B1 20     LDA  ($20), Y
 BA33  85 22     STA  $22
 BA35  C8        INY  
 BA36  B1 20     LDA  ($20), Y
 BA38  85 23     STA  $23
 BA3A  6C 22 00  JMP  ($0022)
 BA3D  A9 03     LDA  #$03
 BA3F  4C 29 BB  JMP  $BB29
 BA42  7A        PLY  
 BA43  68        PLA  
 BA44  C8        INY  
 BA45  D0 01     BNE  $BA48
 BA47  1A        INC  
 BA48  84 22     STY  $22
 BA4A  85 23     STA  $23
 BA4C  CA        DEX  
 BA4D  CA        DEX  
 BA4E  7A        PLY  
 BA4F  68        PLA  
 BA50  C8        INY  
 BA51  18        CLC  
 BA52  D0 01     BNE  $BA55
 BA54  1A        INC  
 BA55  94 00     STY  $00, X
 BA57  95 01     STA  $01, X
 BA59  6C 22 00  JMP  ($0022)
 BA5C  7A        PLY  
 BA5D  68        PLA  
 BA5E  C8        INY  
 BA5F  D0 01     BNE  $BA62
 BA61  1A        INC  
 BA62  CA        DEX  
 BA63  CA        DEX  
 BA64  95 01     STA  $01, X
 BA66  98        TYA  
 BA67  95 00     STA  $00, X
 BA69  60        RTS  
 BA6A  48        PHA  
 BA6B  4A        LSR  
 BA6C  4A        LSR  
 BA6D  4A        LSR  
 BA6E  4A        LSR  
 BA6F  20 73 BA  JSR  $BA73
 BA72  68        PLA  
 BA73  29 0F     AND  #$0F
 BA75  09 30     ORA  #$30
 BA77  C9 3A     CMP  #$3A
 BA79  90 02     BCC  $BA7D
 BA7B  69 06     ADC  #$06
 BA7D  4C 67 8A  JMP  $8A67
 BA80  60        RTS  
 BA81  B5 00     LDA  $00, X
 BA83  D5 02     CMP  $02, X
 BA85  F0 0A     BEQ  $BA91
 BA87  B5 01     LDA  $01, X
 BA89  F5 03     SBC  $03, X
 BA8B  09 01     ORA  #$01
 BA8D  70 08     BVS  $BA97
 BA8F  80 08     BRA  $BA99
 BA91  B5 01     LDA  $01, X
 BA93  F5 03     SBC  $03, X
 BA95  50 04     BVC  $BA9B
 BA97  49 80     EOR  #$80
 BA99  09 01     ORA  #$01
 BA9B  60        RTS  
 BA9C  20 C5 92  JSR  $92C5
 BA9F  B5 00     LDA  $00, X
 BAA1  15 01     ORA  $01, X
 BAA3  F0 70     BEQ  $BB15
 BAA5  20 9B 9A  JSR  $9A9B
 BAA8  20 82 8C  JSR  $8C82
 BAAB  B5 00     LDA  $00, X
 BAAD  15 01     ORA  $01, X
 BAAF  D0 28     BNE  $BAD9
 BAB1  E8        INX  
 BAB2  E8        INX  
 BAB3  20 32 91  JSR  $9132
 BAB6  A5 16     LDA  $16
 BAB8  F0 E2     BEQ  $BA9C
 BABA  A9 20     LDA  #$20
 BABC  24 34     BIT  $34
 BABE  F0 0D     BEQ  $BACD
 BAC0  20 D7 98  JSR  $98D7
 BAC3  A0 8E     LDY  #$8E
 BAC5  A9 93     LDA  #$93
 BAC7  20 FC B9  JSR  $B9FC
 BACA  20 A9 84  JSR  $84A9
 BACD  A0 8E     LDY  #$8E
 BACF  A9 93     LDA  #$93
 BAD1  20 FC B9  JSR  $B9FC
 BAD4  20 A9 84  JSR  $84A9
 BAD7  80 C3     BRA  $BA9C
 BAD9  B5 00     LDA  $00, X
 BADB  95 04     STA  $04, X
 BADD  B5 01     LDA  $01, X
 BADF  95 05     STA  $05, X
 BAE1  E8        INX  
 BAE2  E8        INX  
 BAE3  E8        INX  
 BAE4  E8        INX  
 BAE5  B5 00     LDA  $00, X
 BAE7  85 1E     STA  $1E
 BAE9  B5 01     LDA  $01, X
 BAEB  85 1F     STA  $1F
 BAED  20 76 90  JSR  $9076
 BAF0  A5 16     LDA  $16
 BAF2  D0 13     BNE  $BB07
 BAF4  A0 01     LDY  #$01
 BAF6  B1 1E     LDA  ($1E), Y
 BAF8  29 01     AND  #$01
 BAFA  F0 05     BEQ  $BB01
 BAFC  A9 02     LDA  #$02
 BAFE  4C 29 BB  JMP  $BB29
 BB01  20 FF 8B  JSR  $8BFF
 BB04  4C 9C BA  JMP  $BA9C
 BB07  A0 01     LDY  #$01
 BB09  B1 1E     LDA  ($1E), Y
 BB0B  29 04     AND  #$04
 BB0D  D0 F2     BNE  $BB01
 BB0F  20 30 85  JSR  $8530
 BB12  4C 9C BA  JMP  $BA9C
 BB15  E8        INX  
 BB16  E8        INX  
 BB17  E8        INX  
 BB18  E8        INX  
 BB19  60        RTS  
 BB1A  C9 20     CMP  #$20
 BB1C  90 08     BCC  $BB26
 BB1E  C9 7F     CMP  #$7F
 BB20  B0 03     BCS  $BB25
 BB22  38        SEC  
 BB23  80 01     BRA  $BB26
 BB25  18        CLC  
 BB26  60        RTS  
 BB27  A9 09     LDA  #$09
 BB29  0A        ASL  
 BB2A  A8        TAY  
 BB2B  B9 6D B8  LDA  $B86D, Y
 BB2E  85 24     STA  $24
 BB30  C8        INY  
 BB31  B9 6D B8  LDA  $B86D, Y
 BB34  85 25     STA  $25
 BB36  20 49 BB  JSR  $BB49
 BB39  4C 9F 80  JMP  $809F
 BB3C  0A        ASL  
 BB3D  A8        TAY  
 BB3E  B9 00 B8  LDA  $B800, Y
 BB41  85 24     STA  $24
 BB43  C8        INY  
 BB44  B9 00 B8  LDA  $B800, Y
 BB47  85 25     STA  $25
 BB49  20 52 BB  JSR  $BB52
 BB4C  A9 0A     LDA  #$0A
 BB4E  20 67 8A  JSR  $8A67
 BB51  60        RTS  
 BB52  A0 00     LDY  #$00
 BB54  B1 24     LDA  ($24), Y
 BB56  F0 06     BEQ  $BB5E
 BB58  20 67 8A  JSR  $8A67
 BB5B  C8        INY  
 BB5C  80 F6     BRA  $BB54
 BB5E  60        RTS  
 BB5F  CA        DEX  
 BB60  CA        DEX  
 BB61  74 00     STZ  $00, X
 BB63  74 01     STZ  $01, X
 BB65  20 5A 8E  JSR  $8E5A
 BB68  20 28 92  JSR  $9228
 BB6B  20 02 92  JSR  $9202
 BB6E  20 D4 9B  JSR  $9BD4
 BB71  60        RTS  
 BB72  00 00 00 00 00 00 00 00 00 00 00 00 00 00 00 00  |................|
 BB82  00 00 00 00 00 00 00 00 00 00 00 00 00 00 00 00  |................|
 BB92  00 00 00 00 00 00 00 00 00 00 00 00 00 00 00 00  |................|
 BBA2  00 00 00 00 00 00 00 00 00 00 00 00 00 00 00 00  |................|
 BBB2  00 00 00 00 00 00 00 00 00 00 00 00 00 00 00 00  |................|
 BBC2  00 00 00 00 00 00 00 00 00 00 00 00 00 00 00 00  |................|
 BBD2  00 00 00 00 00 00 00 00 00 00 00 00 00 00 00 00  |................|
 BBE2  00 00 00 00 00 00 00 00 00 00 00 00 00 00 00 00  |................|
 BBF2  00 00 00 00 00 00 00 00 00 00 00 00 00 00 00 00  |................|
 BC02  00 00 00 00 00 00 00 00 00 00 00 00 00 00 00 00  |................|
 BC12  00 00 00 00 00 00 00 00 00 00 00 00 00 00 00 00  |................|
 BC22  00 00 00 00 00 00 00 00 00 00 00 00 00 00 00 00  |................|
 BC32  00 00 00 00 00 00 00 00 00 00 00 00 00 00 00 00  |................|
 BC42  00 00 00 00 00 00 00 00 00 00 00 00 00 00 00 00  |................|
 BC52  00 00 00 00 00 00 00 00 00 00 00 00 00 00 00 00  |................|
 BC62  00 00 00 00 00 00 00 00 00 00 00 00 00 00 00 00  |................|
 BC72  00 00 00 00 00 00 00 00 00 00 00 00 00 00 00 00  |................|
 BC82  00 00 00 00 00 00 00 00 00 00 00 00 00 00 00 00  |................|
 BC92  00 00 00 00 00 00 00 00 00 00 00 00 00 00 00 00  |................|
 BCA2  00 00 00 00 00 00 00 00 00 00 00 00 00 00 00 00  |................|
 BCB2  00 00 00 00 00 00 00 00 00 00 00 00 00 00 00 00  |................|
 BCC2  00 00 00 00 00 00 00 00 00 00 00 00 00 00 00 00  |................|
 BCD2  00 00 00 00 00 00 00 00 00 00 00 00 00 00 00 00  |................|
 BCE2  00 00 00 00 00 00 00 00 00 00 00 00 00 00 00 00  |................|
 BCF2  00 00 00 00 00 00 00 00 00 00 00 00 00 00 00 00  |................|
 BD02  00 00 00 00 00 00 00 00 00 00 00 00 00 00 00 00  |................|
 BD12  00 00 00 00 00 00 00 00 00 00 00 00 00 00 00 00  |................|
 BD22  00 00 00 00 00 00 00 00 00 00 00 00 00 00 00 00  |................|
 BD32  00 00 00 00 00 00 00 00 00 00 00 00 00 00 00 00  |................|
 BD42  00 00 00 00 00 00 00 00 00 00 00 00 00 00 00 00  |................|
 BD52  00 00 00 00 00 00 00 00 00 00 00 00 00 00 00 00  |................|
 BD62  00 00 00 00 00 00 00 00 00 00 00 00 00 00 00 00  |................|
 BD72  00 00 00 00 00 00 00 00 00 00 00 00 00 00 00 00  |................|
 BD82  00 00 00 00 00 00 00 00 00 00 00 00 00 00 00 00  |................|
 BD92  00 00 00 00 00 00 00 00 00 00 00 00 00 00 00 00  |................|
 BDA2  00 00 00 00 00 00 00 00 00 00 00 00 00 00 00 00  |................|
 BDB2  00 00 00 00 00 00 00 00 00 00 00 00 00 00 00 00  |................|
 BDC2  00 00 00 00 00 00 00 00 00 00 00 00 00 00 00 00  |................|
 BDD2  00 00 00 00 00 00 00 00 00 00 00 00 00 00 00 00  |................|
 BDE2  00 00 00 00 00 00 00 00 00 00 00 00 00 00 00 00  |................|
 BDF2  00 00 00 00 00 00 00 00 00 00 00 00 00 00 00 00  |................|
 BE02  00 00 00 00 00 00 00 00 00 00 00 00 00 00 00 00  |................|
 BE12  00 00 00 00 00 00 00 00 00 00 00 00 00 00 00 00  |................|
 BE22  00 00 00 00 00 00 00 00 00 00 00 00 00 00 00 00  |................|
 BE32  00 00 00 00 00 00 00 00 00 00 00 00 00 00 00 00  |................|
 BE42  00 00 00 00 00 00 00 00 00 00 00 00 00 00 00 00  |................|
 BE52  00 00 00 00 00 00 00 00 00 00 00 00 00 00 00 00  |................|
 BE62  00 00 00 00 00 00 00 00 00 00 00 00 00 00 00 00  |................|
 BE72  00 00 00 00 00 00 00 00 00 00 00 00 00 00 00 00  |................|
 BE82  00 00 00 00 00 00 00 00 00 00 00 00 00 00 00 00  |................|
 BE92  00 00 00 00 00 00 00 00 00 00 00 00 00 00 00 00  |................|
 BEA2  00 00 00 00 00 00 00 00 00 00 00 00 00 00 00 00  |................|
 BEB2  00 00 00 00 00 00 00 00 00 00 00 00 00 00 00 00  |................|
 BEC2  00 00 00 00 00 00 00 00 00 00 00 00 00 00 00 00  |................|
 BED2  00 00 00 00 00 00 00 00 00 00 00 00 00 00 00 00  |................|
 BEE2  00 00 00 00 00 00 00 00 00 00 00 00 00 00 00 00  |................|
 BEF2  00 00 00 00 00 00 00 00 00 00 00 00 00 00 00 00  |................|
 BF02  00 00 00 00 00 00 00 00 00 00 00 00 00 00 00 00  |................|
 BF12  00 00 00 00 00 00 00 00 00 00 00 00 00 00 00 00  |................|
 BF22  00 00 00 00 00 00 00 00 00 00 00 00 00 00 00 00  |................|
 BF32  00 00 00 00 00 00 00 00 00 00 00 00 00 00 00 00  |................|
 BF42  00 00 00 00 00 00 00 00 00 00 00 00 00 00 00 00  |................|
 BF52  00 00 00 00 00 00 00 00 00 00 00 00 00 00 00 00  |................|
 BF62  00 00 00 00 00 00 00 00 00 00 00 00 00 00 00 00  |................|
 BF72  00 00 00 00 00 00 00 00 00 00 00 00 00 00 00 00  |................|
 BF82  00 00 00 00 00 00 00 00 00 00 00 00 00 00 00 00  |................|
 BF92  00 00 00 00 00 00 00 00 00 00 00 00 00 00 00 00  |................|
 BFA2  00 00 00 00 00 00 00 00 00 00 00 00 00 00 00 00  |................|
 BFB2  00 00 00 00 00 00 00 00 00 00 00 00 00 00 00 00  |................|
 BFC2  00 00 00 00 00 00 00 00 00 00 00 00 00 00 00 00  |................|
 BFD2  00 00 00 00 00 00 00 00 00 00 00 00 00 00 00 00  |................|
 BFE2  00 00 00 00 00 00 00 00 00 00 00 00 00 00 00 00  |................|
 BFF2  00 00 00 00 00 00 00 00 00 00 00 00 00 00 00 00  |................|
 C002  00 00 00 00 00 00 00 00 00 00 00 00 00 00 00 00  |................|
 C012  00 00 00 00 00 00 00 00 00 00 00 00 00 00 00 00  |................|
 C022  00 00 00 00 00 00 00 00 00 00 00 00 00 00 00 00  |................|
 C032  00 00 00 00 00 00 00 00 00 00 00 00 00 00 00 00  |................|
 C042  00 00 00 00 00 00 00 00 00 00 00 00 00 00 00 00  |................|
 C052  00 00 00 00 00 00 00 00 00 00 00 00 00 00 00 00  |................|
 C062  00 00 00 00 00 00 00 00 00 00 00 00 00 00 00 00  |................|
 C072  00 00 00 00 00 00 00 00 00 00 00 00 00 00 00 00  |................|
 C082  00 00 00 00 00 00 00 00 00 00 00 00 00 00 00 00  |................|
 C092  00 00 00 00 00 00 00 00 00 00 00 00 00 00 00 00  |................|
 C0A2  00 00 00 00 00 00 00 00 00 00 00 00 00 00 00 00  |................|
 C0B2  00 00 00 00 00 00 00 00 00 00 00 00 00 00 00 00  |................|
 C0C2  00 00 00 00 00 00 00 00 00 00 00 00 00 00 00 00  |................|
 C0D2  00 00 00 00 00 00 00 00 00 00 00 00 00 00 00 00  |................|
 C0E2  00 00 00 00 00 00 00 00 00 00 00 00 00 00 00 00  |................|
 C0F2  00 00 00 00 00 00 00 00 00 00 00 00 00 00 00 00  |................|
 C102  00 00 00 00 00 00 00 00 00 00 00 00 00 00 00 00  |................|
 C112  00 00 00 00 00 00 00 00 00 00 00 00 00 00 00 00  |................|
 C122  00 00 00 00 00 00 00 00 00 00 00 00 00 00 00 00  |................|
 C132  00 00 00 00 00 00 00 00 00 00 00 00 00 00 00 00  |................|
 C142  00 00 00 00 00 00 00 00 00 00 00 00 00 00 00 00  |................|
 C152  00 00 00 00 00 00 00 00 00 00 00 00 00 00 00 00  |................|
 C162  00 00 00 00 00 00 00 00 00 00 00 00 00 00 00 00  |................|
 C172  00 00 00 00 00 00 00 00 00 00 00 00 00 00 00 00  |................|
 C182  00 00 00 00 00 00 00 00 00 00 00 00 00 00 00 00  |................|
 C192  00 00 00 00 00 00 00 00 00 00 00 00 00 00 00 00  |................|
 C1A2  00 00 00 00 00 00 00 00 00 00 00 00 00 00 00 00  |................|
 C1B2  00 00 00 00 00 00 00 00 00 00 00 00 00 00 00 00  |................|
 C1C2  00 00 00 00 00 00 00 00 00 00 00 00 00 00 00 00  |................|
 C1D2  00 00 00 00 00 00 00 00 00 00 00 00 00 00 00 00  |................|
 C1E2  00 00 00 00 00 00 00 00 00 00 00 00 00 00 00 00  |................|
 C1F2  00 00 00 00 00 00 00 00 00 00 00 00 00 00 00 00  |................|
 C202  00 00 00 00 00 00 00 00 00 00 00 00 00 00 00 00  |................|
 C212  00 00 00 00 00 00 00 00 00 00 00 00 00 00 00 00  |................|
 C222  00 00 00 00 00 00 00 00 00 00 00 00 00 00 00 00  |................|
 C232  00 00 00 00 00 00 00 00 00 00 00 00 00 00 00 00  |................|
 C242  00 00 00 00 00 00 00 00 00 00 00 00 00 00 00 00  |................|
 C252  00 00 00 00 00 00 00 00 00 00 00 00 00 00 00 00  |................|
 C262  00 00 00 00 00 00 00 00 00 00 00 00 00 00 00 00  |................|
 C272  00 00 00 00 00 00 00 00 00 00 00 00 00 00 00 00  |................|
 C282  00 00 00 00 00 00 00 00 00 00 00 00 00 00 00 00  |................|
 C292  00 00 00 00 00 00 00 00 00 00 00 00 00 00 00 00  |................|
 C2A2  00 00 00 00 00 00 00 00 00 00 00 00 00 00 00 00  |................|
 C2B2  00 00 00 00 00 00 00 00 00 00 00 00 00 00 00 00  |................|
 C2C2  00 00 00 00 00 00 00 00 00 00 00 00 00 00 00 00  |................|
 C2D2  00 00 00 00 00 00 00 00 00 00 00 00 00 00 00 00  |................|
 C2E2  00 00 00 00 00 00 00 00 00 00 00 00 00 00 00 00  |................|
 C2F2  00 00 00 00 00 00 00 00 00 00 00 00 00 00 00 00  |................|
 C302  00 00 00 00 00 00 00 00 00 00 00 00 00 00 00 00  |................|
 C312  00 00 00 00 00 00 00 00 00 00 00 00 00 00 00 00  |................|
 C322  00 00 00 00 00 00 00 00 00 00 00 00 00 00 00 00  |................|
 C332  00 00 00 00 00 00 00 00 00 00 00 00 00 00 00 00  |................|
 C342  00 00 00 00 00 00 00 00 00 00 00 00 00 00 00 00  |................|
 C352  00 00 00 00 00 00 00 00 00 00 00 00 00 00 00 00  |................|
 C362  00 00 00 00 00 00 00 00 00 00 00 00 00 00 00 00  |................|
 C372  00 00 00 00 00 00 00 00 00 00 00 00 00 00 00 00  |................|
 C382  00 00 00 00 00 00 00 00 00 00 00 00 00 00 00 00  |................|
 C392  00 00 00 00 00 00 00 00 00 00 00 00 00 00 00 00  |................|
 C3A2  00 00 00 00 00 00 00 00 00 00 00 00 00 00 00 00  |................|
 C3B2  00 00 00 00 00 00 00 00 00 00 00 00 00 00 00 00  |................|
 C3C2  00 00 00 00 00 00 00 00 00 00 00 00 00 00 00 00  |................|
 C3D2  00 00 00 00 00 00 00 00 00 00 00 00 00 00 00 00  |................|
 C3E2  00 00 00 00 00 00 00 00 00 00 00 00 00 00 00 00  |................|
 C3F2  00 00 00 00 00 00 00 00 00 00 00 00 00 00 00 00  |................|
 C402  00 00 00 00 00 00 00 00 00 00 00 00 00 00 00 00  |................|
 C412  00 00 00 00 00 00 00 00 00 00 00 00 00 00 00 00  |................|
 C422  00 00 00 00 00 00 00 00 00 00 00 00 00 00 00 00  |................|
 C432  00 00 00 00 00 00 00 00 00 00 00 00 00 00 00 00  |................|
 C442  00 00 00 00 00 00 00 00 00 00 00 00 00 00 00 00  |................|
 C452  00 00 00 00 00 00 00 00 00 00 00 00 00 00 00 00  |................|
 C462  00 00 00 00 00 00 00 00 00 00 00 00 00 00 00 00  |................|
 C472  00 00 00 00 00 00 00 00 00 00 00 00 00 00 00 00  |................|
 C482  00 00 00 00 00 00 00 00 00 00 00 00 00 00 00 00  |................|
 C492  00 00 00 00 00 00 00 00 00 00 00 00 00 00 00 00  |................|
 C4A2  00 00 00 00 00 00 00 00 00 00 00 00 00 00 00 00  |................|
 C4B2  00 00 00 00 00 00 00 00 00 00 00 00 00 00 00 00  |................|
 C4C2  00 00 00 00 00 00 00 00 00 00 00 00 00 00 00 00  |................|
 C4D2  00 00 00 00 00 00 00 00 00 00 00 00 00 00 00 00  |................|
 C4E2  00 00 00 00 00 00 00 00 00 00 00 00 00 00 00 00  |................|
 C4F2  00 00 00 00 00 00 00 00 00 00 00 00 00 00 00 00  |................|
 C502  00 00 00 00 00 00 00 00 00 00 00 00 00 00 00 00  |................|
 C512  00 00 00 00 00 00 00 00 00 00 00 00 00 00 00 00  |................|
 C522  00 00 00 00 00 00 00 00 00 00 00 00 00 00 00 00  |................|
 C532  00 00 00 00 00 00 00 00 00 00 00 00 00 00 00 00  |................|
 C542  00 00 00 00 00 00 00 00 00 00 00 00 00 00 00 00  |................|
 C552  00 00 00 00 00 00 00 00 00 00 00 00 00 00 00 00  |................|
 C562  00 00 00 00 00 00 00 00 00 00 00 00 00 00 00 00  |................|
 C572  00 00 00 00 00 00 00 00 00 00 00 00 00 00 00 00  |................|
 C582  00 00 00 00 00 00 00 00 00 00 00 00 00 00 00 00  |................|
 C592  00 00 00 00 00 00 00 00 00 00 00 00 00 00 00 00  |................|
 C5A2  00 00 00 00 00 00 00 00 00 00 00 00 00 00 00 00  |................|
 C5B2  00 00 00 00 00 00 00 00 00 00 00 00 00 00 00 00  |................|
 C5C2  00 00 00 00 00 00 00 00 00 00 00 00 00 00 00 00  |................|
 C5D2  00 00 00 00 00 00 00 00 00 00 00 00 00 00 00 00  |................|
 C5E2  00 00 00 00 00 00 00 00 00 00 00 00 00 00 00 00  |................|
 C5F2  00 00 00 00 00 00 00 00 00 00 00 00 00 00 00 00  |................|
 C602  00 00 00 00 00 00 00 00 00 00 00 00 00 00 00 00  |................|
 C612  00 00 00 00 00 00 00 00 00 00 00 00 00 00 00 00  |................|
 C622  00 00 00 00 00 00 00 00 00 00 00 00 00 00 00 00  |................|
 C632  00 00 00 00 00 00 00 00 00 00 00 00 00 00 00 00  |................|
 C642  00 00 00 00 00 00 00 00 00 00 00 00 00 00 00 00  |................|
 C652  00 00 00 00 00 00 00 00 00 00 00 00 00 00 00 00  |................|
 C662  00 00 00 00 00 00 00 00 00 00 00 00 00 00 00 00  |................|
 C672  00 00 00 00 00 00 00 00 00 00 00 00 00 00 00 00  |................|
 C682  00 00 00 00 00 00 00 00 00 00 00 00 00 00 00 00  |................|
 C692  00 00 00 00 00 00 00 00 00 00 00 00 00 00 00 00  |................|
 C6A2  00 00 00 00 00 00 00 00 00 00 00 00 00 00 00 00  |................|
 C6B2  00 00 00 00 00 00 00 00 00 00 00 00 00 00 00 00  |................|
 C6C2  00 00 00 00 00 00 00 00 00 00 00 00 00 00 00 00  |................|
 C6D2  00 00 00 00 00 00 00 00 00 00 00 00 00 00 00 00  |................|
 C6E2  00 00 00 00 00 00 00 00 00 00 00 00 00 00 00 00  |................|
 C6F2  00 00 00 00 00 00 00 00 00 00 00 00 00 00 00 00  |................|
 C702  00 00 00 00 00 00 00 00 00 00 00 00 00 00 00 00  |................|
 C712  00 00 00 00 00 00 00 00 00 00 00 00 00 00 00 00  |................|
 C722  00 00 00 00 00 00 00 00 00 00 00 00 00 00 00 00  |................|
 C732  00 00 00 00 00 00 00 00 00 00 00 00 00 00 00 00  |................|
 C742  00 00 00 00 00 00 00 00 00 00 00 00 00 00 00 00  |................|
 C752  00 00 00 00 00 00 00 00 00 00 00 00 00 00 00 00  |................|
 C762  00 00 00 00 00 00 00 00 00 00 00 00 00 00 00 00  |................|
 C772  00 00 00 00 00 00 00 00 00 00 00 00 00 00 00 00  |................|
 C782  00 00 00 00 00 00 00 00 00 00 00 00 00 00 00 00  |................|
 C792  00 00 00 00 00 00 00 00 00 00 00 00 00 00 00 00  |................|
 C7A2  00 00 00 00 00 00 00 00 00 00 00 00 00 00 00 00  |................|
 C7B2  00 00 00 00 00 00 00 00 00 00 00 00 00 00 00 00  |................|
 C7C2  00 00 00 00 00 00 00 00 00 00 00 00 00 00 00 00  |................|
 C7D2  00 00 00 00 00 00 00 00 00 00 00 00 00 00 00 00  |................|
 C7E2  00 00 00 00 00 00 00 00 00 00 00 00 00 00 00 00  |................|
 C7F2  00 00 00 00 00 00 00 00 00 00 00 00 00 00 00 00  |................|
 C802  00 00 00 00 00 00 00 00 00 00 00 00 00 00 00 00  |................|
 C812  00 00 00 00 00 00 00 00 00 00 00 00 00 00 00 00  |................|
 C822  00 00 00 00 00 00 00 00 00 00 00 00 00 00 00 00  |................|
 C832  00 00 00 00 00 00 00 00 00 00 00 00 00 00 00 00  |................|
 C842  00 00 00 00 00 00 00 00 00 00 00 00 00 00 00 00  |................|
 C852  00 00 00 00 00 00 00 00 00 00 00 00 00 00 00 00  |................|
 C862  00 00 00 00 00 00 00 00 00 00 00 00 00 00 00 00  |................|
 C872  00 00 00 00 00 00 00 00 00 00 00 00 00 00 00 00  |................|
 C882  00 00 00 00 00 00 00 00 00 00 00 00 00 00 00 00  |................|
 C892  00 00 00 00 00 00 00 00 00 00 00 00 00 00 00 00  |................|
 C8A2  00 00 00 00 00 00 00 00 00 00 00 00 00 00 00 00  |................|
 C8B2  00 00 00 00 00 00 00 00 00 00 00 00 00 00 00 00  |................|
 C8C2  00 00 00 00 00 00 00 00 00 00 00 00 00 00 00 00  |................|
 C8D2  00 00 00 00 00 00 00 00 00 00 00 00 00 00 00 00  |................|
 C8E2  00 00 00 00 00 00 00 00 00 00 00 00 00 00 00 00  |................|
 C8F2  00 00 00 00 00 00 00 00 00 00 00 00 00 00 00 00  |................|
 C902  00 00 00 00 00 00 00 00 00 00 00 00 00 00 00 00  |................|
 C912  00 00 00 00 00 00 00 00 00 00 00 00 00 00 00 00  |................|
 C922  00 00 00 00 00 00 00 00 00 00 00 00 00 00 00 00  |................|
 C932  00 00 00 00 00 00 00 00 00 00 00 00 00 00 00 00  |................|
 C942  00 00 00 00 00 00 00 00 00 00 00 00 00 00 00 00  |................|
 C952  00 00 00 00 00 00 00 00 00 00 00 00 00 00 00 00  |................|
 C962  00 00 00 00 00 00 00 00 00 00 00 00 00 00 00 00  |................|
 C972  00 00 00 00 00 00 00 00 00 00 00 00 00 00 00 00  |................|
 C982  00 00 00 00 00 00 00 00 00 00 00 00 00 00 00 00  |................|
 C992  00 00 00 00 00 00 00 00 00 00 00 00 00 00 00 00  |................|
 C9A2  00 00 00 00 00 00 00 00 00 00 00 00 00 00 00 00  |................|
 C9B2  00 00 00 00 00 00 00 00 00 00 00 00 00 00 00 00  |................|
 C9C2  00 00 00 00 00 00 00 00 00 00 00 00 00 00 00 00  |................|
 C9D2  00 00 00 00 00 00 00 00 00 00 00 00 00 00 00 00  |................|
 C9E2  00 00 00 00 00 00 00 00 00 00 00 00 00 00 00 00  |................|
 C9F2  00 00 00 00 00 00 00 00 00 00 00 00 00 00 00 00  |................|
 CA02  00 00 00 00 00 00 00 00 00 00 00 00 00 00 00 00  |................|
 CA12  00 00 00 00 00 00 00 00 00 00 00 00 00 00 00 00  |................|
 CA22  00 00 00 00 00 00 00 00 00 00 00 00 00 00 00 00  |................|
 CA32  00 00 00 00 00 00 00 00 00 00 00 00 00 00 00 00  |................|
 CA42  00 00 00 00 00 00 00 00 00 00 00 00 00 00 00 00  |................|
 CA52  00 00 00 00 00 00 00 00 00 00 00 00 00 00 00 00  |................|
 CA62  00 00 00 00 00 00 00 00 00 00 00 00 00 00 00 00  |................|
 CA72  00 00 00 00 00 00 00 00 00 00 00 00 00 00 00 00  |................|
 CA82  00 00 00 00 00 00 00 00 00 00 00 00 00 00 00 00  |................|
 CA92  00 00 00 00 00 00 00 00 00 00 00 00 00 00 00 00  |................|
 CAA2  00 00 00 00 00 00 00 00 00 00 00 00 00 00 00 00  |................|
 CAB2  00 00 00 00 00 00 00 00 00 00 00 00 00 00 00 00  |................|
 CAC2  00 00 00 00 00 00 00 00 00 00 00 00 00 00 00 00  |................|
 CAD2  00 00 00 00 00 00 00 00 00 00 00 00 00 00 00 00  |................|
 CAE2  00 00 00 00 00 00 00 00 00 00 00 00 00 00 00 00  |................|
 CAF2  00 00 00 00 00 00 00 00 00 00 00 00 00 00 00 00  |................|
 CB02  00 00 00 00 00 00 00 00 00 00 00 00 00 00 00 00  |................|
 CB12  00 00 00 00 00 00 00 00 00 00 00 00 00 00 00 00  |................|
 CB22  00 00 00 00 00 00 00 00 00 00 00 00 00 00 00 00  |................|
 CB32  00 00 00 00 00 00 00 00 00 00 00 00 00 00 00 00  |................|
 CB42  00 00 00 00 00 00 00 00 00 00 00 00 00 00 00 00  |................|
 CB52  00 00 00 00 00 00 00 00 00 00 00 00 00 00 00 00  |................|
 CB62  00 00 00 00 00 00 00 00 00 00 00 00 00 00 00 00  |................|
 CB72  00 00 00 00 00 00 00 00 00 00 00 00 00 00 00 00  |................|
 CB82  00 00 00 00 00 00 00 00 00 00 00 00 00 00 00 00  |................|
 CB92  00 00 00 00 00 00 00 00 00 00 00 00 00 00 00 00  |................|
 CBA2  00 00 00 00 00 00 00 00 00 00 00 00 00 00 00 00  |................|
 CBB2  00 00 00 00 00 00 00 00 00 00 00 00 00 00 00 00  |................|
 CBC2  00 00 00 00 00 00 00 00 00 00 00 00 00 00 00 00  |................|
 CBD2  00 00 00 00 00 00 00 00 00 00 00 00 00 00 00 00  |................|
 CBE2  00 00 00 00 00 00 00 00 00 00 00 00 00 00 00 00  |................|
 CBF2  00 00 00 00 00 00 00 00 00 00 00 00 00 00 00 00  |................|
 CC02  00 00 00 00 00 00 00 00 00 00 00 00 00 00 00 00  |................|
 CC12  00 00 00 00 00 00 00 00 00 00 00 00 00 00 00 00  |................|
 CC22  00 00 00 00 00 00 00 00 00 00 00 00 00 00 00 00  |................|
 CC32  00 00 00 00 00 00 00 00 00 00 00 00 00 00 00 00  |................|
 CC42  00 00 00 00 00 00 00 00 00 00 00 00 00 00 00 00  |................|
 CC52  00 00 00 00 00 00 00 00 00 00 00 00 00 00 00 00  |................|
 CC62  00 00 00 00 00 00 00 00 00 00 00 00 00 00 00 00  |................|
 CC72  00 00 00 00 00 00 00 00 00 00 00 00 00 00 00 00  |................|
 CC82  00 00 00 00 00 00 00 00 00 00 00 00 00 00 00 00  |................|
 CC92  00 00 00 00 00 00 00 00 00 00 00 00 00 00 00 00  |................|
 CCA2  00 00 00 00 00 00 00 00 00 00 00 00 00 00 00 00  |................|
 CCB2  00 00 00 00 00 00 00 00 00 00 00 00 00 00 00 00  |................|
 CCC2  00 00 00 00 00 00 00 00 00 00 00 00 00 00 00 00  |................|
 CCD2  00 00 00 00 00 00 00 00 00 00 00 00 00 00 00 00  |................|
 CCE2  00 00 00 00 00 00 00 00 00 00 00 00 00 00 00 00  |................|
 CCF2  00 00 00 00 00 00 00 00 00 00 00 00 00 00 00 00  |................|
 CD02  00 00 00 00 00 00 00 00 00 00 00 00 00 00 00 00  |................|
 CD12  00 00 00 00 00 00 00 00 00 00 00 00 00 00 00 00  |................|
 CD22  00 00 00 00 00 00 00 00 00 00 00 00 00 00 00 00  |................|
 CD32  00 00 00 00 00 00 00 00 00 00 00 00 00 00 00 00  |................|
 CD42  00 00 00 00 00 00 00 00 00 00 00 00 00 00 00 00  |................|
 CD52  00 00 00 00 00 00 00 00 00 00 00 00 00 00 00 00  |................|
 CD62  00 00 00 00 00 00 00 00 00 00 00 00 00 00 00 00  |................|
 CD72  00 00 00 00 00 00 00 00 00 00 00 00 00 00 00 00  |................|
 CD82  00 00 00 00 00 00 00 00 00 00 00 00 00 00 00 00  |................|
 CD92  00 00 00 00 00 00 00 00 00 00 00 00 00 00 00 00  |................|
 CDA2  00 00 00 00 00 00 00 00 00 00 00 00 00 00 00 00  |................|
 CDB2  00 00 00 00 00 00 00 00 00 00 00 00 00 00 00 00  |................|
 CDC2  00 00 00 00 00 00 00 00 00 00 00 00 00 00 00 00  |................|
 CDD2  00 00 00 00 00 00 00 00 00 00 00 00 00 00 00 00  |................|
 CDE2  00 00 00 00 00 00 00 00 00 00 00 00 00 00 00 00  |................|
 CDF2  00 00 00 00 00 00 00 00 00 00 00 00 00 00 00 00  |................|
 CE02  00 00 00 00 00 00 00 00 00 00 00 00 00 00 00 00  |................|
 CE12  00 00 00 00 00 00 00 00 00 00 00 00 00 00 00 00  |................|
 CE22  00 00 00 00 00 00 00 00 00 00 00 00 00 00 00 00  |................|
 CE32  00 00 00 00 00 00 00 00 00 00 00 00 00 00 00 00  |................|
 CE42  00 00 00 00 00 00 00 00 00 00 00 00 00 00 00 00  |................|
 CE52  00 00 00 00 00 00 00 00 00 00 00 00 00 00 00 00  |................|
 CE62  00 00 00 00 00 00 00 00 00 00 00 00 00 00 00 00  |................|
 CE72  00 00 00 00 00 00 00 00 00 00 00 00 00 00 00 00  |................|
 CE82  00 00 00 00 00 00 00 00 00 00 00 00 00 00 00 00  |................|
 CE92  00 00 00 00 00 00 00 00 00 00 00 00 00 00 00 00  |................|
 CEA2  00 00 00 00 00 00 00 00 00 00 00 00 00 00 00 00  |................|
 CEB2  00 00 00 00 00 00 00 00 00 00 00 00 00 00 00 00  |................|
 CEC2  00 00 00 00 00 00 00 00 00 00 00 00 00 00 00 00  |................|
 CED2  00 00 00 00 00 00 00 00 00 00 00 00 00 00 00 00  |................|
 CEE2  00 00 00 00 00 00 00 00 00 00 00 00 00 00 00 00  |................|
 CEF2  00 00 00 00 00 00 00 00 00 00 00 00 00 00 00 00  |................|
 CF02  00 00 00 00 00 00 00 00 00 00 00 00 00 00 00 00  |................|
 CF12  00 00 00 00 00 00 00 00 00 00 00 00 00 00 00 00  |................|
 CF22  00 00 00 00 00 00 00 00 00 00 00 00 00 00 00 00  |................|
 CF32  00 00 00 00 00 00 00 00 00 00 00 00 00 00 00 00  |................|
 CF42  00 00 00 00 00 00 00 00 00 00 00 00 00 00 00 00  |................|
 CF52  00 00 00 00 00 00 00 00 00 00 00 00 00 00 00 00  |................|
 CF62  00 00 00 00 00 00 00 00 00 00 00 00 00 00 00 00  |................|
 CF72  00 00 00 00 00 00 00 00 00 00 00 00 00 00 00 00  |................|
 CF82  00 00 00 00 00 00 00 00 00 00 00 00 00 00 00 00  |................|
 CF92  00 00 00 00 00 00 00 00 00 00 00 00 00 00 00 00  |................|
 CFA2  00 00 00 00 00 00 00 00 00 00 00 00 00 00 00 00  |................|
 CFB2  00 00 00 00 00 00 00 00 00 00 00 00 00 00 00 00  |................|
 CFC2  00 00 00 00 00 00 00 00 00 00 00 00 00 00 00 00  |................|
 CFD2  00 00 00 00 00 00 00 00 00 00 00 00 00 00 00 00  |................|
 CFE2  00 00 00 00 00 00 00 00 00 00 00 00 00 00 00 00  |................|
 CFF2  00 00 00 00 00 00 00 00 00 00 00 00 00 00 00 00  |................|
 D002  00 00 00 00 00 00 00 00 00 00 00 00 00 00 00 00  |................|
 D012  00 00 00 00 00 00 00 00 00 00 00 00 00 00 00 00  |................|
 D022  00 00 00 00 00 00 00 00 00 00 00 00 00 00 00 00  |................|
 D032  00 00 00 00 00 00 00 00 00 00 00 00 00 00 00 00  |................|
 D042  00 00 00 00 00 00 00 00 00 00 00 00 00 00 00 00  |................|
 D052  00 00 00 00 00 00 00 00 00 00 00 00 00 00 00 00  |................|
 D062  00 00 00 00 00 00 00 00 00 00 00 00 00 00 00 00  |................|
 D072  00 00 00 00 00 00 00 00 00 00 00 00 00 00 00 00  |................|
 D082  00 00 00 00 00 00 00 00 00 00 00 00 00 00 00 00  |................|
 D092  00 00 00 00 00 00 00 00 00 00 00 00 00 00 00 00  |................|
 D0A2  00 00 00 00 00 00 00 00 00 00 00 00 00 00 00 00  |................|
 D0B2  00 00 00 00 00 00 00 00 00 00 00 00 00 00 00 00  |................|
 D0C2  00 00 00 00 00 00 00 00 00 00 00 00 00 00 00 00  |................|
 D0D2  00 00 00 00 00 00 00 00 00 00 00 00 00 00 00 00  |................|
 D0E2  00 00 00 00 00 00 00 00 00 00 00 00 00 00 00 00  |................|
 D0F2  00 00 00 00 00 00 00 00 00 00 00 00 00 00 00 00  |................|
 D102  00 00 00 00 00 00 00 00 00 00 00 00 00 00 00 00  |................|
 D112  00 00 00 00 00 00 00 00 00 00 00 00 00 00 00 00  |................|
 D122  00 00 00 00 00 00 00 00 00 00 00 00 00 00 00 00  |................|
 D132  00 00 00 00 00 00 00 00 00 00 00 00 00 00 00 00  |................|
 D142  00 00 00 00 00 00 00 00 00 00 00 00 00 00 00 00  |................|
 D152  00 00 00 00 00 00 00 00 00 00 00 00 00 00 00 00  |................|
 D162  00 00 00 00 00 00 00 00 00 00 00 00 00 00 00 00  |................|
 D172  00 00 00 00 00 00 00 00 00 00 00 00 00 00 00 00  |................|
 D182  00 00 00 00 00 00 00 00 00 00 00 00 00 00 00 00  |................|
 D192  00 00 00 00 00 00 00 00 00 00 00 00 00 00 00 00  |................|
 D1A2  00 00 00 00 00 00 00 00 00 00 00 00 00 00 00 00  |................|
 D1B2  00 00 00 00 00 00 00 00 00 00 00 00 00 00 00 00  |................|
 D1C2  00 00 00 00 00 00 00 00 00 00 00 00 00 00 00 00  |................|
 D1D2  00 00 00 00 00 00 00 00 00 00 00 00 00 00 00 00  |................|
 D1E2  00 00 00 00 00 00 00 00 00 00 00 00 00 00 00 00  |................|
 D1F2  00 00 00 00 00 00 00 00 00 00 00 00 00 00 00 00  |................|
 D202  00 00 00 00 00 00 00 00 00 00 00 00 00 00 00 00  |................|
 D212  00 00 00 00 00 00 00 00 00 00 00 00 00 00 00 00  |................|
 D222  00 00 00 00 00 00 00 00 00 00 00 00 00 00 00 00  |................|
 D232  00 00 00 00 00 00 00 00 00 00 00 00 00 00 00 00  |................|
 D242  00 00 00 00 00 00 00 00 00 00 00 00 00 00 00 00  |................|
 D252  00 00 00 00 00 00 00 00 00 00 00 00 00 00 00 00  |................|
 D262  00 00 00 00 00 00 00 00 00 00 00 00 00 00 00 00  |................|
 D272  00 00 00 00 00 00 00 00 00 00 00 00 00 00 00 00  |................|
 D282  00 00 00 00 00 00 00 00 00 00 00 00 00 00 00 00  |................|
 D292  00 00 00 00 00 00 00 00 00 00 00 00 00 00 00 00  |................|
 D2A2  00 00 00 00 00 00 00 00 00 00 00 00 00 00 00 00  |................|
 D2B2  00 00 00 00 00 00 00 00 00 00 00 00 00 00 00 00  |................|
 D2C2  00 00 00 00 00 00 00 00 00 00 00 00 00 00 00 00  |................|
 D2D2  00 00 00 00 00 00 00 00 00 00 00 00 00 00 00 00  |................|
 D2E2  00 00 00 00 00 00 00 00 00 00 00 00 00 00 00 00  |................|
 D2F2  00 00 00 00 00 00 00 00 00 00 00 00 00 00 00 00  |................|
 D302  00 00 00 00 00 00 00 00 00 00 00 00 00 00 00 00  |................|
 D312  00 00 00 00 00 00 00 00 00 00 00 00 00 00 00 00  |................|
 D322  00 00 00 00 00 00 00 00 00 00 00 00 00 00 00 00  |................|
 D332  00 00 00 00 00 00 00 00 00 00 00 00 00 00 00 00  |................|
 D342  00 00 00 00 00 00 00 00 00 00 00 00 00 00 00 00  |................|
 D352  00 00 00 00 00 00 00 00 00 00 00 00 00 00 00 00  |................|
 D362  00 00 00 00 00 00 00 00 00 00 00 00 00 00 00 00  |................|
 D372  00 00 00 00 00 00 00 00 00 00 00 00 00 00 00 00  |................|
 D382  00 00 00 00 00 00 00 00 00 00 00 00 00 00 00 00  |................|
 D392  00 00 00 00 00 00 00 00 00 00 00 00 00 00 00 00  |................|
 D3A2  00 00 00 00 00 00 00 00 00 00 00 00 00 00 00 00  |................|
 D3B2  00 00 00 00 00 00 00 00 00 00 00 00 00 00 00 00  |................|
 D3C2  00 00 00 00 00 00 00 00 00 00 00 00 00 00 00 00  |................|
 D3D2  00 00 00 00 00 00 00 00 00 00 00 00 00 00 00 00  |................|
 D3E2  00 00 00 00 00 00 00 00 00 00 00 00 00 00 00 00  |................|
 D3F2  00 00 00 00 00 00 00 00 00 00 00 00 00 00 00 00  |................|
 D402  00 00 00 00 00 00 00 00 00 00 00 00 00 00 00 00  |................|
 D412  00 00 00 00 00 00 00 00 00 00 00 00 00 00 00 00  |................|
 D422  00 00 00 00 00 00 00 00 00 00 00 00 00 00 00 00  |................|
 D432  00 00 00 00 00 00 00 00 00 00 00 00 00 00 00 00  |................|
 D442  00 00 00 00 00 00 00 00 00 00 00 00 00 00 00 00  |................|
 D452  00 00 00 00 00 00 00 00 00 00 00 00 00 00 00 00  |................|
 D462  00 00 00 00 00 00 00 00 00 00 00 00 00 00 00 00  |................|
 D472  00 00 00 00 00 00 00 00 00 00 00 00 00 00 00 00  |................|
 D482  00 00 00 00 00 00 00 00 00 00 00 00 00 00 00 00  |................|
 D492  00 00 00 00 00 00 00 00 00 00 00 00 00 00 00 00  |................|
 D4A2  00 00 00 00 00 00 00 00 00 00 00 00 00 00 00 00  |................|
 D4B2  00 00 00 00 00 00 00 00 00 00 00 00 00 00 00 00  |................|
 D4C2  00 00 00 00 00 00 00 00 00 00 00 00 00 00 00 00  |................|
 D4D2  00 00 00 00 00 00 00 00 00 00 00 00 00 00 00 00  |................|
 D4E2  00 00 00 00 00 00 00 00 00 00 00 00 00 00 00 00  |................|
 D4F2  00 00 00 00 00 00 00 00 00 00 00 00 00 00 00 00  |................|
 D502  00 00 00 00 00 00 00 00 00 00 00 00 00 00 00 00  |................|
 D512  00 00 00 00 00 00 00 00 00 00 00 00 00 00 00 00  |................|
 D522  00 00 00 00 00 00 00 00 00 00 00 00 00 00 00 00  |................|
 D532  00 00 00 00 00 00 00 00 00 00 00 00 00 00 00 00  |................|
 D542  00 00 00 00 00 00 00 00 00 00 00 00 00 00 00 00  |................|
 D552  00 00 00 00 00 00 00 00 00 00 00 00 00 00 00 00  |................|
 D562  00 00 00 00 00 00 00 00 00 00 00 00 00 00 00 00  |................|
 D572  00 00 00 00 00 00 00 00 00 00 00 00 00 00 00 00  |................|
 D582  00 00 00 00 00 00 00 00 00 00 00 00 00 00 00 00  |................|
 D592  00 00 00 00 00 00 00 00 00 00 00 00 00 00 00 00  |................|
 D5A2  00 00 00 00 00 00 00 00 00 00 00 00 00 00 00 00  |................|
 D5B2  00 00 00 00 00 00 00 00 00 00 00 00 00 00 00 00  |................|
 D5C2  00 00 00 00 00 00 00 00 00 00 00 00 00 00 00 00  |................|
 D5D2  00 00 00 00 00 00 00 00 00 00 00 00 00 00 00 00  |................|
 D5E2  00 00 00 00 00 00 00 00 00 00 00 00 00 00 00 00  |................|
 D5F2  00 00 00 00 00 00 00 00 00 00 00 00 00 00 00 00  |................|
 D602  00 00 00 00 00 00 00 00 00 00 00 00 00 00 00 00  |................|
 D612  00 00 00 00 00 00 00 00 00 00 00 00 00 00 00 00  |................|
 D622  00 00 00 00 00 00 00 00 00 00 00 00 00 00 00 00  |................|
 D632  00 00 00 00 00 00 00 00 00 00 00 00 00 00 00 00  |................|
 D642  00 00 00 00 00 00 00 00 00 00 00 00 00 00 00 00  |................|
 D652  00 00 00 00 00 00 00 00 00 00 00 00 00 00 00 00  |................|
 D662  00 00 00 00 00 00 00 00 00 00 00 00 00 00 00 00  |................|
 D672  00 00 00 00 00 00 00 00 00 00 00 00 00 00 00 00  |................|
 D682  00 00 00 00 00 00 00 00 00 00 00 00 00 00 00 00  |................|
 D692  00 00 00 00 00 00 00 00 00 00 00 00 00 00 00 00  |................|
 D6A2  00 00 00 00 00 00 00 00 00 00 00 00 00 00 00 00  |................|
 D6B2  00 00 00 00 00 00 00 00 00 00 00 00 00 00 00 00  |................|
 D6C2  00 00 00 00 00 00 00 00 00 00 00 00 00 00 00 00  |................|
 D6D2  00 00 00 00 00 00 00 00 00 00 00 00 00 00 00 00  |................|
 D6E2  00 00 00 00 00 00 00 00 00 00 00 00 00 00 00 00  |................|
 D6F2  00 00 00 00 00 00 00 00 00 00 00 00 00 00 00 00  |................|
 D702  00 00 00 00 00 00 00 00 00 00 00 00 00 00 00 00  |................|
 D712  00 00 00 00 00 00 00 00 00 00 00 00 00 00 00 00  |................|
 D722  00 00 00 00 00 00 00 00 00 00 00 00 00 00 00 00  |................|
 D732  00 00 00 00 00 00 00 00 00 00 00 00 00 00 00 00  |................|
 D742  00 00 00 00 00 00 00 00 00 00 00 00 00 00 00 00  |................|
 D752  00 00 00 00 00 00 00 00 00 00 00 00 00 00 00 00  |................|
 D762  00 00 00 00 00 00 00 00 00 00 00 00 00 00 00 00  |................|
 D772  00 00 00 00 00 00 00 00 00 00 00 00 00 00 00 00  |................|
 D782  00 00 00 00 00 00 00 00 00 00 00 00 00 00 00 00  |................|
 D792  00 00 00 00 00 00 00 00 00 00 00 00 00 00 00 00  |................|
 D7A2  00 00 00 00 00 00 00 00 00 00 00 00 00 00 00 00  |................|
 D7B2  00 00 00 00 00 00 00 00 00 00 00 00 00 00 00 00  |................|
 D7C2  00 00 00 00 00 00 00 00 00 00 00 00 00 00 00 00  |................|
 D7D2  00 00 00 00 00 00 00 00 00 00 00 00 00 00 00 00  |................|
 D7E2  00 00 00 00 00 00 00 00 00 00 00 00 00 00 00 00  |................|
 D7F2  00 00 00 00 00 00 00 00 00 00 00 00 00 00 00 00  |................|
 D802  00 00 00 00 00 00 00 00 00 00 00 00 00 00 00 00  |................|
 D812  00 00 00 00 00 00 00 00 00 00 00 00 00 00 00 00  |................|
 D822  00 00 00 00 00 00 00 00 00 00 00 00 00 00 00 00  |................|
 D832  00 00 00 00 00 00 00 00 00 00 00 00 00 00 00 00  |................|
 D842  00 00 00 00 00 00 00 00 00 00 00 00 00 00 00 00  |................|
 D852  00 00 00 00 00 00 00 00 00 00 00 00 00 00 00 00  |................|
 D862  00 00 00 00 00 00 00 00 00 00 00 00 00 00 00 00  |................|
 D872  00 00 00 00 00 00 00 00 00 00 00 00 00 00 00 00  |................|
 D882  00 00 00 00 00 00 00 00 00 00 00 00 00 00 00 00  |................|
 D892  00 00 00 00 00 00 00 00 00 00 00 00 00 00 00 00  |................|
 D8A2  00 00 00 00 00 00 00 00 00 00 00 00 00 00 00 00  |................|
 D8B2  00 00 00 00 00 00 00 00 00 00 00 00 00 00 00 00  |................|
 D8C2  00 00 00 00 00 00 00 00 00 00 00 00 00 00 00 00  |................|
 D8D2  00 00 00 00 00 00 00 00 00 00 00 00 00 00 00 00  |................|
 D8E2  00 00 00 00 00 00 00 00 00 00 00 00 00 00 00 00  |................|
 D8F2  00 00 00 00 00 00 00 00 00 00 00 00 00 00 00 00  |................|
 D902  00 00 00 00 00 00 00 00 00 00 00 00 00 00 00 00  |................|
 D912  00 00 00 00 00 00 00 00 00 00 00 00 00 00 00 00  |................|
 D922  00 00 00 00 00 00 00 00 00 00 00 00 00 00 00 00  |................|
 D932  00 00 00 00 00 00 00 00 00 00 00 00 00 00 00 00  |................|
 D942  00 00 00 00 00 00 00 00 00 00 00 00 00 00 00 00  |................|
 D952  00 00 00 00 00 00 00 00 00 00 00 00 00 00 00 00  |................|
 D962  00 00 00 00 00 00 00 00 00 00 00 00 00 00 00 00  |................|
 D972  00 00 00 00 00 00 00 00 00 00 00 00 00 00 00 00  |................|
 D982  00 00 00 00 00 00 00 00 00 00 00 00 00 00 00 00  |................|
 D992  00 00 00 00 00 00 00 00 00 00 00 00 00 00 00 00  |................|
 D9A2  00 00 00 00 00 00 00 00 00 00 00 00 00 00 00 00  |................|
 D9B2  00 00 00 00 00 00 00 00 00 00 00 00 00 00 00 00  |................|
 D9C2  00 00 00 00 00 00 00 00 00 00 00 00 00 00 00 00  |................|
 D9D2  00 00 00 00 00 00 00 00 00 00 00 00 00 00 00 00  |................|
 D9E2  00 00 00 00 00 00 00 00 00 00 00 00 00 00 00 00  |................|
 D9F2  00 00 00 00 00 00 00 00 00 00 00 00 00 00 00 00  |................|
 DA02  00 00 00 00 00 00 00 00 00 00 00 00 00 00 00 00  |................|
 DA12  00 00 00 00 00 00 00 00 00 00 00 00 00 00 00 00  |................|
 DA22  00 00 00 00 00 00 00 00 00 00 00 00 00 00 00 00  |................|
 DA32  00 00 00 00 00 00 00 00 00 00 00 00 00 00 00 00  |................|
 DA42  00 00 00 00 00 00 00 00 00 00 00 00 00 00 00 00  |................|
 DA52  00 00 00 00 00 00 00 00 00 00 00 00 00 00 00 00  |................|
 DA62  00 00 00 00 00 00 00 00 00 00 00 00 00 00 00 00  |................|
 DA72  00 00 00 00 00 00 00 00 00 00 00 00 00 00 00 00  |................|
 DA82  00 00 00 00 00 00 00 00 00 00 00 00 00 00 00 00  |................|
 DA92  00 00 00 00 00 00 00 00 00 00 00 00 00 00 00 00  |................|
 DAA2  00 00 00 00 00 00 00 00 00 00 00 00 00 00 00 00  |................|
 DAB2  00 00 00 00 00 00 00 00 00 00 00 00 00 00 00 00  |................|
 DAC2  00 00 00 00 00 00 00 00 00 00 00 00 00 00 00 00  |................|
 DAD2  00 00 00 00 00 00 00 00 00 00 00 00 00 00 00 00  |................|
 DAE2  00 00 00 00 00 00 00 00 00 00 00 00 00 00 00 00  |................|
 DAF2  00 00 00 00 00 00 00 00 00 00 00 00 00 00 00 00  |................|
 DB02  00 00 00 00 00 00 00 00 00 00 00 00 00 00 00 00  |................|
 DB12  00 00 00 00 00 00 00 00 00 00 00 00 00 00 00 00  |................|
 DB22  00 00 00 00 00 00 00 00 00 00 00 00 00 00 00 00  |................|
 DB32  00 00 00 00 00 00 00 00 00 00 00 00 00 00 00 00  |................|
 DB42  00 00 00 00 00 00 00 00 00 00 00 00 00 00 00 00  |................|
 DB52  00 00 00 00 00 00 00 00 00 00 00 00 00 00 00 00  |................|
 DB62  00 00 00 00 00 00 00 00 00 00 00 00 00 00 00 00  |................|
 DB72  00 00 00 00 00 00 00 00 00 00 00 00 00 00 00 00  |................|
 DB82  00 00 00 00 00 00 00 00 00 00 00 00 00 00 00 00  |................|
 DB92  00 00 00 00 00 00 00 00 00 00 00 00 00 00 00 00  |................|
 DBA2  00 00 00 00 00 00 00 00 00 00 00 00 00 00 00 00  |................|
 DBB2  00 00 00 00 00 00 00 00 00 00 00 00 00 00 00 00  |................|
 DBC2  00 00 00 00 00 00 00 00 00 00 00 00 00 00 00 00  |................|
 DBD2  00 00 00 00 00 00 00 00 00 00 00 00 00 00 00 00  |................|
 DBE2  00 00 00 00 00 00 00 00 00 00 00 00 00 00 00 00  |................|
 DBF2  00 00 00 00 00 00 00 00 00 00 00 00 00 00 00 00  |................|
 DC02  00 00 00 00 00 00 00 00 00 00 00 00 00 00 00 00  |................|
 DC12  00 00 00 00 00 00 00 00 00 00 00 00 00 00 00 00  |................|
 DC22  00 00 00 00 00 00 00 00 00 00 00 00 00 00 00 00  |................|
 DC32  00 00 00 00 00 00 00 00 00 00 00 00 00 00 00 00  |................|
 DC42  00 00 00 00 00 00 00 00 00 00 00 00 00 00 00 00  |................|
 DC52  00 00 00 00 00 00 00 00 00 00 00 00 00 00 00 00  |................|
 DC62  00 00 00 00 00 00 00 00 00 00 00 00 00 00 00 00  |................|
 DC72  00 00 00 00 00 00 00 00 00 00 00 00 00 00 00 00  |................|
 DC82  00 00 00 00 00 00 00 00 00 00 00 00 00 00 00 00  |................|
 DC92  00 00 00 00 00 00 00 00 00 00 00 00 00 00 00 00  |................|
 DCA2  00 00 00 00 00 00 00 00 00 00 00 00 00 00 00 00  |................|
 DCB2  00 00 00 00 00 00 00 00 00 00 00 00 00 00 00 00  |................|
 DCC2  00 00 00 00 00 00 00 00 00 00 00 00 00 00 00 00  |................|
 DCD2  00 00 00 00 00 00 00 00 00 00 00 00 00 00 00 00  |................|
 DCE2  00 00 00 00 00 00 00 00 00 00 00 00 00 00 00 00  |................|
 DCF2  00 00 00 00 00 00 00 00 00 00 00 00 00 00 00 00  |................|
 DD02  00 00 00 00 00 00 00 00 00 00 00 00 00 00 00 00  |................|
 DD12  00 00 00 00 00 00 00 00 00 00 00 00 00 00 00 00  |................|
 DD22  00 00 00 00 00 00 00 00 00 00 00 00 00 00 00 00  |................|
 DD32  00 00 00 00 00 00 00 00 00 00 00 00 00 00 00 00  |................|
 DD42  00 00 00 00 00 00 00 00 00 00 00 00 00 00 00 00  |................|
 DD52  00 00 00 00 00 00 00 00 00 00 00 00 00 00 00 00  |................|
 DD62  00 00 00 00 00 00 00 00 00 00 00 00 00 00 00 00  |................|
 DD72  00 00 00 00 00 00 00 00 00 00 00 00 00 00 00 00  |................|
 DD82  00 00 00 00 00 00 00 00 00 00 00 00 00 00 00 00  |................|
 DD92  00 00 00 00 00 00 00 00 00 00 00 00 00 00 00 00  |................|
 DDA2  00 00 00 00 00 00 00 00 00 00 00 00 00 00 00 00  |................|
 DDB2  00 00 00 00 00 00 00 00 00 00 00 00 00 00 00 00  |................|
 DDC2  00 00 00 00 00 00 00 00 00 00 00 00 00 00 00 00  |................|
 DDD2  00 00 00 00 00 00 00 00 00 00 00 00 00 00 00 00  |................|
 DDE2  00 00 00 00 00 00 00 00 00 00 00 00 00 00 00 00  |................|
 DDF2  00 00 00 00 00 00 00 00 00 00 00 00 00 00 00 00  |................|
 DE02  00 00 00 00 00 00 00 00 00 00 00 00 00 00 00 00  |................|
 DE12  00 00 00 00 00 00 00 00 00 00 00 00 00 00 00 00  |................|
 DE22  00 00 00 00 00 00 00 00 00 00 00 00 00 00 00 00  |................|
 DE32  00 00 00 00 00 00 00 00 00 00 00 00 00 00 00 00  |................|
 DE42  00 00 00 00 00 00 00 00 00 00 00 00 00 00 00 00  |................|
 DE52  00 00 00 00 00 00 00 00 00 00 00 00 00 00 00 00  |................|
 DE62  00 00 00 00 00 00 00 00 00 00 00 00 00 00 00 00  |................|
 DE72  00 00 00 00 00 00 00 00 00 00 00 00 00 00 00 00  |................|
 DE82  00 00 00 00 00 00 00 00 00 00 00 00 00 00 00 00  |................|
 DE92  00 00 00 00 00 00 00 00 00 00 00 00 00 00 00 00  |................|
 DEA2  00 00 00 00 00 00 00 00 00 00 00 00 00 00 00 00  |................|
 DEB2  00 00 00 00 00 00 00 00 00 00 00 00 00 00 00 00  |................|
 DEC2  00 00 00 00 00 00 00 00 00 00 00 00 00 00 00 00  |................|
 DED2  00 00 00 00 00 00 00 00 00 00 00 00 00 00 00 00  |................|
 DEE2  00 00 00 00 00 00 00 00 00 00 00 00 00 00 00 00  |................|
 DEF2  00 00 00 00 00 00 00 00 00 00 00 00 00 00 00 00  |................|
 DF02  00 00 00 00 00 00 00 00 00 00 00 00 00 00 00 00  |................|
 DF12  00 00 00 00 00 00 00 00 00 00 00 00 00 00 00 00  |................|
 DF22  00 00 00 00 00 00 00 00 00 00 00 00 00 00 00 00  |................|
 DF32  00 00 00 00 00 00 00 00 00 00 00 00 00 00 00 00  |................|
 DF42  00 00 00 00 00 00 00 00 00 00 00 00 00 00 00 00  |................|
 DF52  00 00 00 00 00 00 00 00 00 00 00 00 00 00 00 00  |................|
 DF62  00 00 00 00 00 00 00 00 00 00 00 00 00 00 00 00  |................|
 DF72  00 00 00 00 00 00 00 00 00 00 00 00 00 00 00 00  |................|
 DF82  00 00 00 00 00 00 00 00 00 00 00 00 00 00 00 00  |................|
 DF92  00 00 00 00 00 00 00 00 00 00 00 00 00 00 00 00  |................|
 DFA2  00 00 00 00 00 00 00 00 00 00 00 00 00 00 00 00  |................|
 DFB2  00 00 00 00 00 00 00 00 00 00 00 00 00 00 00 00  |................|
 DFC2  00 00 00 00 00 00 00 00 00 00 00 00 00 00 00 00  |................|
 DFD2  00 00 00 00 00 00 00 00 00 00 00 00 00 00 00 00  |................|
 DFE2  00 00 00 00 00 00 00 00 00 00 00 00 00 00 00 00  |................|
 DFF2  00 00 00 00 00 00 00 00 00 00 00 00 00 00 00 00  |................|
 E002  00 00 00 00 00 00 00 00 00 00 00 00 00 00 00 00  |................|
 E012  00 00 00 00 00 00 00 00 00 00 00 00 00 00 00 00  |................|
 E022  00 00 00 00 00 00 00 00 00 00 00 00 00 00 00 00  |................|
 E032  00 00 00 00 00 00 00 00 00 00 00 00 00 00 00 00  |................|
 E042  00 00 00 00 00 00 00 00 00 00 00 00 00 00 00 00  |................|
 E052  00 00 00 00 00 00 00 00 00 00 00 00 00 00 00 00  |................|
 E062  00 00 00 00 00 00 00 00 00 00 00 00 00 00 00 00  |................|
 E072  00 00 00 00 00 00 00 00 00 00 00 00 00 00 00 00  |................|
 E082  00 00 00 00 00 00 00 00 00 00 00 00 00 00 00 00  |................|
 E092  00 00 00 00 00 00 00 00 00 00 00 00 00 00 00 00  |................|
 E0A2  00 00 00 00 00 00 00 00 00 00 00 00 00 00 00 00  |................|
 E0B2  00 00 00 00 00 00 00 00 00 00 00 00 00 00 00 00  |................|
 E0C2  00 00 00 00 00 00 00 00 00 00 00 00 00 00 00 00  |................|
 E0D2  00 00 00 00 00 00 00 00 00 00 00 00 00 00 00 00  |................|
 E0E2  00 00 00 00 00 00 00 00 00 00 00 00 00 00 00 00  |................|
 E0F2  00 00 00 00 00 00 00 00 00 00 00 00 00 00 00 00  |................|
 E102  00 00 00 00 00 00 00 00 00 00 00 00 00 00 00 00  |................|
 E112  00 00 00 00 00 00 00 00 00 00 00 00 00 00 00 00  |................|
 E122  00 00 00 00 00 00 00 00 00 00 00 00 00 00 00 00  |................|
 E132  00 00 00 00 00 00 00 00 00 00 00 00 00 00 00 00  |................|
 E142  00 00 00 00 00 00 00 00 00 00 00 00 00 00 00 00  |................|
 E152  00 00 00 00 00 00 00 00 00 00 00 00 00 00 00 00  |................|
 E162  00 00 00 00 00 00 00 00 00 00 00 00 00 00 00 00  |................|
 E172  00 00 00 00 00 00 00 00 00 00 00 00 00 00 00 00  |................|
 E182  00 00 00 00 00 00 00 00 00 00 00 00 00 00 00 00  |................|
 E192  00 00 00 00 00 00 00 00 00 00 00 00 00 00 00 00  |................|
 E1A2  00 00 00 00 00 00 00 00 00 00 00 00 00 00 00 00  |................|
 E1B2  00 00 00 00 00 00 00 00 00 00 00 00 00 00 00 00  |................|
 E1C2  00 00 00 00 00 00 00 00 00 00 00 00 00 00 00 00  |................|
 E1D2  00 00 00 00 00 00 00 00 00 00 00 00 00 00 00 00  |................|
 E1E2  00 00 00 00 00 00 00 00 00 00 00 00 00 00 00 00  |................|
 E1F2  00 00 00 00 00 00 00 00 00 00 00 00 00 00 00 00  |................|
 E202  00 00 00 00 00 00 00 00 00 00 00 00 00 00 00 00  |................|
 E212  00 00 00 00 00 00 00 00 00 00 00 00 00 00 00 00  |................|
 E222  00 00 00 00 00 00 00 00 00 00 00 00 00 00 00 00  |................|
 E232  00 00 00 00 00 00 00 00 00 00 00 00 00 00 00 00  |................|
 E242  00 00 00 00 00 00 00 00 00 00 00 00 00 00 00 00  |................|
 E252  00 00 00 00 00 00 00 00 00 00 00 00 00 00 00 00  |................|
 E262  00 00 00 00 00 00 00 00 00 00 00 00 00 00 00 00  |................|
 E272  00 00 00 00 00 00 00 00 00 00 00 00 00 00 00 00  |................|
 E282  00 00 00 00 00 00 00 00 00 00 00 00 00 00 00 00  |................|
 E292  00 00 00 00 00 00 00 00 00 00 00 00 00 00 00 00  |................|
 E2A2  00 00 00 00 00 00 00 00 00 00 00 00 00 00 00 00  |................|
 E2B2  00 00 00 00 00 00 00 00 00 00 00 00 00 00 00 00  |................|
 E2C2  00 00 00 00 00 00 00 00 00 00 00 00 00 00 00 00  |................|
 E2D2  00 00 00 00 00 00 00 00 00 00 00 00 00 00 00 00  |................|
 E2E2  00 00 00 00 00 00 00 00 00 00 00 00 00 00 00 00  |................|
 E2F2  00 00 00 00 00 00 00 00 00 00 00 00 00 00 00 00  |................|
 E302  00 00 00 00 00 00 00 00 00 00 00 00 00 00 00 00  |................|
 E312  00 00 00 00 00 00 00 00 00 00 00 00 00 00 00 00  |................|
 E322  00 00 00 00 00 00 00 00 00 00 00 00 00 00 00 00  |................|
 E332  00 00 00 00 00 00 00 00 00 00 00 00 00 00 00 00  |................|
 E342  00 00 00 00 00 00 00 00 00 00 00 00 00 00 00 00  |................|
 E352  00 00 00 00 00 00 00 00 00 00 00 00 00 00 00 00  |................|
 E362  00 00 00 00 00 00 00 00 00 00 00 00 00 00 00 00  |................|
 E372  00 00 00 00 00 00 00 00 00 00 00 00 00 00 00 00  |................|
 E382  00 00 00 00 00 00 00 00 00 00 00 00 00 00 00 00  |................|
 E392  00 00 00 00 00 00 00 00 00 00 00 00 00 00 00 00  |................|
 E3A2  00 00 00 00 00 00 00 00 00 00 00 00 00 00 00 00  |................|
 E3B2  00 00 00 00 00 00 00 00 00 00 00 00 00 00 00 00  |................|
 E3C2  00 00 00 00 00 00 00 00 00 00 00 00 00 00 00 00  |................|
 E3D2  00 00 00 00 00 00 00 00 00 00 00 00 00 00 00 00  |................|
 E3E2  00 00 00 00 00 00 00 00 00 00 00 00 00 00 00 00  |................|
 E3F2  00 00 00 00 00 00 00 00 00 00 00 00 00 00 00 00  |................|
 E402  00 00 00 00 00 00 00 00 00 00 00 00 00 00 00 00  |................|
 E412  00 00 00 00 00 00 00 00 00 00 00 00 00 00 00 00  |................|
 E422  00 00 00 00 00 00 00 00 00 00 00 00 00 00 00 00  |................|
 E432  00 00 00 00 00 00 00 00 00 00 00 00 00 00 00 00  |................|
 E442  00 00 00 00 00 00 00 00 00 00 00 00 00 00 00 00  |................|
 E452  00 00 00 00 00 00 00 00 00 00 00 00 00 00 00 00  |................|
 E462  00 00 00 00 00 00 00 00 00 00 00 00 00 00 00 00  |................|
 E472  00 00 00 00 00 00 00 00 00 00 00 00 00 00 00 00  |................|
 E482  00 00 00 00 00 00 00 00 00 00 00 00 00 00 00 00  |................|
 E492  00 00 00 00 00 00 00 00 00 00 00 00 00 00 00 00  |................|
 E4A2  00 00 00 00 00 00 00 00 00 00 00 00 00 00 00 00  |................|
 E4B2  00 00 00 00 00 00 00 00 00 00 00 00 00 00 00 00  |................|
 E4C2  00 00 00 00 00 00 00 00 00 00 00 00 00 00 00 00  |................|
 E4D2  00 00 00 00 00 00 00 00 00 00 00 00 00 00 00 00  |................|
 E4E2  00 00 00 00 00 00 00 00 00 00 00 00 00 00 00 00  |................|
 E4F2  00 00 00 00 00 00 00 00 00 00 00 00 00 00 00 00  |................|
 E502  00 00 00 00 00 00 00 00 00 00 00 00 00 00 00 00  |................|
 E512  00 00 00 00 00 00 00 00 00 00 00 00 00 00 00 00  |................|
 E522  00 00 00 00 00 00 00 00 00 00 00 00 00 00 00 00  |................|
 E532  00 00 00 00 00 00 00 00 00 00 00 00 00 00 00 00  |................|
 E542  00 00 00 00 00 00 00 00 00 00 00 00 00 00 00 00  |................|
 E552  00 00 00 00 00 00 00 00 00 00 00 00 00 00 00 00  |................|
 E562  00 00 00 00 00 00 00 00 00 00 00 00 00 00 00 00  |................|
 E572  00 00 00 00 00 00 00 00 00 00 00 00 00 00 00 00  |................|
 E582  00 00 00 00 00 00 00 00 00 00 00 00 00 00 00 00  |................|
 E592  00 00 00 00 00 00 00 00 00 00 00 00 00 00 00 00  |................|
 E5A2  00 00 00 00 00 00 00 00 00 00 00 00 00 00 00 00  |................|
 E5B2  00 00 00 00 00 00 00 00 00 00 00 00 00 00 00 00  |................|
 E5C2  00 00 00 00 00 00 00 00 00 00 00 00 00 00 00 00  |................|
 E5D2  00 00 00 00 00 00 00 00 00 00 00 00 00 00 00 00  |................|
 E5E2  00 00 00 00 00 00 00 00 00 00 00 00 00 00 00 00  |................|
 E5F2  00 00 00 00 00 00 00 00 00 00 00 00 00 00 00 00  |................|
 E602  00 00 00 00 00 00 00 00 00 00 00 00 00 00 00 00  |................|
 E612  00 00 00 00 00 00 00 00 00 00 00 00 00 00 00 00  |................|
 E622  00 00 00 00 00 00 00 00 00 00 00 00 00 00 00 00  |................|
 E632  00 00 00 00 00 00 00 00 00 00 00 00 00 00 00 00  |................|
 E642  00 00 00 00 00 00 00 00 00 00 00 00 00 00 00 00  |................|
 E652  00 00 00 00 00 00 00 00 00 00 00 00 00 00 00 00  |................|
 E662  00 00 00 00 00 00 00 00 00 00 00 00 00 00 00 00  |................|
 E672  00 00 00 00 00 00 00 00 00 00 00 00 00 00 00 00  |................|
 E682  00 00 00 00 00 00 00 00 00 00 00 00 00 00 00 00  |................|
 E692  00 00 00 00 00 00 00 00 00 00 00 00 00 00 00 00  |................|
 E6A2  00 00 00 00 00 00 00 00 00 00 00 00 00 00 00 00  |................|
 E6B2  00 00 00 00 00 00 00 00 00 00 00 00 00 00 00 00  |................|
 E6C2  00 00 00 00 00 00 00 00 00 00 00 00 00 00 00 00  |................|
 E6D2  00 00 00 00 00 00 00 00 00 00 00 00 00 00 00 00  |................|
 E6E2  00 00 00 00 00 00 00 00 00 00 00 00 00 00 00 00  |................|
 E6F2  00 00 00 00 00 00 00 00 00 00 00 00 00 00 00 00  |................|
 E702  00 00 00 00 00 00 00 00 00 00 00 00 00 00 00 00  |................|
 E712  00 00 00 00 00 00 00 00 00 00 00 00 00 00 00 00  |................|
 E722  00 00 00 00 00 00 00 00 00 00 00 00 00 00 00 00  |................|
 E732  00 00 00 00 00 00 00 00 00 00 00 00 00 00 00 00  |................|
 E742  00 00 00 00 00 00 00 00 00 00 00 00 00 00 00 00  |................|
 E752  00 00 00 00 00 00 00 00 00 00 00 00 00 00 00 00  |................|
 E762  00 00 00 00 00 00 00 00 00 00 00 00 00 00 00 00  |................|
 E772  00 00 00 00 00 00 00 00 00 00 00 00 00 00 00 00  |................|
 E782  00 00 00 00 00 00 00 00 00 00 00 00 00 00 00 00  |................|
 E792  00 00 00 00 00 00 00 00 00 00 00 00 00 00 00 00  |................|
 E7A2  00 00 00 00 00 00 00 00 00 00 00 00 00 00 00 00  |................|
 E7B2  00 00 00 00 00 00 00 00 00 00 00 00 00 00 00 00  |................|
 E7C2  00 00 00 00 00 00 00 00 00 00 00 00 00 00 00 00  |................|
 E7D2  00 00 00 00 00 00 00 00 00 00 00 00 00 00 00 00  |................|
 E7E2  00 00 00 00 00 00 00 00 00 00 00 00 00 00 00 00  |................|
 E7F2  00 00 00 00 00 00 00 00 00 00 00 00 00 00 00 00  |................|
 E802  00 00 00 00 00 00 00 00 00 00 00 00 00 00 00 00  |................|
 E812  00 00 00 00 00 00 00 00 00 00 00 00 00 00 00 00  |................|
 E822  00 00 00 00 00 00 00 00 00 00 00 00 00 00 00 00  |................|
 E832  00 00 00 00 00 00 00 00 00 00 00 00 00 00 00 00  |................|
 E842  00 00 00 00 00 00 00 00 00 00 00 00 00 00 00 00  |................|
 E852  00 00 00 00 00 00 00 00 00 00 00 00 00 00 00 00  |................|
 E862  00 00 00 00 00 00 00 00 00 00 00 00 00 00 00 00  |................|
 E872  00 00 00 00 00 00 00 00 00 00 00 00 00 00 00 00  |................|
 E882  00 00 00 00 00 00 00 00 00 00 00 00 00 00 00 00  |................|
 E892  00 00 00 00 00 00 00 00 00 00 00 00 00 00 00 00  |................|
 E8A2  00 00 00 00 00 00 00 00 00 00 00 00 00 00 00 00  |................|
 E8B2  00 00 00 00 00 00 00 00 00 00 00 00 00 00 00 00  |................|
 E8C2  00 00 00 00 00 00 00 00 00 00 00 00 00 00 00 00  |................|
 E8D2  00 00 00 00 00 00 00 00 00 00 00 00 00 00 00 00  |................|
 E8E2  00 00 00 00 00 00 00 00 00 00 00 00 00 00 00 00  |................|
 E8F2  00 00 00 00 00 00 00 00 00 00 00 00 00 00 00 00  |................|
 E902  00 00 00 00 00 00 00 00 00 00 00 00 00 00 00 00  |................|
 E912  00 00 00 00 00 00 00 00 00 00 00 00 00 00 00 00  |................|
 E922  00 00 00 00 00 00 00 00 00 00 00 00 00 00 00 00  |................|
 E932  00 00 00 00 00 00 00 00 00 00 00 00 00 00 00 00  |................|
 E942  00 00 00 00 00 00 00 00 00 00 00 00 00 00 00 00  |................|
 E952  00 00 00 00 00 00 00 00 00 00 00 00 00 00 00 00  |................|
 E962  00 00 00 00 00 00 00 00 00 00 00 00 00 00 00 00  |................|
 E972  00 00 00 00 00 00 00 00 00 00 00 00 00 00 00 00  |................|
 E982  00 00 00 00 00 00 00 00 00 00 00 00 00 00 00 00  |................|
 E992  00 00 00 00 00 00 00 00 00 00 00 00 00 00 00 00  |................|
 E9A2  00 00 00 00 00 00 00 00 00 00 00 00 00 00 00 00  |................|
 E9B2  00 00 00 00 00 00 00 00 00 00 00 00 00 00 00 00  |................|
 E9C2  00 00 00 00 00 00 00 00 00 00 00 00 00 00 00 00  |................|
 E9D2  00 00 00 00 00 00 00 00 00 00 00 00 00 00 00 00  |................|
 E9E2  00 00 00 00 00 00 00 00 00 00 00 00 00 00 00 00  |................|
 E9F2  00 00 00 00 00 00 00 00 00 00 00 00 00 00 00 00  |................|
 EA02  00 00 00 00 00 00 00 00 00 00 00 00 00 00 00 00  |................|
 EA12  00 00 00 00 00 00 00 00 00 00 00 00 00 00 00 00  |................|
 EA22  00 00 00 00 00 00 00 00 00 00 00 00 00 00 00 00  |................|
 EA32  00 00 00 00 00 00 00 00 00 00 00 00 00 00 00 00  |................|
 EA42  00 00 00 00 00 00 00 00 00 00 00 00 00 00 00 00  |................|
 EA52  00 00 00 00 00 00 00 00 00 00 00 00 00 00 00 00  |................|
 EA62  00 00 00 00 00 00 00 00 00 00 00 00 00 00 00 00  |................|
 EA72  00 00 00 00 00 00 00 00 00 00 00 00 00 00 00 00  |................|
 EA82  00 00 00 00 00 00 00 00 00 00 00 00 00 00 00 00  |................|
 EA92  00 00 00 00 00 00 00 00 00 00 00 00 00 00 00 00  |................|
 EAA2  00 00 00 00 00 00 00 00 00 00 00 00 00 00 00 00  |................|
 EAB2  00 00 00 00 00 00 00 00 00 00 00 00 00 00 00 00  |................|
 EAC2  00 00 00 00 00 00 00 00 00 00 00 00 00 00 00 00  |................|
 EAD2  00 00 00 00 00 00 00 00 00 00 00 00 00 00 00 00  |................|
 EAE2  00 00 00 00 00 00 00 00 00 00 00 00 00 00 00 00  |................|
 EAF2  00 00 00 00 00 00 00 00 00 00 00 00 00 00 00 00  |................|
 EB02  00 00 00 00 00 00 00 00 00 00 00 00 00 00 00 00  |................|
 EB12  00 00 00 00 00 00 00 00 00 00 00 00 00 00 00 00  |................|
 EB22  00 00 00 00 00 00 00 00 00 00 00 00 00 00 00 00  |................|
 EB32  00 00 00 00 00 00 00 00 00 00 00 00 00 00 00 00  |................|
 EB42  00 00 00 00 00 00 00 00 00 00 00 00 00 00 00 00  |................|
 EB52  00 00 00 00 00 00 00 00 00 00 00 00 00 00 00 00  |................|
 EB62  00 00 00 00 00 00 00 00 00 00 00 00 00 00 00 00  |................|
 EB72  00 00 00 00 00 00 00 00 00 00 00 00 00 00 00 00  |................|
 EB82  00 00 00 00 00 00 00 00 00 00 00 00 00 00 00 00  |................|
 EB92  00 00 00 00 00 00 00 00 00 00 00 00 00 00 00 00  |................|
 EBA2  00 00 00 00 00 00 00 00 00 00 00 00 00 00 00 00  |................|
 EBB2  00 00 00 00 00 00 00 00 00 00 00 00 00 00 00 00  |................|
 EBC2  00 00 00 00 00 00 00 00 00 00 00 00 00 00 00 00  |................|
 EBD2  00 00 00 00 00 00 00 00 00 00 00 00 00 00 00 00  |................|
 EBE2  00 00 00 00 00 00 00 00 00 00 00 00 00 00 00 00  |................|
 EBF2  00 00 00 00 00 00 00 00 00 00 00 00 00 00 00 00  |................|
 EC02  00 00 00 00 00 00 00 00 00 00 00 00 00 00 00 00  |................|
 EC12  00 00 00 00 00 00 00 00 00 00 00 00 00 00 00 00  |................|
 EC22  00 00 00 00 00 00 00 00 00 00 00 00 00 00 00 00  |................|
 EC32  00 00 00 00 00 00 00 00 00 00 00 00 00 00 00 00  |................|
 EC42  00 00 00 00 00 00 00 00 00 00 00 00 00 00 00 00  |................|
 EC52  00 00 00 00 00 00 00 00 00 00 00 00 00 00 00 00  |................|
 EC62  00 00 00 00 00 00 00 00 00 00 00 00 00 00 00 00  |................|
 EC72  00 00 00 00 00 00 00 00 00 00 00 00 00 00 00 00  |................|
 EC82  00 00 00 00 00 00 00 00 00 00 00 00 00 00 00 00  |................|
 EC92  00 00 00 00 00 00 00 00 00 00 00 00 00 00 00 00  |................|
 ECA2  00 00 00 00 00 00 00 00 00 00 00 00 00 00 00 00  |................|
 ECB2  00 00 00 00 00 00 00 00 00 00 00 00 00 00 00 00  |................|
 ECC2  00 00 00 00 00 00 00 00 00 00 00 00 00 00 00 00  |................|
 ECD2  00 00 00 00 00 00 00 00 00 00 00 00 00 00 00 00  |................|
 ECE2  00 00 00 00 00 00 00 00 00 00 00 00 00 00 00 00  |................|
 ECF2  00 00 00 00 00 00 00 00 00 00 00 00 00 00 00 00  |................|
 ED02  00 00 00 00 00 00 00 00 00 00 00 00 00 00 00 00  |................|
 ED12  00 00 00 00 00 00 00 00 00 00 00 00 00 00 00 00  |................|
 ED22  00 00 00 00 00 00 00 00 00 00 00 00 00 00 00 00  |................|
 ED32  00 00 00 00 00 00 00 00 00 00 00 00 00 00 00 00  |................|
 ED42  00 00 00 00 00 00 00 00 00 00 00 00 00 00 00 00  |................|
 ED52  00 00 00 00 00 00 00 00 00 00 00 00 00 00 00 00  |................|
 ED62  00 00 00 00 00 00 00 00 00 00 00 00 00 00 00 00  |................|
 ED72  00 00 00 00 00 00 00 00 00 00 00 00 00 00 00 00  |................|
 ED82  00 00 00 00 00 00 00 00 00 00 00 00 00 00 00 00  |................|
 ED92  00 00 00 00 00 00 00 00 00 00 00 00 00 00 00 00  |................|
 EDA2  00 00 00 00 00 00 00 00 00 00 00 00 00 00 00 00  |................|
 EDB2  00 00 00 00 00 00 00 00 00 00 00 00 00 00 00 00  |................|
 EDC2  00 00 00 00 00 00 00 00 00 00 00 00 00 00 00 00  |................|
 EDD2  00 00 00 00 00 00 00 00 00 00 00 00 00 00 00 00  |................|
 EDE2  00 00 00 00 00 00 00 00 00 00 00 00 00 00 00 00  |................|
 EDF2  00 00 00 00 00 00 00 00 00 00 00 00 00 00 00 00  |................|
 EE02  00 00 00 00 00 00 00 00 00 00 00 00 00 00 00 00  |................|
 EE12  00 00 00 00 00 00 00 00 00 00 00 00 00 00 00 00  |................|
 EE22  00 00 00 00 00 00 00 00 00 00 00 00 00 00 00 00  |................|
 EE32  00 00 00 00 00 00 00 00 00 00 00 00 00 00 00 00  |................|
 EE42  00 00 00 00 00 00 00 00 00 00 00 00 00 00 00 00  |................|
 EE52  00 00 00 00 00 00 00 00 00 00 00 00 00 00 00 00  |................|
 EE62  00 00 00 00 00 00 00 00 00 00 00 00 00 00 00 00  |................|
 EE72  00 00 00 00 00 00 00 00 00 00 00 00 00 00 00 00  |................|
 EE82  00 00 00 00 00 00 00 00 00 00 00 00 00 00 00 00  |................|
 EE92  00 00 00 00 00 00 00 00 00 00 00 00 00 00 00 00  |................|
 EEA2  00 00 00 00 00 00 00 00 00 00 00 00 00 00 00 00  |................|
 EEB2  00 00 00 00 00 00 00 00 00 00 00 00 00 00 00 00  |................|
 EEC2  00 00 00 00 00 00 00 00 00 00 00 00 00 00 00 00  |................|
 EED2  00 00 00 00 00 00 00 00 00 00 00 00 00 00 00 00  |................|
 EEE2  00 00 00 00 00 00 00 00 00 00 00 00 00 00 00 00  |................|
 EEF2  00 00 00 00 00 00 00 00 00 00 00 00 00 00 00 00  |................|
 EF02  00 00 00 00 00 00 00 00 00 00 00 00 00 00 00 00  |................|
 EF12  00 00 00 00 00 00 00 00 00 00 00 00 00 00 00 00  |................|
 EF22  00 00 00 00 00 00 00 00 00 00 00 00 00 00 00 00  |................|
 EF32  00 00 00 00 00 00 00 00 00 00 00 00 00 00 00 00  |................|
 EF42  00 00 00 00 00 00 00 00 00 00 00 00 00 00 00 00  |................|
 EF52  00 00 00 00 00 00 00 00 00 00 00 00 00 00 00 00  |................|
 EF62  00 00 00 00 00 00 00 00 00 00 00 00 00 00 00 00  |................|
 EF72  00 00 00 00 00 00 00 00 00 00 00 00 00 00 00 00  |................|
 EF82  00 00 00 00 00 00 00 00 00 00 00 00 00 00 00 00  |................|
 EF92  00 00 00 00 00 00 00 00 00 00 00 00 00 00 00 00  |................|
 EFA2  00 00 00 00 00 00 00 00 00 00 00 00 00 00 00 00  |................|
 EFB2  00 00 00 00 00 00 00 00 00 00 00 00 00 00 00 00  |................|
 EFC2  00 00 00 00 00 00 00 00 00 00 00 00 00 00 00 00  |................|
 EFD2  00 00 00 00 00 00 00 00 00 00 00 00 00 00 00 00  |................|
 EFE2  00 00 00 00 00 00 00 00 00 00 00 00 00 00 00 00  |................|
 EFF2  00 00 00 00 00 00 00 00 00 00 00 00 00 00 00 00  |................|
 F002  00 00 00 00                                      |....            |
 F006  20 19 F0  JSR  $F019
 F009  A2 00     LDX  #$00
 F00B  BD AB F0  LDA  $F0AB, X
 F00E  F0 06     BEQ  $F016
 F010  20 82 F0  JSR  $F082
 F013  E8        INX  
 F014  80 F5     BRA  $F00B
 F016  4C 00 80  JMP  $8000
 F019  A9 1F     LDA  #$1F
 F01B  8D 83 7F  STA  $7F83
 F01E  A9 09     LDA  #$09
 F020  8D 82 7F  STA  $7F82
 F023  9C FE 79  STZ  $79FE
 F026  9C FF 79  STZ  $79FF
 F029  58        CLI  
 F02A  60        RTS  
 F02B  AE FF 79  LDX  $79FF
 F02E  9D 00 7A  STA  $7A00, X
 F031  EE FF 79  INC  $79FF
 F034  60        RTS  
 F035  AE FE 79  LDX  $79FE
 F038  BD 00 7A  LDA  $7A00, X
 F03B  EE FE 79  INC  $79FE
 F03E  60        RTS  
 F03F  AD FF 79  LDA  $79FF
 F042  38        SEC  
 F043  ED FE 79  SBC  $79FE
 F046  60        RTS  
 F047  48        PHA  
 F048  DA        PHX  
 F049  AD 81 7F  LDA  $7F81
 F04C  29 08     AND  #$08
 F04E  F0 12     BEQ  $F062
 F050  AD 80 7F  LDA  $7F80
 F053  20 2B F0  JSR  $F02B
 F056  20 3F F0  JSR  $F03F
 F059  C9 F0     CMP  #$F0
 F05B  90 05     BCC  $F062
 F05D  A9 01     LDA  #$01
 F05F  8D 82 7F  STA  $7F82
 F062  FA        PLX  
 F063  68        PLA  
 F064  40        RTI  
 F065  20 3F F0  JSR  $F03F
 F068  F0 10     BEQ  $F07A
 F06A  C9 E0     CMP  #$E0
 F06C  B0 05     BCS  $F073
 F06E  A9 09     LDA  #$09
 F070  8D 82 7F  STA  $7F82
 F073  DA        PHX  
 F074  20 35 F0  JSR  $F035
 F077  FA        PLX  
 F078  38        SEC  
 F079  60        RTS  
 F07A  18        CLC  
 F07B  60        RTS  
 F07C  20 65 F0  JSR  $F065
 F07F  90 FB     BCC  $F07C
 F081  60        RTS  
 F082  78        SEI  
 F083  48        PHA  
 F084  AD 81 7F  LDA  $7F81
 F087  48        PHA  
 F088  29 08     AND  #$08
 F08A  F0 14     BEQ  $F0A0
 F08C  DA        PHX  
 F08D  AD 80 7F  LDA  $7F80
 F090  20 2B F0  JSR  $F02B
 F093  20 3F F0  JSR  $F03F
 F096  C9 F0     CMP  #$F0
 F098  90 05     BCC  $F09F
 F09A  A9 01     LDA  #$01
 F09C  8D 82 7F  STA  $7F82
 F09F  FA        PLX  
 F0A0  68        PLA  
 F0A1  29 10     AND  #$10
 F0A3  F0 DF     BEQ  $F084
 F0A5  68        PLA  
 F0A6  8D 80 7F  STA  $7F80
 F0A9  58        CLI  
 F0AA  60        RTS  
 F0AB  54 61 6C 69 20 46 6F 72 74 68 20 32 20 64 65 66  |Tali Forth 2 def|
 F0BB  61 75 6C 74 20 6B 65 72 6E 65 6C 20 66 6F 72 20  |ault kernel for |
 F0CB  53 61 6D 43 6F 27 73 20 53 42 43 20 28 32 30 31  |SamCo's SBC (201|
 F0DB  38 2D 30 39 2D 32 36 29 0A 00 00 00 00 00 00 00  |8-09-26)........|
 F0EB  00 00 00 00 00 00 00 00 00 00 00 00 00 00 00 00  |................|
 F0FB  00 00 00 00 00 00 00 00 00 00 00 00 00 00 00 00  |................|
 F10B  00 00 00 00 00 00 00 00 00 00 00 00 00 00 00 00  |................|
 F11B  00 00 00 00 00 00 00 00 00 00 00 00 00 00 00 00  |................|
 F12B  00 00 00 00 00 00 00 00 00 00 00 00 00 00 00 00  |................|
 F13B  00 00 00 00 00 00 00 00 00 00 00 00 00 00 00 00  |................|
 F14B  00 00 00 00 00 00 00 00 00 00 00 00 00 00 00 00  |................|
 F15B  00 00 00 00 00 00 00 00 00 00 00 00 00 00 00 00  |................|
 F16B  00 00 00 00 00 00 00 00 00 00 00 00 00 00 00 00  |................|
 F17B  00 00 00 00 00 00 00 00 00 00 00 00 00 00 00 00  |................|
 F18B  00 00 00 00 00 00 00 00 00 00 00 00 00 00 00 00  |................|
 F19B  00 00 00 00 00 00 00 00 00 00 00 00 00 00 00 00  |................|
 F1AB  00 00 00 00 00 00 00 00 00 00 00 00 00 00 00 00  |................|
 F1BB  00 00 00 00 00 00 00 00 00 00 00 00 00 00 00 00  |................|
 F1CB  00 00 00 00 00 00 00 00 00 00 00 00 00 00 00 00  |................|
 F1DB  00 00 00 00 00 00 00 00 00 00 00 00 00 00 00 00  |................|
 F1EB  00 00 00 00 00 00 00 00 00 00 00 00 00 00 00 00  |................|
 F1FB  00 00 00 00 00 00 00 00 00 00 00 00 00 00 00 00  |................|
 F20B  00 00 00 00 00 00 00 00 00 00 00 00 00 00 00 00  |................|
 F21B  00 00 00 00 00 00 00 00 00 00 00 00 00 00 00 00  |................|
 F22B  00 00 00 00 00 00 00 00 00 00 00 00 00 00 00 00  |................|
 F23B  00 00 00 00 00 00 00 00 00 00 00 00 00 00 00 00  |................|
 F24B  00 00 00 00 00 00 00 00 00 00 00 00 00 00 00 00  |................|
 F25B  00 00 00 00 00 00 00 00 00 00 00 00 00 00 00 00  |................|
 F26B  00 00 00 00 00 00 00 00 00 00 00 00 00 00 00 00  |................|
 F27B  00 00 00 00 00 00 00 00 00 00 00 00 00 00 00 00  |................|
 F28B  00 00 00 00 00 00 00 00 00 00 00 00 00 00 00 00  |................|
 F29B  00 00 00 00 00 00 00 00 00 00 00 00 00 00 00 00  |................|
 F2AB  00 00 00 00 00 00 00 00 00 00 00 00 00 00 00 00  |................|
 F2BB  00 00 00 00 00 00 00 00 00 00 00 00 00 00 00 00  |................|
 F2CB  00 00 00 00 00 00 00 00 00 00 00 00 00 00 00 00  |................|
 F2DB  00 00 00 00 00 00 00 00 00 00 00 00 00 00 00 00  |................|
 F2EB  00 00 00 00 00 00 00 00 00 00 00 00 00 00 00 00  |................|
 F2FB  00 00 00 00 00 00 00 00 00 00 00 00 00 00 00 00  |................|
 F30B  00 00 00 00 00 00 00 00 00 00 00 00 00 00 00 00  |................|
 F31B  00 00 00 00 00 00 00 00 00 00 00 00 00 00 00 00  |................|
 F32B  00 00 00 00 00 00 00 00 00 00 00 00 00 00 00 00  |................|
 F33B  00 00 00 00 00 00 00 00 00 00 00 00 00 00 00 00  |................|
 F34B  00 00 00 00 00 00 00 00 00 00 00 00 00 00 00 00  |................|
 F35B  00 00 00 00 00 00 00 00 00 00 00 00 00 00 00 00  |................|
 F36B  00 00 00 00 00 00 00 00 00 00 00 00 00 00 00 00  |................|
 F37B  00 00 00 00 00 00 00 00 00 00 00 00 00 00 00 00  |................|
 F38B  00 00 00 00 00 00 00 00 00 00 00 00 00 00 00 00  |................|
 F39B  00 00 00 00 00 00 00 00 00 00 00 00 00 00 00 00  |................|
 F3AB  00 00 00 00 00 00 00 00 00 00 00 00 00 00 00 00  |................|
 F3BB  00 00 00 00 00 00 00 00 00 00 00 00 00 00 00 00  |................|
 F3CB  00 00 00 00 00 00 00 00 00 00 00 00 00 00 00 00  |................|
 F3DB  00 00 00 00 00 00 00 00 00 00 00 00 00 00 00 00  |................|
 F3EB  00 00 00 00 00 00 00 00 00 00 00 00 00 00 00 00  |................|
 F3FB  00 00 00 00 00 00 00 00 00 00 00 00 00 00 00 00  |................|
 F40B  00 00 00 00 00 00 00 00 00 00 00 00 00 00 00 00  |................|
 F41B  00 00 00 00 00 00 00 00 00 00 00 00 00 00 00 00  |................|
 F42B  00 00 00 00 00 00 00 00 00 00 00 00 00 00 00 00  |................|
 F43B  00 00 00 00 00 00 00 00 00 00 00 00 00 00 00 00  |................|
 F44B  00 00 00 00 00 00 00 00 00 00 00 00 00 00 00 00  |................|
 F45B  00 00 00 00 00 00 00 00 00 00 00 00 00 00 00 00  |................|
 F46B  00 00 00 00 00 00 00 00 00 00 00 00 00 00 00 00  |................|
 F47B  00 00 00 00 00 00 00 00 00 00 00 00 00 00 00 00  |................|
 F48B  00 00 00 00 00 00 00 00 00 00 00 00 00 00 00 00  |................|
 F49B  00 00 00 00 00 00 00 00 00 00 00 00 00 00 00 00  |................|
 F4AB  00 00 00 00 00 00 00 00 00 00 00 00 00 00 00 00  |................|
 F4BB  00 00 00 00 00 00 00 00 00 00 00 00 00 00 00 00  |................|
 F4CB  00 00 00 00 00 00 00 00 00 00 00 00 00 00 00 00  |................|
 F4DB  00 00 00 00 00 00 00 00 00 00 00 00 00 00 00 00  |................|
 F4EB  00 00 00 00 00 00 00 00 00 00 00 00 00 00 00 00  |................|
 F4FB  00 00 00 00 00 00 00 00 00 00 00 00 00 00 00 00  |................|
 F50B  00 00 00 00 00 00 00 00 00 00 00 00 00 00 00 00  |................|
 F51B  00 00 00 00 00 00 00 00 00 00 00 00 00 00 00 00  |................|
 F52B  00 00 00 00 00 00 00 00 00 00 00 00 00 00 00 00  |................|
 F53B  00 00 00 00 00 00 00 00 00 00 00 00 00 00 00 00  |................|
 F54B  00 00 00 00 00 00 00 00 00 00 00 00 00 00 00 00  |................|
 F55B  00 00 00 00 00 00 00 00 00 00 00 00 00 00 00 00  |................|
 F56B  00 00 00 00 00 00 00 00 00 00 00 00 00 00 00 00  |................|
 F57B  00 00 00 00 00 00 00 00 00 00 00 00 00 00 00 00  |................|
 F58B  00 00 00 00 00 00 00 00 00 00 00 00 00 00 00 00  |................|
 F59B  00 00 00 00 00 00 00 00 00 00 00 00 00 00 00 00  |................|
 F5AB  00 00 00 00 00 00 00 00 00 00 00 00 00 00 00 00  |................|
 F5BB  00 00 00 00 00 00 00 00 00 00 00 00 00 00 00 00  |................|
 F5CB  00 00 00 00 00 00 00 00 00 00 00 00 00 00 00 00  |................|
 F5DB  00 00 00 00 00 00 00 00 00 00 00 00 00 00 00 00  |................|
 F5EB  00 00 00 00 00 00 00 00 00 00 00 00 00 00 00 00  |................|
 F5FB  00 00 00 00 00 00 00 00 00 00 00 00 00 00 00 00  |................|
 F60B  00 00 00 00 00 00 00 00 00 00 00 00 00 00 00 00  |................|
 F61B  00 00 00 00 00 00 00 00 00 00 00 00 00 00 00 00  |................|
 F62B  00 00 00 00 00 00 00 00 00 00 00 00 00 00 00 00  |................|
 F63B  00 00 00 00 00 00 00 00 00 00 00 00 00 00 00 00  |................|
 F64B  00 00 00 00 00 00 00 00 00 00 00 00 00 00 00 00  |................|
 F65B  00 00 00 00 00 00 00 00 00 00 00 00 00 00 00 00  |................|
 F66B  00 00 00 00 00 00 00 00 00 00 00 00 00 00 00 00  |................|
 F67B  00 00 00 00 00 00 00 00 00 00 00 00 00 00 00 00  |................|
 F68B  00 00 00 00 00 00 00 00 00 00 00 00 00 00 00 00  |................|
 F69B  00 00 00 00 00 00 00 00 00 00 00 00 00 00 00 00  |................|
 F6AB  00 00 00 00 00 00 00 00 00 00 00 00 00 00 00 00  |................|
 F6BB  00 00 00 00 00 00 00 00 00 00 00 00 00 00 00 00  |................|
 F6CB  00 00 00 00 00 00 00 00 00 00 00 00 00 00 00 00  |................|
 F6DB  00 00 00 00 00 00 00 00 00 00 00 00 00 00 00 00  |................|
 F6EB  00 00 00 00 00 00 00 00 00 00 00 00 00 00 00 00  |................|
 F6FB  00 00 00 00 00 00 00 00 00 00 00 00 00 00 00 00  |................|
 F70B  00 00 00 00 00 00 00 00 00 00 00 00 00 00 00 00  |................|
 F71B  00 00 00 00 00 00 00 00 00 00 00 00 00 00 00 00  |................|
 F72B  00 00 00 00 00 00 00 00 00 00 00 00 00 00 00 00  |................|
 F73B  00 00 00 00 00 00 00 00 00 00 00 00 00 00 00 00  |................|
 F74B  00 00 00 00 00 00 00 00 00 00 00 00 00 00 00 00  |................|
 F75B  00 00 00 00 00 00 00 00 00 00 00 00 00 00 00 00  |................|
 F76B  00 00 00 00 00 00 00 00 00 00 00 00 00 00 00 00  |................|
 F77B  00 00 00 00 00 00 00 00 00 00 00 00 00 00 00 00  |................|
 F78B  00 00 00 00 00 00 00 00 00 00 00 00 00 00 00 00  |................|
 F79B  00 00 00 00 00 00 00 00 00 00 00 00 00 00 00 00  |................|
 F7AB  00 00 00 00 00 00 00 00 00 00 00 00 00 00 00 00  |................|
 F7BB  00 00 00 00 00 00 00 00 00 00 00 00 00 00 00 00  |................|
 F7CB  00 00 00 00 00 00 00 00 00 00 00 00 00 00 00 00  |................|
 F7DB  00 00 00 00 00 00 00 00 00 00 00 00 00 00 00 00  |................|
 F7EB  00 00 00 00 00 00 00 00 00 00 00 00 00 00 00 00  |................|
 F7FB  00 00 00 00 00 00 00 00 00 00 00 00 00 00 00 00  |................|
 F80B  00 00 00 00 00 00 00 00 00 00 00 00 00 00 00 00  |................|
 F81B  00 00 00 00 00 00 00 00 00 00 00 00 00 00 00 00  |................|
 F82B  00 00 00 00 00 00 00 00 00 00 00 00 00 00 00 00  |................|
 F83B  00 00 00 00 00 00 00 00 00 00 00 00 00 00 00 00  |................|
 F84B  00 00 00 00 00 00 00 00 00 00 00 00 00 00 00 00  |................|
 F85B  00 00 00 00 00 00 00 00 00 00 00 00 00 00 00 00  |................|
 F86B  00 00 00 00 00 00 00 00 00 00 00 00 00 00 00 00  |................|
 F87B  00 00 00 00 00 00 00 00 00 00 00 00 00 00 00 00  |................|
 F88B  00 00 00 00 00 00 00 00 00 00 00 00 00 00 00 00  |................|
 F89B  00 00 00 00 00 00 00 00 00 00 00 00 00 00 00 00  |................|
 F8AB  00 00 00 00 00 00 00 00 00 00 00 00 00 00 00 00  |................|
 F8BB  00 00 00 00 00 00 00 00 00 00 00 00 00 00 00 00  |................|
 F8CB  00 00 00 00 00 00 00 00 00 00 00 00 00 00 00 00  |................|
 F8DB  00 00 00 00 00 00 00 00 00 00 00 00 00 00 00 00  |................|
 F8EB  00 00 00 00 00 00 00 00 00 00 00 00 00 00 00 00  |................|
 F8FB  00 00 00 00 00 00 00 00 00 00 00 00 00 00 00 00  |................|
 F90B  00 00 00 00 00 00 00 00 00 00 00 00 00 00 00 00  |................|
 F91B  00 00 00 00 00 00 00 00 00 00 00 00 00 00 00 00  |................|
 F92B  00 00 00 00 00 00 00 00 00 00 00 00 00 00 00 00  |................|
 F93B  00 00 00 00 00 00 00 00 00 00 00 00 00 00 00 00  |................|
 F94B  00 00 00 00 00 00 00 00 00 00 00 00 00 00 00 00  |................|
 F95B  00 00 00 00 00 00 00 00 00 00 00 00 00 00 00 00  |................|
 F96B  00 00 00 00 00 00 00 00 00 00 00 00 00 00 00 00  |................|
 F97B  00 00 00 00 00 00 00 00 00 00 00 00 00 00 00 00  |................|
 F98B  00 00 00 00 00 00 00 00 00 00 00 00 00 00 00 00  |................|
 F99B  00 00 00 00 00 00 00 00 00 00 00 00 00 00 00 00  |................|
 F9AB  00 00 00 00 00 00 00 00 00 00 00 00 00 00 00 00  |................|
 F9BB  00 00 00 00 00 00 00 00 00 00 00 00 00 00 00 00  |................|
 F9CB  00 00 00 00 00 00 00 00 00 00 00 00 00 00 00 00  |................|
 F9DB  00 00 00 00 00 00 00 00 00 00 00 00 00 00 00 00  |................|
 F9EB  00 00 00 00 00 00 00 00 00 00 00 00 00 00 00 00  |................|
 F9FB  00 00 00 00 00 00 00 00 00 00 00 00 00 00 00 00  |................|
 FA0B  00 00 00 00 00 00 00 00 00 00 00 00 00 00 00 00  |................|
 FA1B  00 00 00 00 00 00 00 00 00 00 00 00 00 00 00 00  |................|
 FA2B  00 00 00 00 00 00 00 00 00 00 00 00 00 00 00 00  |................|
 FA3B  00 00 00 00 00 00 00 00 00 00 00 00 00 00 00 00  |................|
 FA4B  00 00 00 00 00 00 00 00 00 00 00 00 00 00 00 00  |................|
 FA5B  00 00 00 00 00 00 00 00 00 00 00 00 00 00 00 00  |................|
 FA6B  00 00 00 00 00 00 00 00 00 00 00 00 00 00 00 00  |................|
 FA7B  00 00 00 00 00 00 00 00 00 00 00 00 00 00 00 00  |................|
 FA8B  00 00 00 00 00 00 00 00 00 00 00 00 00 00 00 00  |................|
 FA9B  00 00 00 00 00 00 00 00 00 00 00 00 00 00 00 00  |................|
 FAAB  00 00 00 00 00 00 00 00 00 00 00 00 00 00 00 00  |................|
 FABB  00 00 00 00 00 00 00 00 00 00 00 00 00 00 00 00  |................|
 FACB  00 00 00 00 00 00 00 00 00 00 00 00 00 00 00 00  |................|
 FADB  00 00 00 00 00 00 00 00 00 00 00 00 00 00 00 00  |................|
 FAEB  00 00 00 00 00 00 00 00 00 00 00 00 00 00 00 00  |................|
 FAFB  00 00 00 00 00 00 00 00 00 00 00 00 00 00 00 00  |................|
 FB0B  00 00 00 00 00 00 00 00 00 00 00 00 00 00 00 00  |................|
 FB1B  00 00 00 00 00 00 00 00 00 00 00 00 00 00 00 00  |................|
 FB2B  00 00 00 00 00 00 00 00 00 00 00 00 00 00 00 00  |................|
 FB3B  00 00 00 00 00 00 00 00 00 00 00 00 00 00 00 00  |................|
 FB4B  00 00 00 00 00 00 00 00 00 00 00 00 00 00 00 00  |................|
 FB5B  00 00 00 00 00 00 00 00 00 00 00 00 00 00 00 00  |................|
 FB6B  00 00 00 00 00 00 00 00 00 00 00 00 00 00 00 00  |................|
 FB7B  00 00 00 00 00 00 00 00 00 00 00 00 00 00 00 00  |................|
 FB8B  00 00 00 00 00 00 00 00 00 00 00 00 00 00 00 00  |................|
 FB9B  00 00 00 00 00 00 00 00 00 00 00 00 00 00 00 00  |................|
 FBAB  00 00 00 00 00 00 00 00 00 00 00 00 00 00 00 00  |................|
 FBBB  00 00 00 00 00 00 00 00 00 00 00 00 00 00 00 00  |................|
 FBCB  00 00 00 00 00 00 00 00 00 00 00 00 00 00 00 00  |................|
 FBDB  00 00 00 00 00 00 00 00 00 00 00 00 00 00 00 00  |................|
 FBEB  00 00 00 00 00 00 00 00 00 00 00 00 00 00 00 00  |................|
 FBFB  00 00 00 00 00 00 00 00 00 00 00 00 00 00 00 00  |................|
 FC0B  00 00 00 00 00 00 00 00 00 00 00 00 00 00 00 00  |................|
 FC1B  00 00 00 00 00 00 00 00 00 00 00 00 00 00 00 00  |................|
 FC2B  00 00 00 00 00 00 00 00 00 00 00 00 00 00 00 00  |................|
 FC3B  00 00 00 00 00 00 00 00 00 00 00 00 00 00 00 00  |................|
 FC4B  00 00 00 00 00 00 00 00 00 00 00 00 00 00 00 00  |................|
 FC5B  00 00 00 00 00 00 00 00 00 00 00 00 00 00 00 00  |................|
 FC6B  00 00 00 00 00 00 00 00 00 00 00 00 00 00 00 00  |................|
 FC7B  00 00 00 00 00 00 00 00 00 00 00 00 00 00 00 00  |................|
 FC8B  00 00 00 00 00 00 00 00 00 00 00 00 00 00 00 00  |................|
 FC9B  00 00 00 00 00 00 00 00 00 00 00 00 00 00 00 00  |................|
 FCAB  00 00 00 00 00 00 00 00 00 00 00 00 00 00 00 00  |................|
 FCBB  00 00 00 00 00 00 00 00 00 00 00 00 00 00 00 00  |................|
 FCCB  00 00 00 00 00 00 00 00 00 00 00 00 00 00 00 00  |................|
 FCDB  00 00 00 00 00 00 00 00 00 00 00 00 00 00 00 00  |................|
 FCEB  00 00 00 00 00 00 00 00 00 00 00 00 00 00 00 00  |................|
 FCFB  00 00 00 00 00 00 00 00 00 00 00 00 00 00 00 00  |................|
 FD0B  00 00 00 00 00 00 00 00 00 00 00 00 00 00 00 00  |................|
 FD1B  00 00 00 00 00 00 00 00 00 00 00 00 00 00 00 00  |................|
 FD2B  00 00 00 00 00 00 00 00 00 00 00 00 00 00 00 00  |................|
 FD3B  00 00 00 00 00 00 00 00 00 00 00 00 00 00 00 00  |................|
 FD4B  00 00 00 00 00 00 00 00 00 00 00 00 00 00 00 00  |................|
 FD5B  00 00 00 00 00 00 00 00 00 00 00 00 00 00 00 00  |................|
 FD6B  00 00 00 00 00 00 00 00 00 00 00 00 00 00 00 00  |................|
 FD7B  00 00 00 00 00 00 00 00 00 00 00 00 00 00 00 00  |................|
 FD8B  00 00 00 00 00 00 00 00 00 00 00 00 00 00 00 00  |................|
 FD9B  00 00 00 00 00 00 00 00 00 00 00 00 00 00 00 00  |................|
 FDAB  00 00 00 00 00 00 00 00 00 00 00 00 00 00 00 00  |................|
 FDBB  00 00 00 00 00 00 00 00 00 00 00 00 00 00 00 00  |................|
 FDCB  00 00 00 00 00 00 00 00 00 00 00 00 00 00 00 00  |................|
 FDDB  00 00 00 00 00 00 00 00 00 00 00 00 00 00 00 00  |................|
 FDEB  00 00 00 00 00 00 00 00 00 00 00 00 00 00 00 00  |................|
 FDFB  00 00 00 00 00 00 00 00 00 00 00 00 00 00 00 00  |................|
 FE0B  00 00 00 00 00 00 00 00 00 00 00 00 00 00 00 00  |................|
 FE1B  00 00 00 00 00 00 00 00 00 00 00 00 00 00 00 00  |................|
 FE2B  00 00 00 00 00 00 00 00 00 00 00 00 00 00 00 00  |................|
 FE3B  00 00 00 00 00 00 00 00 00 00 00 00 00 00 00 00  |................|
 FE4B  00 00 00 00 00 00 00 00 00 00 00 00 00 00 00 00  |................|
 FE5B  00 00 00 00 00 00 00 00 00 00 00 00 00 00 00 00  |................|
 FE6B  00 00 00 00 00 00 00 00 00 00 00 00 00 00 00 00  |................|
 FE7B  00 00 00 00 00 00 00 00 00 00 00 00 00 00 00 00  |................|
 FE8B  00 00 00 00 00 00 00 00 00 00 00 00 00 00 00 00  |................|
 FE9B  00 00 00 00 00 00 00 00 00 00 00 00 00 00 00 00  |................|
 FEAB  00 00 00 00 00 00 00 00 00 00 00 00 00 00 00 00  |................|
 FEBB  00 00 00 00 00 00 00 00 00 00 00 00 00 00 00 00  |................|
 FECB  00 00 00 00 00 00 00 00 00 00 00 00 00 00 00 00  |................|
 FEDB  00 00 00 00 00 00 00 00 00 00 00 00 00 00 00 00  |................|
 FEEB  00 00 00 00 00 00 00 00 00 00 00 00 00 00 00 00  |................|
 FEFB  00 00 00 00 00 00 00 00 00 00 00 00 00 00 00 00  |................|
 FF0B  00 00 00 00 00 00 00 00 00 00 00 00 00 00 00 00  |................|
 FF1B  00 00 00 00 00 00 00 00 00 00 00 00 00 00 00 00  |................|
 FF2B  00 00 00 00 00 00 00 00 00 00 00 00 00 00 00 00  |................|
 FF3B  00 00 00 00 00 00 00 00 00 00 00 00 00 00 00 00  |................|
 FF4B  00 00 00 00 00 00 00 00 00 00 00 00 00 00 00 00  |................|
 FF5B  00 00 00 00 00 00 00 00 00 00 00 00 00 00 00 00  |................|
 FF6B  00 00 00 00 00 00 00 00 00 00 00 00 00 00 00 00  |................|
 FF7B  00 00 00 00 00 00 00 00 00 00 00 00 00 00 00 00  |................|
 FF8B  00 00 00 00 00 00 00 00 00 00 00 00 00 00 00 00  |................|
 FF9B  00 00 00 00 00 00 00 00 00 00 00 00 00 00 00 00  |................|
 FFAB  00 00 00 00 00 00 00 00 00 00 00 00 00 00 00 00  |................|
 FFBB  00 00 00 00 00 00 00 00 00 00 00 00 00 00 00 00  |................|
 FFCB  00 00 00 00 00 00 00 00 00 00 00 00 00 00 00 00  |................|
 FFDB  00 00 00 00 00 00 00 00 00 00 00 00 00 00 00 00  |................|
 FFEB  00 00 00 00 00 00 00 00 00 00 00 00 00 00 00 06  |................|
 FFFB  F0 06 F0 47 F0                                   |...G.           |
